(dp0
S'is_builtin'
p1
I01
sS'childs'
p2
(lp3
(dp4
g1
I01
sg2
(lp5
(dp6
g1
I01
sS'type'
p7
I5
sS'name'
p8
S'__delattr__'
p9
sa(dp10
g1
I01
sg7
I5
sg8
S'__dict__'
p11
sa(dp12
g1
I01
sg7
I5
sg8
S'__doc__'
p13
sa(dp14
g1
I01
sg7
I2
sg8
S'__format__'
p15
sa(dp16
g1
I01
sg7
I5
sg8
S'__getattribute__'
p17
sa(dp18
g1
I01
sg7
I5
sg8
S'__getitem__'
p19
sa(dp20
g1
I01
sg7
I5
sg8
S'__getslice__'
p21
sa(dp22
g1
I01
sg7
I5
sg8
S'__hash__'
p23
sa(dp24
g1
I01
sg7
I5
sg8
S'__init__'
p25
sa(dp26
g1
I01
sg7
I2
sg8
S'__new__'
p27
sa(dp28
g1
I01
sg7
I2
sg8
S'__reduce__'
p29
sa(dp30
g1
I01
sg7
I2
sg8
S'__reduce_ex__'
p31
sa(dp32
g1
I01
sg7
I5
sg8
S'__repr__'
p33
sa(dp34
g1
I01
sg7
I5
sg8
S'__setattr__'
p35
sa(dp36
g1
I01
sg7
I2
sg8
S'__setstate__'
p37
sa(dp38
g1
I01
sg7
I2
sg8
S'__sizeof__'
p39
sa(dp40
g1
I01
sg7
I5
sg8
S'__str__'
p41
sa(dp42
g1
I01
sg7
I2
sg8
S'__subclasshook__'
p43
sa(dp44
g1
I01
sg7
I2
sg8
S'__unicode__'
p45
sa(dp46
g1
I01
sg7
I5
sg8
S'args'
p47
sa(dp48
g1
I01
sg7
I5
sg8
S'message'
p49
sasg7
I3
sg8
S'ArithmeticError'
p50
sa(dp51
g1
I01
sg2
(lp52
(dp53
g1
I01
sg7
I5
sg8
g9
sa(dp54
g1
I01
sg7
I5
sg8
g11
sa(dp55
g1
I01
sg7
I5
sg8
g13
sa(dp56
g1
I01
sg7
I2
sg8
g15
sa(dp57
g1
I01
sg7
I5
sg8
g17
sa(dp58
g1
I01
sg7
I5
sg8
g19
sa(dp59
g1
I01
sg7
I5
sg8
g21
sa(dp60
g1
I01
sg7
I5
sg8
g23
sa(dp61
g1
I01
sg7
I5
sg8
g25
sa(dp62
g1
I01
sg7
I2
sg8
g27
sa(dp63
g1
I01
sg7
I2
sg8
g29
sa(dp64
g1
I01
sg7
I2
sg8
g31
sa(dp65
g1
I01
sg7
I5
sg8
g33
sa(dp66
g1
I01
sg7
I5
sg8
g35
sa(dp67
g1
I01
sg7
I2
sg8
g37
sa(dp68
g1
I01
sg7
I2
sg8
g39
sa(dp69
g1
I01
sg7
I5
sg8
g41
sa(dp70
g1
I01
sg7
I2
sg8
g43
sa(dp71
g1
I01
sg7
I2
sg8
g45
sa(dp72
g1
I01
sg7
I5
sg8
g47
sa(dp73
g1
I01
sg7
I5
sg8
g49
sasg7
I3
sg8
S'AssertionError'
p74
sa(dp75
g1
I01
sg2
(lp76
(dp77
g1
I01
sg7
I5
sg8
g9
sa(dp78
g1
I01
sg7
I5
sg8
g11
sa(dp79
g1
I01
sg7
I5
sg8
g13
sa(dp80
g1
I01
sg7
I2
sg8
g15
sa(dp81
g1
I01
sg7
I5
sg8
g17
sa(dp82
g1
I01
sg7
I5
sg8
g19
sa(dp83
g1
I01
sg7
I5
sg8
g21
sa(dp84
g1
I01
sg7
I5
sg8
g23
sa(dp85
g1
I01
sg7
I5
sg8
g25
sa(dp86
g1
I01
sg7
I2
sg8
g27
sa(dp87
g1
I01
sg7
I2
sg8
g29
sa(dp88
g1
I01
sg7
I2
sg8
g31
sa(dp89
g1
I01
sg7
I5
sg8
g33
sa(dp90
g1
I01
sg7
I5
sg8
g35
sa(dp91
g1
I01
sg7
I2
sg8
g37
sa(dp92
g1
I01
sg7
I2
sg8
g39
sa(dp93
g1
I01
sg7
I5
sg8
g41
sa(dp94
g1
I01
sg7
I2
sg8
g43
sa(dp95
g1
I01
sg7
I2
sg8
g45
sa(dp96
g1
I01
sg7
I5
sg8
g47
sa(dp97
g1
I01
sg7
I5
sg8
g49
sasg7
I3
sg8
S'AttributeError'
p98
sa(dp99
g1
I01
sg2
(lp100
(dp101
g1
I01
sg7
I5
sg8
g9
sa(dp102
g1
I01
sg7
I5
sg8
g11
sa(dp103
g1
I01
sg7
I5
sg8
g13
sa(dp104
g1
I01
sg7
I2
sg8
g15
sa(dp105
g1
I01
sg7
I5
sg8
g17
sa(dp106
g1
I01
sg7
I5
sg8
g19
sa(dp107
g1
I01
sg7
I5
sg8
g21
sa(dp108
g1
I01
sg7
I5
sg8
g23
sa(dp109
g1
I01
sg7
I5
sg8
g25
sa(dp110
g1
I01
sg7
I2
sg8
g27
sa(dp111
g1
I01
sg7
I2
sg8
g29
sa(dp112
g1
I01
sg7
I2
sg8
g31
sa(dp113
g1
I01
sg7
I5
sg8
g33
sa(dp114
g1
I01
sg7
I5
sg8
g35
sa(dp115
g1
I01
sg7
I2
sg8
g37
sa(dp116
g1
I01
sg7
I2
sg8
g39
sa(dp117
g1
I01
sg7
I5
sg8
g41
sa(dp118
g1
I01
sg7
I2
sg8
g43
sa(dp119
g1
I01
sg7
I2
sg8
g45
sa(dp120
g1
I01
sg7
I5
sg8
g47
sa(dp121
g1
I01
sg7
I5
sg8
g49
sasg7
I3
sg8
S'BaseException'
p122
sa(dp123
g1
I01
sg2
(lp124
(dp125
g1
I01
sg7
I5
sg8
g9
sa(dp126
g1
I01
sg7
I5
sg8
g11
sa(dp127
g1
I01
sg7
I5
sg8
g13
sa(dp128
g1
I01
sg7
I2
sg8
g15
sa(dp129
g1
I01
sg7
I5
sg8
g17
sa(dp130
g1
I01
sg7
I5
sg8
g19
sa(dp131
g1
I01
sg7
I5
sg8
g21
sa(dp132
g1
I01
sg7
I5
sg8
g23
sa(dp133
g1
I01
sg7
I5
sg8
g25
sa(dp134
g1
I01
sg7
I2
sg8
g27
sa(dp135
g1
I01
sg7
I2
sg8
g29
sa(dp136
g1
I01
sg7
I2
sg8
g31
sa(dp137
g1
I01
sg7
I5
sg8
g33
sa(dp138
g1
I01
sg7
I5
sg8
g35
sa(dp139
g1
I01
sg7
I2
sg8
g37
sa(dp140
g1
I01
sg7
I2
sg8
g39
sa(dp141
g1
I01
sg7
I5
sg8
g41
sa(dp142
g1
I01
sg7
I2
sg8
g43
sa(dp143
g1
I01
sg7
I2
sg8
g45
sa(dp144
g1
I01
sg7
I5
sg8
g47
sa(dp145
g1
I01
sg7
I5
sg8
g49
sasg7
I3
sg8
S'BufferError'
p146
sa(dp147
g1
I01
sg2
(lp148
(dp149
g1
I01
sg7
I5
sg8
g9
sa(dp150
g1
I01
sg7
I5
sg8
g11
sa(dp151
g1
I01
sg7
I5
sg8
g13
sa(dp152
g1
I01
sg7
I2
sg8
g15
sa(dp153
g1
I01
sg7
I5
sg8
g17
sa(dp154
g1
I01
sg7
I5
sg8
g19
sa(dp155
g1
I01
sg7
I5
sg8
g21
sa(dp156
g1
I01
sg7
I5
sg8
g23
sa(dp157
g1
I01
sg7
I5
sg8
g25
sa(dp158
g1
I01
sg7
I2
sg8
g27
sa(dp159
g1
I01
sg7
I2
sg8
g29
sa(dp160
g1
I01
sg7
I2
sg8
g31
sa(dp161
g1
I01
sg7
I5
sg8
g33
sa(dp162
g1
I01
sg7
I5
sg8
g35
sa(dp163
g1
I01
sg7
I2
sg8
g37
sa(dp164
g1
I01
sg7
I2
sg8
g39
sa(dp165
g1
I01
sg7
I5
sg8
g41
sa(dp166
g1
I01
sg7
I2
sg8
g43
sa(dp167
g1
I01
sg7
I2
sg8
g45
sa(dp168
g1
I01
sg7
I5
sg8
g47
sa(dp169
g1
I01
sg7
I5
sg8
g49
sasg7
I3
sg8
S'BytesWarning'
p170
sa(dp171
g1
I01
sg2
(lp172
(dp173
g1
I01
sg7
I5
sg8
g9
sa(dp174
g1
I01
sg7
I5
sg8
g11
sa(dp175
g1
I01
sg7
I5
sg8
g13
sa(dp176
g1
I01
sg7
I2
sg8
g15
sa(dp177
g1
I01
sg7
I5
sg8
g17
sa(dp178
g1
I01
sg7
I5
sg8
g19
sa(dp179
g1
I01
sg7
I5
sg8
g21
sa(dp180
g1
I01
sg7
I5
sg8
g23
sa(dp181
g1
I01
sg7
I5
sg8
g25
sa(dp182
g1
I01
sg7
I2
sg8
g27
sa(dp183
g1
I01
sg7
I2
sg8
g29
sa(dp184
g1
I01
sg7
I2
sg8
g31
sa(dp185
g1
I01
sg7
I5
sg8
g33
sa(dp186
g1
I01
sg7
I5
sg8
g35
sa(dp187
g1
I01
sg7
I2
sg8
g37
sa(dp188
g1
I01
sg7
I2
sg8
g39
sa(dp189
g1
I01
sg7
I5
sg8
g41
sa(dp190
g1
I01
sg7
I2
sg8
g43
sa(dp191
g1
I01
sg7
I2
sg8
g45
sa(dp192
g1
I01
sg7
I5
sg8
g47
sa(dp193
g1
I01
sg7
I5
sg8
g49
sasg7
I3
sg8
S'DeprecationWarning'
p194
sa(dp195
g1
I01
sg2
(lp196
(dp197
g1
I01
sg7
I5
sg8
g9
sa(dp198
g1
I01
sg7
I5
sg8
g11
sa(dp199
g1
I01
sg7
I5
sg8
g13
sa(dp200
g1
I01
sg7
I2
sg8
g15
sa(dp201
g1
I01
sg7
I5
sg8
g17
sa(dp202
g1
I01
sg7
I5
sg8
g19
sa(dp203
g1
I01
sg7
I5
sg8
g21
sa(dp204
g1
I01
sg7
I5
sg8
g23
sa(dp205
g1
I01
sg7
I5
sg8
g25
sa(dp206
g1
I01
sg7
I2
sg8
g27
sa(dp207
g1
I01
sg7
I2
sg8
g29
sa(dp208
g1
I01
sg7
I2
sg8
g31
sa(dp209
g1
I01
sg7
I5
sg8
g33
sa(dp210
g1
I01
sg7
I5
sg8
g35
sa(dp211
g1
I01
sg7
I2
sg8
g37
sa(dp212
g1
I01
sg7
I2
sg8
g39
sa(dp213
g1
I01
sg7
I5
sg8
g41
sa(dp214
g1
I01
sg7
I2
sg8
g43
sa(dp215
g1
I01
sg7
I2
sg8
g45
sa(dp216
g1
I01
sg7
I5
sg8
g47
sa(dp217
g1
I01
sg7
I5
sg8
g49
sasg7
I3
sg8
S'EOFError'
p218
sa(dp219
g1
I01
sg7
I5
sg8
S'Ellipsis'
p220
sa(dp221
g1
I01
sg2
(lp222
(dp223
g1
I01
sg7
I5
sg8
g9
sa(dp224
g1
I01
sg7
I5
sg8
g11
sa(dp225
g1
I01
sg7
I5
sg8
g13
sa(dp226
g1
I01
sg7
I2
sg8
g15
sa(dp227
g1
I01
sg7
I5
sg8
g17
sa(dp228
g1
I01
sg7
I5
sg8
g19
sa(dp229
g1
I01
sg7
I5
sg8
g21
sa(dp230
g1
I01
sg7
I5
sg8
g23
sa(dp231
g1
I01
sg7
I5
sg8
g25
sa(dp232
g1
I01
sg7
I2
sg8
g27
sa(dp233
g1
I01
sg7
I2
sg8
g29
sa(dp234
g1
I01
sg7
I2
sg8
g31
sa(dp235
g1
I01
sg7
I5
sg8
g33
sa(dp236
g1
I01
sg7
I5
sg8
g35
sa(dp237
g1
I01
sg7
I2
sg8
g37
sa(dp238
g1
I01
sg7
I2
sg8
g39
sa(dp239
g1
I01
sg7
I5
sg8
g41
sa(dp240
g1
I01
sg7
I2
sg8
g43
sa(dp241
g1
I01
sg7
I2
sg8
g45
sa(dp242
g1
I01
sg7
I5
sg8
g47
sa(dp243
g1
I01
sg7
I5
sg8
S'errno'
p244
sa(dp245
g1
I01
sg7
I5
sg8
S'filename'
p246
sa(dp247
g1
I01
sg7
I5
sg8
g49
sa(dp248
g1
I01
sg7
I5
sg8
S'strerror'
p249
sasg7
I3
sg8
S'EnvironmentError'
p250
sa(dp251
g1
I01
sg2
(lp252
(dp253
g1
I01
sg7
I5
sg8
g9
sa(dp254
g1
I01
sg7
I5
sg8
g11
sa(dp255
g1
I01
sg7
I5
sg8
g13
sa(dp256
g1
I01
sg7
I2
sg8
g15
sa(dp257
g1
I01
sg7
I5
sg8
g17
sa(dp258
g1
I01
sg7
I5
sg8
g19
sa(dp259
g1
I01
sg7
I5
sg8
g21
sa(dp260
g1
I01
sg7
I5
sg8
g23
sa(dp261
g1
I01
sg7
I5
sg8
g25
sa(dp262
g1
I01
sg7
I2
sg8
g27
sa(dp263
g1
I01
sg7
I2
sg8
g29
sa(dp264
g1
I01
sg7
I2
sg8
g31
sa(dp265
g1
I01
sg7
I5
sg8
g33
sa(dp266
g1
I01
sg7
I5
sg8
g35
sa(dp267
g1
I01
sg7
I2
sg8
g37
sa(dp268
g1
I01
sg7
I2
sg8
g39
sa(dp269
g1
I01
sg7
I5
sg8
g41
sa(dp270
g1
I01
sg7
I2
sg8
g43
sa(dp271
g1
I01
sg7
I2
sg8
g45
sa(dp272
g1
I01
sg7
I5
sg8
g47
sa(dp273
g1
I01
sg7
I5
sg8
g49
sasg7
I3
sg8
S'Exception'
p274
sa(dp275
g1
I01
sg7
I5
sg8
S'False'
p276
sa(dp277
g1
I01
sg2
(lp278
(dp279
g1
I01
sg7
I5
sg8
g9
sa(dp280
g1
I01
sg7
I5
sg8
g11
sa(dp281
g1
I01
sg7
I5
sg8
g13
sa(dp282
g1
I01
sg7
I2
sg8
g15
sa(dp283
g1
I01
sg7
I5
sg8
g17
sa(dp284
g1
I01
sg7
I5
sg8
g19
sa(dp285
g1
I01
sg7
I5
sg8
g21
sa(dp286
g1
I01
sg7
I5
sg8
g23
sa(dp287
g1
I01
sg7
I5
sg8
g25
sa(dp288
g1
I01
sg7
I2
sg8
g27
sa(dp289
g1
I01
sg7
I2
sg8
g29
sa(dp290
g1
I01
sg7
I2
sg8
g31
sa(dp291
g1
I01
sg7
I5
sg8
g33
sa(dp292
g1
I01
sg7
I5
sg8
g35
sa(dp293
g1
I01
sg7
I2
sg8
g37
sa(dp294
g1
I01
sg7
I2
sg8
g39
sa(dp295
g1
I01
sg7
I5
sg8
g41
sa(dp296
g1
I01
sg7
I2
sg8
g43
sa(dp297
g1
I01
sg7
I2
sg8
g45
sa(dp298
g1
I01
sg7
I5
sg8
g47
sa(dp299
g1
I01
sg7
I5
sg8
g49
sasg7
I3
sg8
S'FloatingPointError'
p300
sa(dp301
g1
I01
sg2
(lp302
(dp303
g1
I01
sg7
I5
sg8
g9
sa(dp304
g1
I01
sg7
I5
sg8
g11
sa(dp305
g1
I01
sg7
I5
sg8
g13
sa(dp306
g1
I01
sg7
I2
sg8
g15
sa(dp307
g1
I01
sg7
I5
sg8
g17
sa(dp308
g1
I01
sg7
I5
sg8
g19
sa(dp309
g1
I01
sg7
I5
sg8
g21
sa(dp310
g1
I01
sg7
I5
sg8
g23
sa(dp311
g1
I01
sg7
I5
sg8
g25
sa(dp312
g1
I01
sg7
I2
sg8
g27
sa(dp313
g1
I01
sg7
I2
sg8
g29
sa(dp314
g1
I01
sg7
I2
sg8
g31
sa(dp315
g1
I01
sg7
I5
sg8
g33
sa(dp316
g1
I01
sg7
I5
sg8
g35
sa(dp317
g1
I01
sg7
I2
sg8
g37
sa(dp318
g1
I01
sg7
I2
sg8
g39
sa(dp319
g1
I01
sg7
I5
sg8
g41
sa(dp320
g1
I01
sg7
I2
sg8
g43
sa(dp321
g1
I01
sg7
I2
sg8
g45
sa(dp322
g1
I01
sg7
I5
sg8
g47
sa(dp323
g1
I01
sg7
I5
sg8
g49
sasg7
I3
sg8
S'FutureWarning'
p324
sa(dp325
g1
I01
sg2
(lp326
(dp327
g1
I01
sg7
I5
sg8
g9
sa(dp328
g1
I01
sg7
I5
sg8
g11
sa(dp329
g1
I01
sg7
I5
sg8
g13
sa(dp330
g1
I01
sg7
I2
sg8
g15
sa(dp331
g1
I01
sg7
I5
sg8
g17
sa(dp332
g1
I01
sg7
I5
sg8
g19
sa(dp333
g1
I01
sg7
I5
sg8
g21
sa(dp334
g1
I01
sg7
I5
sg8
g23
sa(dp335
g1
I01
sg7
I5
sg8
g25
sa(dp336
g1
I01
sg7
I2
sg8
g27
sa(dp337
g1
I01
sg7
I2
sg8
g29
sa(dp338
g1
I01
sg7
I2
sg8
g31
sa(dp339
g1
I01
sg7
I5
sg8
g33
sa(dp340
g1
I01
sg7
I5
sg8
g35
sa(dp341
g1
I01
sg7
I2
sg8
g37
sa(dp342
g1
I01
sg7
I2
sg8
g39
sa(dp343
g1
I01
sg7
I5
sg8
g41
sa(dp344
g1
I01
sg7
I2
sg8
g43
sa(dp345
g1
I01
sg7
I2
sg8
g45
sa(dp346
g1
I01
sg7
I5
sg8
g47
sa(dp347
g1
I01
sg7
I5
sg8
g49
sasg7
I3
sg8
S'GeneratorExit'
p348
sa(dp349
g1
I01
sg2
(lp350
(dp351
g1
I01
sg7
I5
sg8
g9
sa(dp352
g1
I01
sg7
I5
sg8
g11
sa(dp353
g1
I01
sg7
I5
sg8
g13
sa(dp354
g1
I01
sg7
I2
sg8
g15
sa(dp355
g1
I01
sg7
I5
sg8
g17
sa(dp356
g1
I01
sg7
I5
sg8
g19
sa(dp357
g1
I01
sg7
I5
sg8
g21
sa(dp358
g1
I01
sg7
I5
sg8
g23
sa(dp359
g1
I01
sg7
I5
sg8
g25
sa(dp360
g1
I01
sg7
I2
sg8
g27
sa(dp361
g1
I01
sg7
I2
sg8
g29
sa(dp362
g1
I01
sg7
I2
sg8
g31
sa(dp363
g1
I01
sg7
I5
sg8
g33
sa(dp364
g1
I01
sg7
I5
sg8
g35
sa(dp365
g1
I01
sg7
I2
sg8
g37
sa(dp366
g1
I01
sg7
I2
sg8
g39
sa(dp367
g1
I01
sg7
I5
sg8
g41
sa(dp368
g1
I01
sg7
I2
sg8
g43
sa(dp369
g1
I01
sg7
I2
sg8
g45
sa(dp370
g1
I01
sg7
I5
sg8
g47
sa(dp371
g1
I01
sg7
I5
sg8
g244
sa(dp372
g1
I01
sg7
I5
sg8
g246
sa(dp373
g1
I01
sg7
I5
sg8
g49
sa(dp374
g1
I01
sg7
I5
sg8
g249
sasg7
I3
sg8
S'IOError'
p375
sa(dp376
g1
I01
sg2
(lp377
(dp378
g1
I01
sg7
I5
sg8
g9
sa(dp379
g1
I01
sg7
I5
sg8
g11
sa(dp380
g1
I01
sg7
I5
sg8
g13
sa(dp381
g1
I01
sg7
I2
sg8
g15
sa(dp382
g1
I01
sg7
I5
sg8
g17
sa(dp383
g1
I01
sg7
I5
sg8
g19
sa(dp384
g1
I01
sg7
I5
sg8
g21
sa(dp385
g1
I01
sg7
I5
sg8
g23
sa(dp386
g1
I01
sg7
I5
sg8
g25
sa(dp387
g1
I01
sg7
I2
sg8
g27
sa(dp388
g1
I01
sg7
I2
sg8
g29
sa(dp389
g1
I01
sg7
I2
sg8
g31
sa(dp390
g1
I01
sg7
I5
sg8
g33
sa(dp391
g1
I01
sg7
I5
sg8
g35
sa(dp392
g1
I01
sg7
I2
sg8
g37
sa(dp393
g1
I01
sg7
I2
sg8
g39
sa(dp394
g1
I01
sg7
I5
sg8
g41
sa(dp395
g1
I01
sg7
I2
sg8
g43
sa(dp396
g1
I01
sg7
I2
sg8
g45
sa(dp397
g1
I01
sg7
I5
sg8
g47
sa(dp398
g1
I01
sg7
I5
sg8
g49
sasg7
I3
sg8
S'ImportError'
p399
sa(dp400
g1
I01
sg2
(lp401
(dp402
g1
I01
sg7
I5
sg8
g9
sa(dp403
g1
I01
sg7
I5
sg8
g11
sa(dp404
g1
I01
sg7
I5
sg8
g13
sa(dp405
g1
I01
sg7
I2
sg8
g15
sa(dp406
g1
I01
sg7
I5
sg8
g17
sa(dp407
g1
I01
sg7
I5
sg8
g19
sa(dp408
g1
I01
sg7
I5
sg8
g21
sa(dp409
g1
I01
sg7
I5
sg8
g23
sa(dp410
g1
I01
sg7
I5
sg8
g25
sa(dp411
g1
I01
sg7
I2
sg8
g27
sa(dp412
g1
I01
sg7
I2
sg8
g29
sa(dp413
g1
I01
sg7
I2
sg8
g31
sa(dp414
g1
I01
sg7
I5
sg8
g33
sa(dp415
g1
I01
sg7
I5
sg8
g35
sa(dp416
g1
I01
sg7
I2
sg8
g37
sa(dp417
g1
I01
sg7
I2
sg8
g39
sa(dp418
g1
I01
sg7
I5
sg8
g41
sa(dp419
g1
I01
sg7
I2
sg8
g43
sa(dp420
g1
I01
sg7
I2
sg8
g45
sa(dp421
g1
I01
sg7
I5
sg8
g47
sa(dp422
g1
I01
sg7
I5
sg8
g49
sasg7
I3
sg8
S'ImportWarning'
p423
sa(dp424
g1
I01
sg2
(lp425
(dp426
g1
I01
sg7
I5
sg8
g9
sa(dp427
g1
I01
sg7
I5
sg8
g11
sa(dp428
g1
I01
sg7
I5
sg8
g13
sa(dp429
g1
I01
sg7
I2
sg8
g15
sa(dp430
g1
I01
sg7
I5
sg8
g17
sa(dp431
g1
I01
sg7
I5
sg8
g19
sa(dp432
g1
I01
sg7
I5
sg8
g21
sa(dp433
g1
I01
sg7
I5
sg8
g23
sa(dp434
g1
I01
sg7
I5
sg8
g25
sa(dp435
g1
I01
sg7
I2
sg8
g27
sa(dp436
g1
I01
sg7
I2
sg8
g29
sa(dp437
g1
I01
sg7
I2
sg8
g31
sa(dp438
g1
I01
sg7
I5
sg8
g33
sa(dp439
g1
I01
sg7
I5
sg8
g35
sa(dp440
g1
I01
sg7
I2
sg8
g37
sa(dp441
g1
I01
sg7
I2
sg8
g39
sa(dp442
g1
I01
sg7
I5
sg8
g41
sa(dp443
g1
I01
sg7
I2
sg8
g43
sa(dp444
g1
I01
sg7
I2
sg8
g45
sa(dp445
g1
I01
sg7
I5
sg8
g47
sa(dp446
g1
I01
sg7
I5
sg8
g246
sa(dp447
g1
I01
sg7
I5
sg8
S'lineno'
p448
sa(dp449
g1
I01
sg7
I5
sg8
g49
sa(dp450
g1
I01
sg7
I5
sg8
S'msg'
p451
sa(dp452
g1
I01
sg7
I5
sg8
S'offset'
p453
sa(dp454
g1
I01
sg7
I5
sg8
S'print_file_and_line'
p455
sa(dp456
g1
I01
sg7
I5
sg8
S'text'
p457
sasg7
I3
sg8
S'IndentationError'
p458
sa(dp459
g1
I01
sg2
(lp460
(dp461
g1
I01
sg7
I5
sg8
g9
sa(dp462
g1
I01
sg7
I5
sg8
g11
sa(dp463
g1
I01
sg7
I5
sg8
g13
sa(dp464
g1
I01
sg7
I2
sg8
g15
sa(dp465
g1
I01
sg7
I5
sg8
g17
sa(dp466
g1
I01
sg7
I5
sg8
g19
sa(dp467
g1
I01
sg7
I5
sg8
g21
sa(dp468
g1
I01
sg7
I5
sg8
g23
sa(dp469
g1
I01
sg7
I5
sg8
g25
sa(dp470
g1
I01
sg7
I2
sg8
g27
sa(dp471
g1
I01
sg7
I2
sg8
g29
sa(dp472
g1
I01
sg7
I2
sg8
g31
sa(dp473
g1
I01
sg7
I5
sg8
g33
sa(dp474
g1
I01
sg7
I5
sg8
g35
sa(dp475
g1
I01
sg7
I2
sg8
g37
sa(dp476
g1
I01
sg7
I2
sg8
g39
sa(dp477
g1
I01
sg7
I5
sg8
g41
sa(dp478
g1
I01
sg7
I2
sg8
g43
sa(dp479
g1
I01
sg7
I2
sg8
g45
sa(dp480
g1
I01
sg7
I5
sg8
g47
sa(dp481
g1
I01
sg7
I5
sg8
g49
sasg7
I3
sg8
S'IndexError'
p482
sa(dp483
g1
I01
sg2
(lp484
(dp485
g1
I01
sg7
I5
sg8
g9
sa(dp486
g1
I01
sg7
I5
sg8
g11
sa(dp487
g1
I01
sg7
I5
sg8
g13
sa(dp488
g1
I01
sg7
I2
sg8
g15
sa(dp489
g1
I01
sg7
I5
sg8
g17
sa(dp490
g1
I01
sg7
I5
sg8
g19
sa(dp491
g1
I01
sg7
I5
sg8
g21
sa(dp492
g1
I01
sg7
I5
sg8
g23
sa(dp493
g1
I01
sg7
I5
sg8
g25
sa(dp494
g1
I01
sg7
I2
sg8
g27
sa(dp495
g1
I01
sg7
I2
sg8
g29
sa(dp496
g1
I01
sg7
I2
sg8
g31
sa(dp497
g1
I01
sg7
I5
sg8
g33
sa(dp498
g1
I01
sg7
I5
sg8
g35
sa(dp499
g1
I01
sg7
I2
sg8
g37
sa(dp500
g1
I01
sg7
I2
sg8
g39
sa(dp501
g1
I01
sg7
I5
sg8
g41
sa(dp502
g1
I01
sg7
I2
sg8
g43
sa(dp503
g1
I01
sg7
I2
sg8
g45
sa(dp504
g1
I01
sg7
I5
sg8
g47
sa(dp505
g1
I01
sg7
I5
sg8
g49
sasg7
I3
sg8
S'KeyError'
p506
sa(dp507
g1
I01
sg2
(lp508
(dp509
g1
I01
sg7
I5
sg8
g9
sa(dp510
g1
I01
sg7
I5
sg8
g11
sa(dp511
g1
I01
sg7
I5
sg8
g13
sa(dp512
g1
I01
sg7
I2
sg8
g15
sa(dp513
g1
I01
sg7
I5
sg8
g17
sa(dp514
g1
I01
sg7
I5
sg8
g19
sa(dp515
g1
I01
sg7
I5
sg8
g21
sa(dp516
g1
I01
sg7
I5
sg8
g23
sa(dp517
g1
I01
sg7
I5
sg8
g25
sa(dp518
g1
I01
sg7
I2
sg8
g27
sa(dp519
g1
I01
sg7
I2
sg8
g29
sa(dp520
g1
I01
sg7
I2
sg8
g31
sa(dp521
g1
I01
sg7
I5
sg8
g33
sa(dp522
g1
I01
sg7
I5
sg8
g35
sa(dp523
g1
I01
sg7
I2
sg8
g37
sa(dp524
g1
I01
sg7
I2
sg8
g39
sa(dp525
g1
I01
sg7
I5
sg8
g41
sa(dp526
g1
I01
sg7
I2
sg8
g43
sa(dp527
g1
I01
sg7
I2
sg8
g45
sa(dp528
g1
I01
sg7
I5
sg8
g47
sa(dp529
g1
I01
sg7
I5
sg8
g49
sasg7
I3
sg8
S'KeyboardInterrupt'
p530
sa(dp531
g1
I01
sg2
(lp532
(dp533
g1
I01
sg7
I5
sg8
g9
sa(dp534
g1
I01
sg7
I5
sg8
g11
sa(dp535
g1
I01
sg7
I5
sg8
g13
sa(dp536
g1
I01
sg7
I2
sg8
g15
sa(dp537
g1
I01
sg7
I5
sg8
g17
sa(dp538
g1
I01
sg7
I5
sg8
g19
sa(dp539
g1
I01
sg7
I5
sg8
g21
sa(dp540
g1
I01
sg7
I5
sg8
g23
sa(dp541
g1
I01
sg7
I5
sg8
g25
sa(dp542
g1
I01
sg7
I2
sg8
g27
sa(dp543
g1
I01
sg7
I2
sg8
g29
sa(dp544
g1
I01
sg7
I2
sg8
g31
sa(dp545
g1
I01
sg7
I5
sg8
g33
sa(dp546
g1
I01
sg7
I5
sg8
g35
sa(dp547
g1
I01
sg7
I2
sg8
g37
sa(dp548
g1
I01
sg7
I2
sg8
g39
sa(dp549
g1
I01
sg7
I5
sg8
g41
sa(dp550
g1
I01
sg7
I2
sg8
g43
sa(dp551
g1
I01
sg7
I2
sg8
g45
sa(dp552
g1
I01
sg7
I5
sg8
g47
sa(dp553
g1
I01
sg7
I5
sg8
g49
sasg7
I3
sg8
S'LookupError'
p554
sa(dp555
g1
I01
sg2
(lp556
(dp557
g1
I01
sg7
I5
sg8
g9
sa(dp558
g1
I01
sg7
I5
sg8
g11
sa(dp559
g1
I01
sg7
I5
sg8
g13
sa(dp560
g1
I01
sg7
I2
sg8
g15
sa(dp561
g1
I01
sg7
I5
sg8
g17
sa(dp562
g1
I01
sg7
I5
sg8
g19
sa(dp563
g1
I01
sg7
I5
sg8
g21
sa(dp564
g1
I01
sg7
I5
sg8
g23
sa(dp565
g1
I01
sg7
I5
sg8
g25
sa(dp566
g1
I01
sg7
I2
sg8
g27
sa(dp567
g1
I01
sg7
I2
sg8
g29
sa(dp568
g1
I01
sg7
I2
sg8
g31
sa(dp569
g1
I01
sg7
I5
sg8
g33
sa(dp570
g1
I01
sg7
I5
sg8
g35
sa(dp571
g1
I01
sg7
I2
sg8
g37
sa(dp572
g1
I01
sg7
I2
sg8
g39
sa(dp573
g1
I01
sg7
I5
sg8
g41
sa(dp574
g1
I01
sg7
I2
sg8
g43
sa(dp575
g1
I01
sg7
I2
sg8
g45
sa(dp576
g1
I01
sg7
I5
sg8
g47
sa(dp577
g1
I01
sg7
I5
sg8
g49
sasg7
I3
sg8
S'MemoryError'
p578
sa(dp579
g1
I01
sg2
(lp580
(dp581
g1
I01
sg7
I5
sg8
g9
sa(dp582
g1
I01
sg7
I5
sg8
g11
sa(dp583
g1
I01
sg7
I5
sg8
g13
sa(dp584
g1
I01
sg7
I2
sg8
g15
sa(dp585
g1
I01
sg7
I5
sg8
g17
sa(dp586
g1
I01
sg7
I5
sg8
g19
sa(dp587
g1
I01
sg7
I5
sg8
g21
sa(dp588
g1
I01
sg7
I5
sg8
g23
sa(dp589
g1
I01
sg7
I5
sg8
g25
sa(dp590
g1
I01
sg7
I2
sg8
g27
sa(dp591
g1
I01
sg7
I2
sg8
g29
sa(dp592
g1
I01
sg7
I2
sg8
g31
sa(dp593
g1
I01
sg7
I5
sg8
g33
sa(dp594
g1
I01
sg7
I5
sg8
g35
sa(dp595
g1
I01
sg7
I2
sg8
g37
sa(dp596
g1
I01
sg7
I2
sg8
g39
sa(dp597
g1
I01
sg7
I5
sg8
g41
sa(dp598
g1
I01
sg7
I2
sg8
g43
sa(dp599
g1
I01
sg7
I2
sg8
g45
sa(dp600
g1
I01
sg7
I5
sg8
g47
sa(dp601
g1
I01
sg7
I5
sg8
g49
sasg7
I3
sg8
S'NameError'
p602
sa(dp603
g1
I01
sg7
I5
sg8
S'None'
p604
sa(dp605
g1
I01
sg7
I5
sg8
S'NotImplemented'
p606
sa(dp607
g1
I01
sg2
(lp608
(dp609
g1
I01
sg7
I5
sg8
g9
sa(dp610
g1
I01
sg7
I5
sg8
g11
sa(dp611
g1
I01
sg7
I5
sg8
g13
sa(dp612
g1
I01
sg7
I2
sg8
g15
sa(dp613
g1
I01
sg7
I5
sg8
g17
sa(dp614
g1
I01
sg7
I5
sg8
g19
sa(dp615
g1
I01
sg7
I5
sg8
g21
sa(dp616
g1
I01
sg7
I5
sg8
g23
sa(dp617
g1
I01
sg7
I5
sg8
g25
sa(dp618
g1
I01
sg7
I2
sg8
g27
sa(dp619
g1
I01
sg7
I2
sg8
g29
sa(dp620
g1
I01
sg7
I2
sg8
g31
sa(dp621
g1
I01
sg7
I5
sg8
g33
sa(dp622
g1
I01
sg7
I5
sg8
g35
sa(dp623
g1
I01
sg7
I2
sg8
g37
sa(dp624
g1
I01
sg7
I2
sg8
g39
sa(dp625
g1
I01
sg7
I5
sg8
g41
sa(dp626
g1
I01
sg7
I2
sg8
g43
sa(dp627
g1
I01
sg7
I2
sg8
g45
sa(dp628
g1
I01
sg7
I5
sg8
g47
sa(dp629
g1
I01
sg7
I5
sg8
g49
sasg7
I3
sg8
S'NotImplementedError'
p630
sa(dp631
g1
I01
sg2
(lp632
(dp633
g1
I01
sg7
I5
sg8
g9
sa(dp634
g1
I01
sg7
I5
sg8
g11
sa(dp635
g1
I01
sg7
I5
sg8
g13
sa(dp636
g1
I01
sg7
I2
sg8
g15
sa(dp637
g1
I01
sg7
I5
sg8
g17
sa(dp638
g1
I01
sg7
I5
sg8
g19
sa(dp639
g1
I01
sg7
I5
sg8
g21
sa(dp640
g1
I01
sg7
I5
sg8
g23
sa(dp641
g1
I01
sg7
I5
sg8
g25
sa(dp642
g1
I01
sg7
I2
sg8
g27
sa(dp643
g1
I01
sg7
I2
sg8
g29
sa(dp644
g1
I01
sg7
I2
sg8
g31
sa(dp645
g1
I01
sg7
I5
sg8
g33
sa(dp646
g1
I01
sg7
I5
sg8
g35
sa(dp647
g1
I01
sg7
I2
sg8
g37
sa(dp648
g1
I01
sg7
I2
sg8
g39
sa(dp649
g1
I01
sg7
I5
sg8
g41
sa(dp650
g1
I01
sg7
I2
sg8
g43
sa(dp651
g1
I01
sg7
I2
sg8
g45
sa(dp652
g1
I01
sg7
I5
sg8
g47
sa(dp653
g1
I01
sg7
I5
sg8
g244
sa(dp654
g1
I01
sg7
I5
sg8
g246
sa(dp655
g1
I01
sg7
I5
sg8
g49
sa(dp656
g1
I01
sg7
I5
sg8
g249
sasg7
I3
sg8
S'OSError'
p657
sa(dp658
g1
I01
sg2
(lp659
(dp660
g1
I01
sg7
I5
sg8
g9
sa(dp661
g1
I01
sg7
I5
sg8
g11
sa(dp662
g1
I01
sg7
I5
sg8
g13
sa(dp663
g1
I01
sg7
I2
sg8
g15
sa(dp664
g1
I01
sg7
I5
sg8
g17
sa(dp665
g1
I01
sg7
I5
sg8
g19
sa(dp666
g1
I01
sg7
I5
sg8
g21
sa(dp667
g1
I01
sg7
I5
sg8
g23
sa(dp668
g1
I01
sg7
I5
sg8
g25
sa(dp669
g1
I01
sg7
I2
sg8
g27
sa(dp670
g1
I01
sg7
I2
sg8
g29
sa(dp671
g1
I01
sg7
I2
sg8
g31
sa(dp672
g1
I01
sg7
I5
sg8
g33
sa(dp673
g1
I01
sg7
I5
sg8
g35
sa(dp674
g1
I01
sg7
I2
sg8
g37
sa(dp675
g1
I01
sg7
I2
sg8
g39
sa(dp676
g1
I01
sg7
I5
sg8
g41
sa(dp677
g1
I01
sg7
I2
sg8
g43
sa(dp678
g1
I01
sg7
I2
sg8
g45
sa(dp679
g1
I01
sg7
I5
sg8
g47
sa(dp680
g1
I01
sg7
I5
sg8
g49
sasg7
I3
sg8
S'OverflowError'
p681
sa(dp682
g1
I01
sg2
(lp683
(dp684
g1
I01
sg7
I5
sg8
g9
sa(dp685
g1
I01
sg7
I5
sg8
g11
sa(dp686
g1
I01
sg7
I5
sg8
g13
sa(dp687
g1
I01
sg7
I2
sg8
g15
sa(dp688
g1
I01
sg7
I5
sg8
g17
sa(dp689
g1
I01
sg7
I5
sg8
g19
sa(dp690
g1
I01
sg7
I5
sg8
g21
sa(dp691
g1
I01
sg7
I5
sg8
g23
sa(dp692
g1
I01
sg7
I5
sg8
g25
sa(dp693
g1
I01
sg7
I2
sg8
g27
sa(dp694
g1
I01
sg7
I2
sg8
g29
sa(dp695
g1
I01
sg7
I2
sg8
g31
sa(dp696
g1
I01
sg7
I5
sg8
g33
sa(dp697
g1
I01
sg7
I5
sg8
g35
sa(dp698
g1
I01
sg7
I2
sg8
g37
sa(dp699
g1
I01
sg7
I2
sg8
g39
sa(dp700
g1
I01
sg7
I5
sg8
g41
sa(dp701
g1
I01
sg7
I2
sg8
g43
sa(dp702
g1
I01
sg7
I2
sg8
g45
sa(dp703
g1
I01
sg7
I5
sg8
g47
sa(dp704
g1
I01
sg7
I5
sg8
g49
sasg7
I3
sg8
S'PendingDeprecationWarning'
p705
sa(dp706
g1
I01
sg2
(lp707
(dp708
g1
I01
sg7
I5
sg8
g9
sa(dp709
g1
I01
sg7
I5
sg8
g11
sa(dp710
g1
I01
sg7
I5
sg8
g13
sa(dp711
g1
I01
sg7
I2
sg8
g15
sa(dp712
g1
I01
sg7
I5
sg8
g17
sa(dp713
g1
I01
sg7
I5
sg8
g19
sa(dp714
g1
I01
sg7
I5
sg8
g21
sa(dp715
g1
I01
sg7
I5
sg8
g23
sa(dp716
g1
I01
sg7
I5
sg8
g25
sa(dp717
g1
I01
sg7
I2
sg8
g27
sa(dp718
g1
I01
sg7
I2
sg8
g29
sa(dp719
g1
I01
sg7
I2
sg8
g31
sa(dp720
g1
I01
sg7
I5
sg8
g33
sa(dp721
g1
I01
sg7
I5
sg8
g35
sa(dp722
g1
I01
sg7
I2
sg8
g37
sa(dp723
g1
I01
sg7
I2
sg8
g39
sa(dp724
g1
I01
sg7
I5
sg8
g41
sa(dp725
g1
I01
sg7
I2
sg8
g43
sa(dp726
g1
I01
sg7
I2
sg8
g45
sa(dp727
g1
I01
sg7
I5
sg8
g47
sa(dp728
g1
I01
sg7
I5
sg8
g49
sasg7
I3
sg8
S'ReferenceError'
p729
sa(dp730
g1
I01
sg2
(lp731
(dp732
g1
I01
sg7
I5
sg8
g9
sa(dp733
g1
I01
sg7
I5
sg8
g11
sa(dp734
g1
I01
sg7
I5
sg8
g13
sa(dp735
g1
I01
sg7
I2
sg8
g15
sa(dp736
g1
I01
sg7
I5
sg8
g17
sa(dp737
g1
I01
sg7
I5
sg8
g19
sa(dp738
g1
I01
sg7
I5
sg8
g21
sa(dp739
g1
I01
sg7
I5
sg8
g23
sa(dp740
g1
I01
sg7
I5
sg8
g25
sa(dp741
g1
I01
sg7
I2
sg8
g27
sa(dp742
g1
I01
sg7
I2
sg8
g29
sa(dp743
g1
I01
sg7
I2
sg8
g31
sa(dp744
g1
I01
sg7
I5
sg8
g33
sa(dp745
g1
I01
sg7
I5
sg8
g35
sa(dp746
g1
I01
sg7
I2
sg8
g37
sa(dp747
g1
I01
sg7
I2
sg8
g39
sa(dp748
g1
I01
sg7
I5
sg8
g41
sa(dp749
g1
I01
sg7
I2
sg8
g43
sa(dp750
g1
I01
sg7
I2
sg8
g45
sa(dp751
g1
I01
sg7
I5
sg8
g47
sa(dp752
g1
I01
sg7
I5
sg8
g49
sasg7
I3
sg8
S'RuntimeError'
p753
sa(dp754
g1
I01
sg2
(lp755
(dp756
g1
I01
sg7
I5
sg8
g9
sa(dp757
g1
I01
sg7
I5
sg8
g11
sa(dp758
g1
I01
sg7
I5
sg8
g13
sa(dp759
g1
I01
sg7
I2
sg8
g15
sa(dp760
g1
I01
sg7
I5
sg8
g17
sa(dp761
g1
I01
sg7
I5
sg8
g19
sa(dp762
g1
I01
sg7
I5
sg8
g21
sa(dp763
g1
I01
sg7
I5
sg8
g23
sa(dp764
g1
I01
sg7
I5
sg8
g25
sa(dp765
g1
I01
sg7
I2
sg8
g27
sa(dp766
g1
I01
sg7
I2
sg8
g29
sa(dp767
g1
I01
sg7
I2
sg8
g31
sa(dp768
g1
I01
sg7
I5
sg8
g33
sa(dp769
g1
I01
sg7
I5
sg8
g35
sa(dp770
g1
I01
sg7
I2
sg8
g37
sa(dp771
g1
I01
sg7
I2
sg8
g39
sa(dp772
g1
I01
sg7
I5
sg8
g41
sa(dp773
g1
I01
sg7
I2
sg8
g43
sa(dp774
g1
I01
sg7
I2
sg8
g45
sa(dp775
g1
I01
sg7
I5
sg8
g47
sa(dp776
g1
I01
sg7
I5
sg8
g49
sasg7
I3
sg8
S'RuntimeWarning'
p777
sa(dp778
g1
I01
sg2
(lp779
(dp780
g1
I01
sg7
I5
sg8
g9
sa(dp781
g1
I01
sg7
I5
sg8
g11
sa(dp782
g1
I01
sg7
I5
sg8
g13
sa(dp783
g1
I01
sg7
I2
sg8
g15
sa(dp784
g1
I01
sg7
I5
sg8
g17
sa(dp785
g1
I01
sg7
I5
sg8
g19
sa(dp786
g1
I01
sg7
I5
sg8
g21
sa(dp787
g1
I01
sg7
I5
sg8
g23
sa(dp788
g1
I01
sg7
I5
sg8
g25
sa(dp789
g1
I01
sg7
I2
sg8
g27
sa(dp790
g1
I01
sg7
I2
sg8
g29
sa(dp791
g1
I01
sg7
I2
sg8
g31
sa(dp792
g1
I01
sg7
I5
sg8
g33
sa(dp793
g1
I01
sg7
I5
sg8
g35
sa(dp794
g1
I01
sg7
I2
sg8
g37
sa(dp795
g1
I01
sg7
I2
sg8
g39
sa(dp796
g1
I01
sg7
I5
sg8
g41
sa(dp797
g1
I01
sg7
I2
sg8
g43
sa(dp798
g1
I01
sg7
I2
sg8
g45
sa(dp799
g1
I01
sg7
I5
sg8
g47
sa(dp800
g1
I01
sg7
I5
sg8
g49
sasg7
I3
sg8
S'StandardError'
p801
sa(dp802
g1
I01
sg2
(lp803
(dp804
g1
I01
sg7
I5
sg8
g9
sa(dp805
g1
I01
sg7
I5
sg8
g11
sa(dp806
g1
I01
sg7
I5
sg8
g13
sa(dp807
g1
I01
sg7
I2
sg8
g15
sa(dp808
g1
I01
sg7
I5
sg8
g17
sa(dp809
g1
I01
sg7
I5
sg8
g19
sa(dp810
g1
I01
sg7
I5
sg8
g21
sa(dp811
g1
I01
sg7
I5
sg8
g23
sa(dp812
g1
I01
sg7
I5
sg8
g25
sa(dp813
g1
I01
sg7
I2
sg8
g27
sa(dp814
g1
I01
sg7
I2
sg8
g29
sa(dp815
g1
I01
sg7
I2
sg8
g31
sa(dp816
g1
I01
sg7
I5
sg8
g33
sa(dp817
g1
I01
sg7
I5
sg8
g35
sa(dp818
g1
I01
sg7
I2
sg8
g37
sa(dp819
g1
I01
sg7
I2
sg8
g39
sa(dp820
g1
I01
sg7
I5
sg8
g41
sa(dp821
g1
I01
sg7
I2
sg8
g43
sa(dp822
g1
I01
sg7
I2
sg8
g45
sa(dp823
g1
I01
sg7
I5
sg8
g47
sa(dp824
g1
I01
sg7
I5
sg8
g49
sasg7
I3
sg8
S'StopIteration'
p825
sa(dp826
g1
I01
sg2
(lp827
(dp828
g1
I01
sg7
I5
sg8
g9
sa(dp829
g1
I01
sg7
I5
sg8
g11
sa(dp830
g1
I01
sg7
I5
sg8
g13
sa(dp831
g1
I01
sg7
I2
sg8
g15
sa(dp832
g1
I01
sg7
I5
sg8
g17
sa(dp833
g1
I01
sg7
I5
sg8
g19
sa(dp834
g1
I01
sg7
I5
sg8
g21
sa(dp835
g1
I01
sg7
I5
sg8
g23
sa(dp836
g1
I01
sg7
I5
sg8
g25
sa(dp837
g1
I01
sg7
I2
sg8
g27
sa(dp838
g1
I01
sg7
I2
sg8
g29
sa(dp839
g1
I01
sg7
I2
sg8
g31
sa(dp840
g1
I01
sg7
I5
sg8
g33
sa(dp841
g1
I01
sg7
I5
sg8
g35
sa(dp842
g1
I01
sg7
I2
sg8
g37
sa(dp843
g1
I01
sg7
I2
sg8
g39
sa(dp844
g1
I01
sg7
I5
sg8
g41
sa(dp845
g1
I01
sg7
I2
sg8
g43
sa(dp846
g1
I01
sg7
I2
sg8
g45
sa(dp847
g1
I01
sg7
I5
sg8
g47
sa(dp848
g1
I01
sg7
I5
sg8
g246
sa(dp849
g1
I01
sg7
I5
sg8
g448
sa(dp850
g1
I01
sg7
I5
sg8
g49
sa(dp851
g1
I01
sg7
I5
sg8
g451
sa(dp852
g1
I01
sg7
I5
sg8
g453
sa(dp853
g1
I01
sg7
I5
sg8
g455
sa(dp854
g1
I01
sg7
I5
sg8
g457
sasg7
I3
sg8
S'SyntaxError'
p855
sa(dp856
g1
I01
sg2
(lp857
(dp858
g1
I01
sg7
I5
sg8
g9
sa(dp859
g1
I01
sg7
I5
sg8
g11
sa(dp860
g1
I01
sg7
I5
sg8
g13
sa(dp861
g1
I01
sg7
I2
sg8
g15
sa(dp862
g1
I01
sg7
I5
sg8
g17
sa(dp863
g1
I01
sg7
I5
sg8
g19
sa(dp864
g1
I01
sg7
I5
sg8
g21
sa(dp865
g1
I01
sg7
I5
sg8
g23
sa(dp866
g1
I01
sg7
I5
sg8
g25
sa(dp867
g1
I01
sg7
I2
sg8
g27
sa(dp868
g1
I01
sg7
I2
sg8
g29
sa(dp869
g1
I01
sg7
I2
sg8
g31
sa(dp870
g1
I01
sg7
I5
sg8
g33
sa(dp871
g1
I01
sg7
I5
sg8
g35
sa(dp872
g1
I01
sg7
I2
sg8
g37
sa(dp873
g1
I01
sg7
I2
sg8
g39
sa(dp874
g1
I01
sg7
I5
sg8
g41
sa(dp875
g1
I01
sg7
I2
sg8
g43
sa(dp876
g1
I01
sg7
I2
sg8
g45
sa(dp877
g1
I01
sg7
I5
sg8
g47
sa(dp878
g1
I01
sg7
I5
sg8
g49
sasg7
I3
sg8
S'SyntaxWarning'
p879
sa(dp880
g1
I01
sg2
(lp881
(dp882
g1
I01
sg7
I5
sg8
g9
sa(dp883
g1
I01
sg7
I5
sg8
g11
sa(dp884
g1
I01
sg7
I5
sg8
g13
sa(dp885
g1
I01
sg7
I2
sg8
g15
sa(dp886
g1
I01
sg7
I5
sg8
g17
sa(dp887
g1
I01
sg7
I5
sg8
g19
sa(dp888
g1
I01
sg7
I5
sg8
g21
sa(dp889
g1
I01
sg7
I5
sg8
g23
sa(dp890
g1
I01
sg7
I5
sg8
g25
sa(dp891
g1
I01
sg7
I2
sg8
g27
sa(dp892
g1
I01
sg7
I2
sg8
g29
sa(dp893
g1
I01
sg7
I2
sg8
g31
sa(dp894
g1
I01
sg7
I5
sg8
g33
sa(dp895
g1
I01
sg7
I5
sg8
g35
sa(dp896
g1
I01
sg7
I2
sg8
g37
sa(dp897
g1
I01
sg7
I2
sg8
g39
sa(dp898
g1
I01
sg7
I5
sg8
g41
sa(dp899
g1
I01
sg7
I2
sg8
g43
sa(dp900
g1
I01
sg7
I2
sg8
g45
sa(dp901
g1
I01
sg7
I5
sg8
g47
sa(dp902
g1
I01
sg7
I5
sg8
g49
sasg7
I3
sg8
S'SystemError'
p903
sa(dp904
g1
I01
sg2
(lp905
(dp906
g1
I01
sg7
I5
sg8
g9
sa(dp907
g1
I01
sg7
I5
sg8
g11
sa(dp908
g1
I01
sg7
I5
sg8
g13
sa(dp909
g1
I01
sg7
I2
sg8
g15
sa(dp910
g1
I01
sg7
I5
sg8
g17
sa(dp911
g1
I01
sg7
I5
sg8
g19
sa(dp912
g1
I01
sg7
I5
sg8
g21
sa(dp913
g1
I01
sg7
I5
sg8
g23
sa(dp914
g1
I01
sg7
I5
sg8
g25
sa(dp915
g1
I01
sg7
I2
sg8
g27
sa(dp916
g1
I01
sg7
I2
sg8
g29
sa(dp917
g1
I01
sg7
I2
sg8
g31
sa(dp918
g1
I01
sg7
I5
sg8
g33
sa(dp919
g1
I01
sg7
I5
sg8
g35
sa(dp920
g1
I01
sg7
I2
sg8
g37
sa(dp921
g1
I01
sg7
I2
sg8
g39
sa(dp922
g1
I01
sg7
I5
sg8
g41
sa(dp923
g1
I01
sg7
I2
sg8
g43
sa(dp924
g1
I01
sg7
I2
sg8
g45
sa(dp925
g1
I01
sg7
I5
sg8
g47
sa(dp926
g1
I01
sg7
I5
sg8
S'code'
p927
sa(dp928
g1
I01
sg7
I5
sg8
g49
sasg7
I3
sg8
S'SystemExit'
p929
sa(dp930
g1
I01
sg2
(lp931
(dp932
g1
I01
sg7
I5
sg8
g9
sa(dp933
g1
I01
sg7
I5
sg8
g11
sa(dp934
g1
I01
sg7
I5
sg8
g13
sa(dp935
g1
I01
sg7
I2
sg8
g15
sa(dp936
g1
I01
sg7
I5
sg8
g17
sa(dp937
g1
I01
sg7
I5
sg8
g19
sa(dp938
g1
I01
sg7
I5
sg8
g21
sa(dp939
g1
I01
sg7
I5
sg8
g23
sa(dp940
g1
I01
sg7
I5
sg8
g25
sa(dp941
g1
I01
sg7
I2
sg8
g27
sa(dp942
g1
I01
sg7
I2
sg8
g29
sa(dp943
g1
I01
sg7
I2
sg8
g31
sa(dp944
g1
I01
sg7
I5
sg8
g33
sa(dp945
g1
I01
sg7
I5
sg8
g35
sa(dp946
g1
I01
sg7
I2
sg8
g37
sa(dp947
g1
I01
sg7
I2
sg8
g39
sa(dp948
g1
I01
sg7
I5
sg8
g41
sa(dp949
g1
I01
sg7
I2
sg8
g43
sa(dp950
g1
I01
sg7
I2
sg8
g45
sa(dp951
g1
I01
sg7
I5
sg8
g47
sa(dp952
g1
I01
sg7
I5
sg8
g246
sa(dp953
g1
I01
sg7
I5
sg8
g448
sa(dp954
g1
I01
sg7
I5
sg8
g49
sa(dp955
g1
I01
sg7
I5
sg8
g451
sa(dp956
g1
I01
sg7
I5
sg8
g453
sa(dp957
g1
I01
sg7
I5
sg8
g455
sa(dp958
g1
I01
sg7
I5
sg8
g457
sasg7
I3
sg8
S'TabError'
p959
sa(dp960
g1
I01
sg7
I5
sg8
S'True'
p961
sa(dp962
g1
I01
sg2
(lp963
(dp964
g1
I01
sg7
I5
sg8
g9
sa(dp965
g1
I01
sg7
I5
sg8
g11
sa(dp966
g1
I01
sg7
I5
sg8
g13
sa(dp967
g1
I01
sg7
I2
sg8
g15
sa(dp968
g1
I01
sg7
I5
sg8
g17
sa(dp969
g1
I01
sg7
I5
sg8
g19
sa(dp970
g1
I01
sg7
I5
sg8
g21
sa(dp971
g1
I01
sg7
I5
sg8
g23
sa(dp972
g1
I01
sg7
I5
sg8
g25
sa(dp973
g1
I01
sg7
I2
sg8
g27
sa(dp974
g1
I01
sg7
I2
sg8
g29
sa(dp975
g1
I01
sg7
I2
sg8
g31
sa(dp976
g1
I01
sg7
I5
sg8
g33
sa(dp977
g1
I01
sg7
I5
sg8
g35
sa(dp978
g1
I01
sg7
I2
sg8
g37
sa(dp979
g1
I01
sg7
I2
sg8
g39
sa(dp980
g1
I01
sg7
I5
sg8
g41
sa(dp981
g1
I01
sg7
I2
sg8
g43
sa(dp982
g1
I01
sg7
I2
sg8
g45
sa(dp983
g1
I01
sg7
I5
sg8
g47
sa(dp984
g1
I01
sg7
I5
sg8
g49
sasg7
I3
sg8
S'TypeError'
p985
sa(dp986
g1
I01
sg2
(lp987
(dp988
g1
I01
sg7
I5
sg8
g9
sa(dp989
g1
I01
sg7
I5
sg8
g11
sa(dp990
g1
I01
sg7
I5
sg8
g13
sa(dp991
g1
I01
sg7
I2
sg8
g15
sa(dp992
g1
I01
sg7
I5
sg8
g17
sa(dp993
g1
I01
sg7
I5
sg8
g19
sa(dp994
g1
I01
sg7
I5
sg8
g21
sa(dp995
g1
I01
sg7
I5
sg8
g23
sa(dp996
g1
I01
sg7
I5
sg8
g25
sa(dp997
g1
I01
sg7
I2
sg8
g27
sa(dp998
g1
I01
sg7
I2
sg8
g29
sa(dp999
g1
I01
sg7
I2
sg8
g31
sa(dp1000
g1
I01
sg7
I5
sg8
g33
sa(dp1001
g1
I01
sg7
I5
sg8
g35
sa(dp1002
g1
I01
sg7
I2
sg8
g37
sa(dp1003
g1
I01
sg7
I2
sg8
g39
sa(dp1004
g1
I01
sg7
I5
sg8
g41
sa(dp1005
g1
I01
sg7
I2
sg8
g43
sa(dp1006
g1
I01
sg7
I2
sg8
g45
sa(dp1007
g1
I01
sg7
I5
sg8
g47
sa(dp1008
g1
I01
sg7
I5
sg8
g49
sasg7
I3
sg8
S'UnboundLocalError'
p1009
sa(dp1010
g1
I01
sg2
(lp1011
(dp1012
g1
I01
sg7
I5
sg8
g9
sa(dp1013
g1
I01
sg7
I5
sg8
g11
sa(dp1014
g1
I01
sg7
I5
sg8
g13
sa(dp1015
g1
I01
sg7
I2
sg8
g15
sa(dp1016
g1
I01
sg7
I5
sg8
g17
sa(dp1017
g1
I01
sg7
I5
sg8
g19
sa(dp1018
g1
I01
sg7
I5
sg8
g21
sa(dp1019
g1
I01
sg7
I5
sg8
g23
sa(dp1020
g1
I01
sg7
I5
sg8
g25
sa(dp1021
g1
I01
sg7
I2
sg8
g27
sa(dp1022
g1
I01
sg7
I2
sg8
g29
sa(dp1023
g1
I01
sg7
I2
sg8
g31
sa(dp1024
g1
I01
sg7
I5
sg8
g33
sa(dp1025
g1
I01
sg7
I5
sg8
g35
sa(dp1026
g1
I01
sg7
I2
sg8
g37
sa(dp1027
g1
I01
sg7
I2
sg8
g39
sa(dp1028
g1
I01
sg7
I5
sg8
g41
sa(dp1029
g1
I01
sg7
I2
sg8
g43
sa(dp1030
g1
I01
sg7
I2
sg8
g45
sa(dp1031
g1
I01
sg7
I5
sg8
g47
sa(dp1032
g1
I01
sg7
I5
sg8
S'encoding'
p1033
sa(dp1034
g1
I01
sg7
I5
sg8
S'end'
p1035
sa(dp1036
g1
I01
sg7
I5
sg8
g49
sa(dp1037
g1
I01
sg7
I5
sg8
S'object'
p1038
sa(dp1039
g1
I01
sg7
I5
sg8
S'reason'
p1040
sa(dp1041
g1
I01
sg7
I5
sg8
S'start'
p1042
sasg7
I3
sg8
S'UnicodeDecodeError'
p1043
sa(dp1044
g1
I01
sg2
(lp1045
(dp1046
g1
I01
sg7
I5
sg8
g9
sa(dp1047
g1
I01
sg7
I5
sg8
g11
sa(dp1048
g1
I01
sg7
I5
sg8
g13
sa(dp1049
g1
I01
sg7
I2
sg8
g15
sa(dp1050
g1
I01
sg7
I5
sg8
g17
sa(dp1051
g1
I01
sg7
I5
sg8
g19
sa(dp1052
g1
I01
sg7
I5
sg8
g21
sa(dp1053
g1
I01
sg7
I5
sg8
g23
sa(dp1054
g1
I01
sg7
I5
sg8
g25
sa(dp1055
g1
I01
sg7
I2
sg8
g27
sa(dp1056
g1
I01
sg7
I2
sg8
g29
sa(dp1057
g1
I01
sg7
I2
sg8
g31
sa(dp1058
g1
I01
sg7
I5
sg8
g33
sa(dp1059
g1
I01
sg7
I5
sg8
g35
sa(dp1060
g1
I01
sg7
I2
sg8
g37
sa(dp1061
g1
I01
sg7
I2
sg8
g39
sa(dp1062
g1
I01
sg7
I5
sg8
g41
sa(dp1063
g1
I01
sg7
I2
sg8
g43
sa(dp1064
g1
I01
sg7
I2
sg8
g45
sa(dp1065
g1
I01
sg7
I5
sg8
g47
sa(dp1066
g1
I01
sg7
I5
sg8
g1033
sa(dp1067
g1
I01
sg7
I5
sg8
g1035
sa(dp1068
g1
I01
sg7
I5
sg8
g49
sa(dp1069
g1
I01
sg7
I5
sg8
g1038
sa(dp1070
g1
I01
sg7
I5
sg8
g1040
sa(dp1071
g1
I01
sg7
I5
sg8
g1042
sasg7
I3
sg8
S'UnicodeEncodeError'
p1072
sa(dp1073
g1
I01
sg2
(lp1074
(dp1075
g1
I01
sg7
I5
sg8
g9
sa(dp1076
g1
I01
sg7
I5
sg8
g11
sa(dp1077
g1
I01
sg7
I5
sg8
g13
sa(dp1078
g1
I01
sg7
I2
sg8
g15
sa(dp1079
g1
I01
sg7
I5
sg8
g17
sa(dp1080
g1
I01
sg7
I5
sg8
g19
sa(dp1081
g1
I01
sg7
I5
sg8
g21
sa(dp1082
g1
I01
sg7
I5
sg8
g23
sa(dp1083
g1
I01
sg7
I5
sg8
g25
sa(dp1084
g1
I01
sg7
I2
sg8
g27
sa(dp1085
g1
I01
sg7
I2
sg8
g29
sa(dp1086
g1
I01
sg7
I2
sg8
g31
sa(dp1087
g1
I01
sg7
I5
sg8
g33
sa(dp1088
g1
I01
sg7
I5
sg8
g35
sa(dp1089
g1
I01
sg7
I2
sg8
g37
sa(dp1090
g1
I01
sg7
I2
sg8
g39
sa(dp1091
g1
I01
sg7
I5
sg8
g41
sa(dp1092
g1
I01
sg7
I2
sg8
g43
sa(dp1093
g1
I01
sg7
I2
sg8
g45
sa(dp1094
g1
I01
sg7
I5
sg8
g47
sa(dp1095
g1
I01
sg7
I5
sg8
g49
sasg7
I3
sg8
S'UnicodeError'
p1096
sa(dp1097
g1
I01
sg2
(lp1098
(dp1099
g1
I01
sg7
I5
sg8
g9
sa(dp1100
g1
I01
sg7
I5
sg8
g11
sa(dp1101
g1
I01
sg7
I5
sg8
g13
sa(dp1102
g1
I01
sg7
I2
sg8
g15
sa(dp1103
g1
I01
sg7
I5
sg8
g17
sa(dp1104
g1
I01
sg7
I5
sg8
g19
sa(dp1105
g1
I01
sg7
I5
sg8
g21
sa(dp1106
g1
I01
sg7
I5
sg8
g23
sa(dp1107
g1
I01
sg7
I5
sg8
g25
sa(dp1108
g1
I01
sg7
I2
sg8
g27
sa(dp1109
g1
I01
sg7
I2
sg8
g29
sa(dp1110
g1
I01
sg7
I2
sg8
g31
sa(dp1111
g1
I01
sg7
I5
sg8
g33
sa(dp1112
g1
I01
sg7
I5
sg8
g35
sa(dp1113
g1
I01
sg7
I2
sg8
g37
sa(dp1114
g1
I01
sg7
I2
sg8
g39
sa(dp1115
g1
I01
sg7
I5
sg8
g41
sa(dp1116
g1
I01
sg7
I2
sg8
g43
sa(dp1117
g1
I01
sg7
I2
sg8
g45
sa(dp1118
g1
I01
sg7
I5
sg8
g47
sa(dp1119
g1
I01
sg7
I5
sg8
g1033
sa(dp1120
g1
I01
sg7
I5
sg8
g1035
sa(dp1121
g1
I01
sg7
I5
sg8
g49
sa(dp1122
g1
I01
sg7
I5
sg8
g1038
sa(dp1123
g1
I01
sg7
I5
sg8
g1040
sa(dp1124
g1
I01
sg7
I5
sg8
g1042
sasg7
I3
sg8
S'UnicodeTranslateError'
p1125
sa(dp1126
g1
I01
sg2
(lp1127
(dp1128
g1
I01
sg7
I5
sg8
g9
sa(dp1129
g1
I01
sg7
I5
sg8
g11
sa(dp1130
g1
I01
sg7
I5
sg8
g13
sa(dp1131
g1
I01
sg7
I2
sg8
g15
sa(dp1132
g1
I01
sg7
I5
sg8
g17
sa(dp1133
g1
I01
sg7
I5
sg8
g19
sa(dp1134
g1
I01
sg7
I5
sg8
g21
sa(dp1135
g1
I01
sg7
I5
sg8
g23
sa(dp1136
g1
I01
sg7
I5
sg8
g25
sa(dp1137
g1
I01
sg7
I2
sg8
g27
sa(dp1138
g1
I01
sg7
I2
sg8
g29
sa(dp1139
g1
I01
sg7
I2
sg8
g31
sa(dp1140
g1
I01
sg7
I5
sg8
g33
sa(dp1141
g1
I01
sg7
I5
sg8
g35
sa(dp1142
g1
I01
sg7
I2
sg8
g37
sa(dp1143
g1
I01
sg7
I2
sg8
g39
sa(dp1144
g1
I01
sg7
I5
sg8
g41
sa(dp1145
g1
I01
sg7
I2
sg8
g43
sa(dp1146
g1
I01
sg7
I2
sg8
g45
sa(dp1147
g1
I01
sg7
I5
sg8
g47
sa(dp1148
g1
I01
sg7
I5
sg8
g49
sasg7
I3
sg8
S'UnicodeWarning'
p1149
sa(dp1150
g1
I01
sg2
(lp1151
(dp1152
g1
I01
sg7
I5
sg8
g9
sa(dp1153
g1
I01
sg7
I5
sg8
g11
sa(dp1154
g1
I01
sg7
I5
sg8
g13
sa(dp1155
g1
I01
sg7
I2
sg8
g15
sa(dp1156
g1
I01
sg7
I5
sg8
g17
sa(dp1157
g1
I01
sg7
I5
sg8
g19
sa(dp1158
g1
I01
sg7
I5
sg8
g21
sa(dp1159
g1
I01
sg7
I5
sg8
g23
sa(dp1160
g1
I01
sg7
I5
sg8
g25
sa(dp1161
g1
I01
sg7
I2
sg8
g27
sa(dp1162
g1
I01
sg7
I2
sg8
g29
sa(dp1163
g1
I01
sg7
I2
sg8
g31
sa(dp1164
g1
I01
sg7
I5
sg8
g33
sa(dp1165
g1
I01
sg7
I5
sg8
g35
sa(dp1166
g1
I01
sg7
I2
sg8
g37
sa(dp1167
g1
I01
sg7
I2
sg8
g39
sa(dp1168
g1
I01
sg7
I5
sg8
g41
sa(dp1169
g1
I01
sg7
I2
sg8
g43
sa(dp1170
g1
I01
sg7
I2
sg8
g45
sa(dp1171
g1
I01
sg7
I5
sg8
g47
sa(dp1172
g1
I01
sg7
I5
sg8
g49
sasg7
I3
sg8
S'UserWarning'
p1173
sa(dp1174
g1
I01
sg2
(lp1175
(dp1176
g1
I01
sg7
I5
sg8
g9
sa(dp1177
g1
I01
sg7
I5
sg8
g11
sa(dp1178
g1
I01
sg7
I5
sg8
g13
sa(dp1179
g1
I01
sg7
I2
sg8
g15
sa(dp1180
g1
I01
sg7
I5
sg8
g17
sa(dp1181
g1
I01
sg7
I5
sg8
g19
sa(dp1182
g1
I01
sg7
I5
sg8
g21
sa(dp1183
g1
I01
sg7
I5
sg8
g23
sa(dp1184
g1
I01
sg7
I5
sg8
g25
sa(dp1185
g1
I01
sg7
I2
sg8
g27
sa(dp1186
g1
I01
sg7
I2
sg8
g29
sa(dp1187
g1
I01
sg7
I2
sg8
g31
sa(dp1188
g1
I01
sg7
I5
sg8
g33
sa(dp1189
g1
I01
sg7
I5
sg8
g35
sa(dp1190
g1
I01
sg7
I2
sg8
g37
sa(dp1191
g1
I01
sg7
I2
sg8
g39
sa(dp1192
g1
I01
sg7
I5
sg8
g41
sa(dp1193
g1
I01
sg7
I2
sg8
g43
sa(dp1194
g1
I01
sg7
I2
sg8
g45
sa(dp1195
g1
I01
sg7
I5
sg8
g47
sa(dp1196
g1
I01
sg7
I5
sg8
g49
sasg7
I3
sg8
S'ValueError'
p1197
sa(dp1198
g1
I01
sg2
(lp1199
(dp1200
g1
I01
sg7
I5
sg8
g9
sa(dp1201
g1
I01
sg7
I5
sg8
g11
sa(dp1202
g1
I01
sg7
I5
sg8
g13
sa(dp1203
g1
I01
sg7
I2
sg8
g15
sa(dp1204
g1
I01
sg7
I5
sg8
g17
sa(dp1205
g1
I01
sg7
I5
sg8
g19
sa(dp1206
g1
I01
sg7
I5
sg8
g21
sa(dp1207
g1
I01
sg7
I5
sg8
g23
sa(dp1208
g1
I01
sg7
I5
sg8
g25
sa(dp1209
g1
I01
sg7
I2
sg8
g27
sa(dp1210
g1
I01
sg7
I2
sg8
g29
sa(dp1211
g1
I01
sg7
I2
sg8
g31
sa(dp1212
g1
I01
sg7
I5
sg8
g33
sa(dp1213
g1
I01
sg7
I5
sg8
g35
sa(dp1214
g1
I01
sg7
I2
sg8
g37
sa(dp1215
g1
I01
sg7
I2
sg8
g39
sa(dp1216
g1
I01
sg7
I5
sg8
g41
sa(dp1217
g1
I01
sg7
I2
sg8
g43
sa(dp1218
g1
I01
sg7
I2
sg8
g45
sa(dp1219
g1
I01
sg7
I5
sg8
g47
sa(dp1220
g1
I01
sg7
I5
sg8
g49
sasg7
I3
sg8
S'Warning'
p1221
sa(dp1222
g1
I01
sg2
(lp1223
(dp1224
g1
I01
sg7
I5
sg8
g9
sa(dp1225
g1
I01
sg7
I5
sg8
g11
sa(dp1226
g1
I01
sg7
I5
sg8
g13
sa(dp1227
g1
I01
sg7
I2
sg8
g15
sa(dp1228
g1
I01
sg7
I5
sg8
g17
sa(dp1229
g1
I01
sg7
I5
sg8
g19
sa(dp1230
g1
I01
sg7
I5
sg8
g21
sa(dp1231
g1
I01
sg7
I5
sg8
g23
sa(dp1232
g1
I01
sg7
I5
sg8
g25
sa(dp1233
g1
I01
sg7
I2
sg8
g27
sa(dp1234
g1
I01
sg7
I2
sg8
g29
sa(dp1235
g1
I01
sg7
I2
sg8
g31
sa(dp1236
g1
I01
sg7
I5
sg8
g33
sa(dp1237
g1
I01
sg7
I5
sg8
g35
sa(dp1238
g1
I01
sg7
I2
sg8
g37
sa(dp1239
g1
I01
sg7
I2
sg8
g39
sa(dp1240
g1
I01
sg7
I5
sg8
g41
sa(dp1241
g1
I01
sg7
I2
sg8
g43
sa(dp1242
g1
I01
sg7
I2
sg8
g45
sa(dp1243
g1
I01
sg7
I5
sg8
g47
sa(dp1244
g1
I01
sg7
I5
sg8
g49
sasg7
I3
sg8
S'ZeroDivisionError'
p1245
sa(dp1246
g1
I01
sg7
I5
sg8
S'__debug__'
p1247
sa(dp1248
g1
I01
sg7
I5
sg8
g13
sa(dp1249
g1
I01
sg7
I2
sg8
S'__import__'
p1250
sa(dp1251
g1
I01
sg7
I5
sg8
S'__name__'
p1252
sa(dp1253
g1
I01
sg7
I5
sg8
S'__package__'
p1254
sa(dp1255
g1
I01
sg7
I2
sg8
S'abs'
p1256
sa(dp1257
g1
I01
sg7
I2
sg8
S'all'
p1258
sa(dp1259
g1
I01
sg7
I2
sg8
S'any'
p1260
sa(dp1261
g1
I01
sg7
I2
sg8
S'apply'
p1262
sa(dp1263
g1
I01
sg2
(lp1264
(dp1265
g1
I01
sg7
I5
sg8
g9
sa(dp1266
g1
I01
sg7
I5
sg8
g13
sa(dp1267
g1
I01
sg7
I2
sg8
g15
sa(dp1268
g1
I01
sg7
I5
sg8
g17
sa(dp1269
g1
I01
sg7
I5
sg8
g23
sa(dp1270
g1
I01
sg7
I5
sg8
g25
sa(dp1271
g1
I01
sg7
I2
sg8
g27
sa(dp1272
g1
I01
sg7
I2
sg8
g29
sa(dp1273
g1
I01
sg7
I2
sg8
g31
sa(dp1274
g1
I01
sg7
I5
sg8
g33
sa(dp1275
g1
I01
sg7
I5
sg8
g35
sa(dp1276
g1
I01
sg7
I2
sg8
g39
sa(dp1277
g1
I01
sg7
I5
sg8
g41
sa(dp1278
g1
I01
sg7
I2
sg8
g43
sasg7
I3
sg8
S'basestring'
p1279
sa(dp1280
g1
I01
sg7
I2
sg8
S'bin'
p1281
sa(dp1282
g1
I01
sg2
(lp1283
(dp1284
g1
I01
sg7
I5
sg8
S'__abs__'
p1285
sa(dp1286
g1
I01
sg7
I5
sg8
S'__add__'
p1287
sa(dp1288
g1
I01
sg7
I5
sg8
S'__and__'
p1289
sa(dp1290
g1
I01
sg7
I5
sg8
S'__cmp__'
p1291
sa(dp1292
g1
I01
sg7
I5
sg8
S'__coerce__'
p1293
sa(dp1294
g1
I01
sg7
I5
sg8
g9
sa(dp1295
g1
I01
sg7
I5
sg8
S'__div__'
p1296
sa(dp1297
g1
I01
sg7
I5
sg8
S'__divmod__'
p1298
sa(dp1299
g1
I01
sg7
I5
sg8
g13
sa(dp1300
g1
I01
sg7
I5
sg8
S'__float__'
p1301
sa(dp1302
g1
I01
sg7
I5
sg8
S'__floordiv__'
p1303
sa(dp1304
g1
I01
sg7
I2
sg8
g15
sa(dp1305
g1
I01
sg7
I5
sg8
g17
sa(dp1306
g1
I01
sg7
I2
sg8
S'__getnewargs__'
p1307
sa(dp1308
g1
I01
sg7
I5
sg8
g23
sa(dp1309
g1
I01
sg7
I5
sg8
S'__hex__'
p1310
sa(dp1311
g1
I01
sg7
I5
sg8
S'__index__'
p1312
sa(dp1313
g1
I01
sg7
I5
sg8
g25
sa(dp1314
g1
I01
sg7
I5
sg8
S'__int__'
p1315
sa(dp1316
g1
I01
sg7
I5
sg8
S'__invert__'
p1317
sa(dp1318
g1
I01
sg7
I5
sg8
S'__long__'
p1319
sa(dp1320
g1
I01
sg7
I5
sg8
S'__lshift__'
p1321
sa(dp1322
g1
I01
sg7
I5
sg8
S'__mod__'
p1323
sa(dp1324
g1
I01
sg7
I5
sg8
S'__mul__'
p1325
sa(dp1326
g1
I01
sg7
I5
sg8
S'__neg__'
p1327
sa(dp1328
g1
I01
sg7
I2
sg8
g27
sa(dp1329
g1
I01
sg7
I5
sg8
S'__nonzero__'
p1330
sa(dp1331
g1
I01
sg7
I5
sg8
S'__oct__'
p1332
sa(dp1333
g1
I01
sg7
I5
sg8
S'__or__'
p1334
sa(dp1335
g1
I01
sg7
I5
sg8
S'__pos__'
p1336
sa(dp1337
g1
I01
sg7
I5
sg8
S'__pow__'
p1338
sa(dp1339
g1
I01
sg7
I5
sg8
S'__radd__'
p1340
sa(dp1341
g1
I01
sg7
I5
sg8
S'__rand__'
p1342
sa(dp1343
g1
I01
sg7
I5
sg8
S'__rdiv__'
p1344
sa(dp1345
g1
I01
sg7
I5
sg8
S'__rdivmod__'
p1346
sa(dp1347
g1
I01
sg7
I2
sg8
g29
sa(dp1348
g1
I01
sg7
I2
sg8
g31
sa(dp1349
g1
I01
sg7
I5
sg8
g33
sa(dp1350
g1
I01
sg7
I5
sg8
S'__rfloordiv__'
p1351
sa(dp1352
g1
I01
sg7
I5
sg8
S'__rlshift__'
p1353
sa(dp1354
g1
I01
sg7
I5
sg8
S'__rmod__'
p1355
sa(dp1356
g1
I01
sg7
I5
sg8
S'__rmul__'
p1357
sa(dp1358
g1
I01
sg7
I5
sg8
S'__ror__'
p1359
sa(dp1360
g1
I01
sg7
I5
sg8
S'__rpow__'
p1361
sa(dp1362
g1
I01
sg7
I5
sg8
S'__rrshift__'
p1363
sa(dp1364
g1
I01
sg7
I5
sg8
S'__rshift__'
p1365
sa(dp1366
g1
I01
sg7
I5
sg8
S'__rsub__'
p1367
sa(dp1368
g1
I01
sg7
I5
sg8
S'__rtruediv__'
p1369
sa(dp1370
g1
I01
sg7
I5
sg8
S'__rxor__'
p1371
sa(dp1372
g1
I01
sg7
I5
sg8
g35
sa(dp1373
g1
I01
sg7
I2
sg8
g39
sa(dp1374
g1
I01
sg7
I5
sg8
g41
sa(dp1375
g1
I01
sg7
I5
sg8
S'__sub__'
p1376
sa(dp1377
g1
I01
sg7
I2
sg8
g43
sa(dp1378
g1
I01
sg7
I5
sg8
S'__truediv__'
p1379
sa(dp1380
g1
I01
sg7
I2
sg8
S'__trunc__'
p1381
sa(dp1382
g1
I01
sg7
I5
sg8
S'__xor__'
p1383
sa(dp1384
g1
I01
sg7
I2
sg8
S'bit_length'
p1385
sa(dp1386
g1
I01
sg7
I2
sg8
S'conjugate'
p1387
sa(dp1388
g1
I01
sg7
I5
sg8
S'denominator'
p1389
sa(dp1390
g1
I01
sg7
I5
sg8
S'imag'
p1391
sa(dp1392
g1
I01
sg7
I5
sg8
S'numerator'
p1393
sa(dp1394
g1
I01
sg7
I5
sg8
S'real'
p1395
sasg7
I3
sg8
S'bool'
p1396
sa(dp1397
g1
I01
sg2
(lp1398
(dp1399
g1
I01
sg7
I5
sg8
g1287
sa(dp1400
g1
I01
sg7
I5
sg8
g1291
sa(dp1401
g1
I01
sg7
I5
sg8
g9
sa(dp1402
g1
I01
sg7
I5
sg8
S'__delitem__'
p1403
sa(dp1404
g1
I01
sg7
I5
sg8
S'__delslice__'
p1405
sa(dp1406
g1
I01
sg7
I5
sg8
g13
sa(dp1407
g1
I01
sg7
I2
sg8
g15
sa(dp1408
g1
I01
sg7
I5
sg8
g17
sa(dp1409
g1
I01
sg7
I5
sg8
g19
sa(dp1410
g1
I01
sg7
I5
sg8
g21
sa(dp1411
g1
I01
sg7
I5
sg8
g23
sa(dp1412
g1
I01
sg7
I5
sg8
g25
sa(dp1413
g1
I01
sg7
I5
sg8
S'__len__'
p1414
sa(dp1415
g1
I01
sg7
I5
sg8
g1325
sa(dp1416
g1
I01
sg7
I2
sg8
g27
sa(dp1417
g1
I01
sg7
I2
sg8
g29
sa(dp1418
g1
I01
sg7
I2
sg8
g31
sa(dp1419
g1
I01
sg7
I5
sg8
g33
sa(dp1420
g1
I01
sg7
I5
sg8
g1357
sa(dp1421
g1
I01
sg7
I5
sg8
g35
sa(dp1422
g1
I01
sg7
I5
sg8
S'__setitem__'
p1423
sa(dp1424
g1
I01
sg7
I5
sg8
S'__setslice__'
p1425
sa(dp1426
g1
I01
sg7
I2
sg8
g39
sa(dp1427
g1
I01
sg7
I5
sg8
g41
sa(dp1428
g1
I01
sg7
I2
sg8
g43
sasg7
I3
sg8
S'buffer'
p1429
sa(dp1430
g1
I01
sg2
(lp1431
(dp1432
g1
I01
sg7
I5
sg8
g1287
sa(dp1433
g1
I01
sg7
I2
sg8
S'__alloc__'
p1434
sa(dp1435
g1
I01
sg7
I5
sg8
S'__contains__'
p1436
sa(dp1437
g1
I01
sg7
I5
sg8
g9
sa(dp1438
g1
I01
sg7
I5
sg8
g1403
sa(dp1439
g1
I01
sg7
I5
sg8
g13
sa(dp1440
g1
I01
sg7
I5
sg8
S'__eq__'
p1441
sa(dp1442
g1
I01
sg7
I2
sg8
g15
sa(dp1443
g1
I01
sg7
I5
sg8
S'__ge__'
p1444
sa(dp1445
g1
I01
sg7
I5
sg8
g17
sa(dp1446
g1
I01
sg7
I5
sg8
g19
sa(dp1447
g1
I01
sg7
I5
sg8
S'__gt__'
p1448
sa(dp1449
g1
I01
sg7
I5
sg8
g23
sa(dp1450
g1
I01
sg7
I5
sg8
S'__iadd__'
p1451
sa(dp1452
g1
I01
sg7
I5
sg8
S'__imul__'
p1453
sa(dp1454
g1
I01
sg7
I5
sg8
g25
sa(dp1455
g1
I01
sg7
I5
sg8
S'__iter__'
p1456
sa(dp1457
g1
I01
sg7
I5
sg8
S'__le__'
p1458
sa(dp1459
g1
I01
sg7
I5
sg8
g1414
sa(dp1460
g1
I01
sg7
I5
sg8
S'__lt__'
p1461
sa(dp1462
g1
I01
sg7
I5
sg8
g1325
sa(dp1463
g1
I01
sg7
I5
sg8
S'__ne__'
p1464
sa(dp1465
g1
I01
sg7
I2
sg8
g27
sa(dp1466
g1
I01
sg7
I2
sg8
g29
sa(dp1467
g1
I01
sg7
I2
sg8
g31
sa(dp1468
g1
I01
sg7
I5
sg8
g33
sa(dp1469
g1
I01
sg7
I5
sg8
g1357
sa(dp1470
g1
I01
sg7
I5
sg8
g35
sa(dp1471
g1
I01
sg7
I5
sg8
g1423
sa(dp1472
g1
I01
sg7
I2
sg8
g39
sa(dp1473
g1
I01
sg7
I5
sg8
g41
sa(dp1474
g1
I01
sg7
I2
sg8
g43
sa(dp1475
g1
I01
sg7
I2
sg8
S'append'
p1476
sa(dp1477
g1
I01
sg7
I2
sg8
S'capitalize'
p1478
sa(dp1479
g1
I01
sg7
I2
sg8
S'center'
p1480
sa(dp1481
g1
I01
sg7
I2
sg8
S'count'
p1482
sa(dp1483
g1
I01
sg7
I2
sg8
S'decode'
p1484
sa(dp1485
g1
I01
sg7
I2
sg8
S'endswith'
p1486
sa(dp1487
g1
I01
sg7
I2
sg8
S'expandtabs'
p1488
sa(dp1489
g1
I01
sg7
I2
sg8
S'extend'
p1490
sa(dp1491
g1
I01
sg7
I2
sg8
S'find'
p1492
sa(dp1493
g1
I01
sg7
I2
sg8
S'fromhex'
p1494
sa(dp1495
g1
I01
sg7
I2
sg8
S'index'
p1496
sa(dp1497
g1
I01
sg7
I2
sg8
S'insert'
p1498
sa(dp1499
g1
I01
sg7
I2
sg8
S'isalnum'
p1500
sa(dp1501
g1
I01
sg7
I2
sg8
S'isalpha'
p1502
sa(dp1503
g1
I01
sg7
I2
sg8
S'isdigit'
p1504
sa(dp1505
g1
I01
sg7
I2
sg8
S'islower'
p1506
sa(dp1507
g1
I01
sg7
I2
sg8
S'isspace'
p1508
sa(dp1509
g1
I01
sg7
I2
sg8
S'istitle'
p1510
sa(dp1511
g1
I01
sg7
I2
sg8
S'isupper'
p1512
sa(dp1513
g1
I01
sg7
I2
sg8
S'join'
p1514
sa(dp1515
g1
I01
sg7
I2
sg8
S'ljust'
p1516
sa(dp1517
g1
I01
sg7
I2
sg8
S'lower'
p1518
sa(dp1519
g1
I01
sg7
I2
sg8
S'lstrip'
p1520
sa(dp1521
g1
I01
sg7
I2
sg8
S'partition'
p1522
sa(dp1523
g1
I01
sg7
I2
sg8
S'pop'
p1524
sa(dp1525
g1
I01
sg7
I2
sg8
S'remove'
p1526
sa(dp1527
g1
I01
sg7
I2
sg8
S'replace'
p1528
sa(dp1529
g1
I01
sg7
I2
sg8
S'reverse'
p1530
sa(dp1531
g1
I01
sg7
I2
sg8
S'rfind'
p1532
sa(dp1533
g1
I01
sg7
I2
sg8
S'rindex'
p1534
sa(dp1535
g1
I01
sg7
I2
sg8
S'rjust'
p1536
sa(dp1537
g1
I01
sg7
I2
sg8
S'rpartition'
p1538
sa(dp1539
g1
I01
sg7
I2
sg8
S'rsplit'
p1540
sa(dp1541
g1
I01
sg7
I2
sg8
S'rstrip'
p1542
sa(dp1543
g1
I01
sg7
I2
sg8
S'split'
p1544
sa(dp1545
g1
I01
sg7
I2
sg8
S'splitlines'
p1546
sa(dp1547
g1
I01
sg7
I2
sg8
S'startswith'
p1548
sa(dp1549
g1
I01
sg7
I2
sg8
S'strip'
p1550
sa(dp1551
g1
I01
sg7
I2
sg8
S'swapcase'
p1552
sa(dp1553
g1
I01
sg7
I2
sg8
S'title'
p1554
sa(dp1555
g1
I01
sg7
I2
sg8
S'translate'
p1556
sa(dp1557
g1
I01
sg7
I2
sg8
S'upper'
p1558
sa(dp1559
g1
I01
sg7
I2
sg8
S'zfill'
p1560
sasg7
I3
sg8
S'bytearray'
p1561
sa(dp1562
g1
I01
sg2
(lp1563
(dp1564
g1
I01
sg7
I5
sg8
g1287
sa(dp1565
g1
I01
sg7
I5
sg8
g1436
sa(dp1566
g1
I01
sg7
I5
sg8
g9
sa(dp1567
g1
I01
sg7
I5
sg8
g13
sa(dp1568
g1
I01
sg7
I5
sg8
g1441
sa(dp1569
g1
I01
sg7
I2
sg8
g15
sa(dp1570
g1
I01
sg7
I5
sg8
g1444
sa(dp1571
g1
I01
sg7
I5
sg8
g17
sa(dp1572
g1
I01
sg7
I5
sg8
g19
sa(dp1573
g1
I01
sg7
I2
sg8
g1307
sa(dp1574
g1
I01
sg7
I5
sg8
g21
sa(dp1575
g1
I01
sg7
I5
sg8
g1448
sa(dp1576
g1
I01
sg7
I5
sg8
g23
sa(dp1577
g1
I01
sg7
I5
sg8
g25
sa(dp1578
g1
I01
sg7
I5
sg8
g1458
sa(dp1579
g1
I01
sg7
I5
sg8
g1414
sa(dp1580
g1
I01
sg7
I5
sg8
g1461
sa(dp1581
g1
I01
sg7
I5
sg8
g1323
sa(dp1582
g1
I01
sg7
I5
sg8
g1325
sa(dp1583
g1
I01
sg7
I5
sg8
g1464
sa(dp1584
g1
I01
sg7
I2
sg8
g27
sa(dp1585
g1
I01
sg7
I2
sg8
g29
sa(dp1586
g1
I01
sg7
I2
sg8
g31
sa(dp1587
g1
I01
sg7
I5
sg8
g33
sa(dp1588
g1
I01
sg7
I5
sg8
g1355
sa(dp1589
g1
I01
sg7
I5
sg8
g1357
sa(dp1590
g1
I01
sg7
I5
sg8
g35
sa(dp1591
g1
I01
sg7
I2
sg8
g39
sa(dp1592
g1
I01
sg7
I5
sg8
g41
sa(dp1593
g1
I01
sg7
I2
sg8
g43
sa(dp1594
g1
I01
sg7
I2
sg8
S'_formatter_field_name_split'
p1595
sa(dp1596
g1
I01
sg7
I2
sg8
S'_formatter_parser'
p1597
sa(dp1598
g1
I01
sg7
I2
sg8
g1478
sa(dp1599
g1
I01
sg7
I2
sg8
g1480
sa(dp1600
g1
I01
sg7
I2
sg8
g1482
sa(dp1601
g1
I01
sg7
I2
sg8
g1484
sa(dp1602
g1
I01
sg7
I2
sg8
S'encode'
p1603
sa(dp1604
g1
I01
sg7
I2
sg8
g1486
sa(dp1605
g1
I01
sg7
I2
sg8
g1488
sa(dp1606
g1
I01
sg7
I2
sg8
g1492
sa(dp1607
g1
I01
sg7
I2
sg8
S'format'
p1608
sa(dp1609
g1
I01
sg7
I2
sg8
g1496
sa(dp1610
g1
I01
sg7
I2
sg8
g1500
sa(dp1611
g1
I01
sg7
I2
sg8
g1502
sa(dp1612
g1
I01
sg7
I2
sg8
g1504
sa(dp1613
g1
I01
sg7
I2
sg8
g1506
sa(dp1614
g1
I01
sg7
I2
sg8
g1508
sa(dp1615
g1
I01
sg7
I2
sg8
g1510
sa(dp1616
g1
I01
sg7
I2
sg8
g1512
sa(dp1617
g1
I01
sg7
I2
sg8
g1514
sa(dp1618
g1
I01
sg7
I2
sg8
g1516
sa(dp1619
g1
I01
sg7
I2
sg8
g1518
sa(dp1620
g1
I01
sg7
I2
sg8
g1520
sa(dp1621
g1
I01
sg7
I2
sg8
g1522
sa(dp1622
g1
I01
sg7
I2
sg8
g1528
sa(dp1623
g1
I01
sg7
I2
sg8
g1532
sa(dp1624
g1
I01
sg7
I2
sg8
g1534
sa(dp1625
g1
I01
sg7
I2
sg8
g1536
sa(dp1626
g1
I01
sg7
I2
sg8
g1538
sa(dp1627
g1
I01
sg7
I2
sg8
g1540
sa(dp1628
g1
I01
sg7
I2
sg8
g1542
sa(dp1629
g1
I01
sg7
I2
sg8
g1544
sa(dp1630
g1
I01
sg7
I2
sg8
g1546
sa(dp1631
g1
I01
sg7
I2
sg8
g1548
sa(dp1632
g1
I01
sg7
I2
sg8
g1550
sa(dp1633
g1
I01
sg7
I2
sg8
g1552
sa(dp1634
g1
I01
sg7
I2
sg8
g1554
sa(dp1635
g1
I01
sg7
I2
sg8
g1556
sa(dp1636
g1
I01
sg7
I2
sg8
g1558
sa(dp1637
g1
I01
sg7
I2
sg8
g1560
sasg7
I3
sg8
S'bytes'
p1638
sa(dp1639
g1
I01
sg7
I2
sg8
S'callable'
p1640
sa(dp1641
g1
I01
sg7
I2
sg8
S'chr'
p1642
sa(dp1643
g1
I01
sg2
(lp1644
(dp1645
g1
I01
sg7
I5
sg8
g9
sa(dp1646
g1
I01
sg7
I5
sg8
g13
sa(dp1647
g1
I01
sg7
I2
sg8
g15
sa(dp1648
g1
I01
sg7
I5
sg8
S'__func__'
p1649
sa(dp1650
g1
I01
sg7
I5
sg8
S'__get__'
p1651
sa(dp1652
g1
I01
sg7
I5
sg8
g17
sa(dp1653
g1
I01
sg7
I5
sg8
g23
sa(dp1654
g1
I01
sg7
I5
sg8
g25
sa(dp1655
g1
I01
sg7
I2
sg8
g27
sa(dp1656
g1
I01
sg7
I2
sg8
g29
sa(dp1657
g1
I01
sg7
I2
sg8
g31
sa(dp1658
g1
I01
sg7
I5
sg8
g33
sa(dp1659
g1
I01
sg7
I5
sg8
g35
sa(dp1660
g1
I01
sg7
I2
sg8
g39
sa(dp1661
g1
I01
sg7
I5
sg8
g41
sa(dp1662
g1
I01
sg7
I2
sg8
g43
sasg7
I3
sg8
S'classmethod'
p1663
sa(dp1664
g1
I01
sg7
I2
sg8
S'cmp'
p1665
sa(dp1666
g1
I01
sg7
I2
sg8
S'coerce'
p1667
sa(dp1668
g1
I01
sg7
I2
sg8
S'compile'
p1669
sa(dp1670
g1
I01
sg2
(lp1671
(dp1672
g1
I01
sg7
I5
sg8
g1285
sa(dp1673
g1
I01
sg7
I5
sg8
g1287
sa(dp1674
g1
I01
sg7
I5
sg8
g1293
sa(dp1675
g1
I01
sg7
I5
sg8
g9
sa(dp1676
g1
I01
sg7
I5
sg8
g1296
sa(dp1677
g1
I01
sg7
I5
sg8
g1298
sa(dp1678
g1
I01
sg7
I5
sg8
g13
sa(dp1679
g1
I01
sg7
I5
sg8
g1441
sa(dp1680
g1
I01
sg7
I5
sg8
g1301
sa(dp1681
g1
I01
sg7
I5
sg8
g1303
sa(dp1682
g1
I01
sg7
I2
sg8
g15
sa(dp1683
g1
I01
sg7
I5
sg8
g1444
sa(dp1684
g1
I01
sg7
I5
sg8
g17
sa(dp1685
g1
I01
sg7
I2
sg8
g1307
sa(dp1686
g1
I01
sg7
I5
sg8
g1448
sa(dp1687
g1
I01
sg7
I5
sg8
g23
sa(dp1688
g1
I01
sg7
I5
sg8
g25
sa(dp1689
g1
I01
sg7
I5
sg8
g1315
sa(dp1690
g1
I01
sg7
I5
sg8
g1458
sa(dp1691
g1
I01
sg7
I5
sg8
g1319
sa(dp1692
g1
I01
sg7
I5
sg8
g1461
sa(dp1693
g1
I01
sg7
I5
sg8
g1323
sa(dp1694
g1
I01
sg7
I5
sg8
g1325
sa(dp1695
g1
I01
sg7
I5
sg8
g1464
sa(dp1696
g1
I01
sg7
I5
sg8
g1327
sa(dp1697
g1
I01
sg7
I2
sg8
g27
sa(dp1698
g1
I01
sg7
I5
sg8
g1330
sa(dp1699
g1
I01
sg7
I5
sg8
g1336
sa(dp1700
g1
I01
sg7
I5
sg8
g1338
sa(dp1701
g1
I01
sg7
I5
sg8
g1340
sa(dp1702
g1
I01
sg7
I5
sg8
g1344
sa(dp1703
g1
I01
sg7
I5
sg8
g1346
sa(dp1704
g1
I01
sg7
I2
sg8
g29
sa(dp1705
g1
I01
sg7
I2
sg8
g31
sa(dp1706
g1
I01
sg7
I5
sg8
g33
sa(dp1707
g1
I01
sg7
I5
sg8
g1351
sa(dp1708
g1
I01
sg7
I5
sg8
g1355
sa(dp1709
g1
I01
sg7
I5
sg8
g1357
sa(dp1710
g1
I01
sg7
I5
sg8
g1361
sa(dp1711
g1
I01
sg7
I5
sg8
g1367
sa(dp1712
g1
I01
sg7
I5
sg8
g1369
sa(dp1713
g1
I01
sg7
I5
sg8
g35
sa(dp1714
g1
I01
sg7
I2
sg8
g39
sa(dp1715
g1
I01
sg7
I5
sg8
g41
sa(dp1716
g1
I01
sg7
I5
sg8
g1376
sa(dp1717
g1
I01
sg7
I2
sg8
g43
sa(dp1718
g1
I01
sg7
I5
sg8
g1379
sa(dp1719
g1
I01
sg7
I2
sg8
g1387
sa(dp1720
g1
I01
sg7
I5
sg8
g1391
sa(dp1721
g1
I01
sg7
I5
sg8
g1395
sasg7
I3
sg8
S'complex'
p1722
sa(dp1723
g1
I01
sg7
I5
sg8
S'copyright'
p1724
sa(dp1725
g1
I01
sg7
I5
sg8
S'credits'
p1726
sa(dp1727
g1
I01
sg7
I2
sg8
S'delattr'
p1728
sa(dp1729
g1
I01
sg2
(lp1730
(dp1731
g1
I01
sg7
I5
sg8
g1291
sa(dp1732
g1
I01
sg7
I2
sg8
g1436
sa(dp1733
g1
I01
sg7
I5
sg8
g9
sa(dp1734
g1
I01
sg7
I5
sg8
g1403
sa(dp1735
g1
I01
sg7
I5
sg8
g13
sa(dp1736
g1
I01
sg7
I5
sg8
g1441
sa(dp1737
g1
I01
sg7
I2
sg8
g15
sa(dp1738
g1
I01
sg7
I5
sg8
g1444
sa(dp1739
g1
I01
sg7
I5
sg8
g17
sa(dp1740
g1
I01
sg7
I2
sg8
g19
sa(dp1741
g1
I01
sg7
I5
sg8
g1448
sa(dp1742
g1
I01
sg7
I5
sg8
g23
sa(dp1743
g1
I01
sg7
I5
sg8
g25
sa(dp1744
g1
I01
sg7
I5
sg8
g1456
sa(dp1745
g1
I01
sg7
I5
sg8
g1458
sa(dp1746
g1
I01
sg7
I5
sg8
g1414
sa(dp1747
g1
I01
sg7
I5
sg8
g1461
sa(dp1748
g1
I01
sg7
I5
sg8
g1464
sa(dp1749
g1
I01
sg7
I2
sg8
g27
sa(dp1750
g1
I01
sg7
I2
sg8
g29
sa(dp1751
g1
I01
sg7
I2
sg8
g31
sa(dp1752
g1
I01
sg7
I5
sg8
g33
sa(dp1753
g1
I01
sg7
I5
sg8
g35
sa(dp1754
g1
I01
sg7
I5
sg8
g1423
sa(dp1755
g1
I01
sg7
I2
sg8
g39
sa(dp1756
g1
I01
sg7
I5
sg8
g41
sa(dp1757
g1
I01
sg7
I2
sg8
g43
sa(dp1758
g1
I01
sg7
I2
sg8
S'clear'
p1759
sa(dp1760
g1
I01
sg7
I2
sg8
S'copy'
p1761
sa(dp1762
g1
I01
sg7
I2
sg8
S'fromkeys'
p1763
sa(dp1764
g1
I01
sg7
I2
sg8
S'get'
p1765
sa(dp1766
g1
I01
sg7
I2
sg8
S'has_key'
p1767
sa(dp1768
g1
I01
sg7
I2
sg8
S'items'
p1769
sa(dp1770
g1
I01
sg7
I2
sg8
S'iteritems'
p1771
sa(dp1772
g1
I01
sg7
I2
sg8
S'iterkeys'
p1773
sa(dp1774
g1
I01
sg7
I2
sg8
S'itervalues'
p1775
sa(dp1776
g1
I01
sg7
I2
sg8
S'keys'
p1777
sa(dp1778
g1
I01
sg7
I2
sg8
g1524
sa(dp1779
g1
I01
sg7
I2
sg8
S'popitem'
p1780
sa(dp1781
g1
I01
sg7
I2
sg8
S'setdefault'
p1782
sa(dp1783
g1
I01
sg7
I2
sg8
S'update'
p1784
sa(dp1785
g1
I01
sg7
I2
sg8
S'values'
p1786
sa(dp1787
g1
I01
sg7
I2
sg8
S'viewitems'
p1788
sa(dp1789
g1
I01
sg7
I2
sg8
S'viewkeys'
p1790
sa(dp1791
g1
I01
sg7
I2
sg8
S'viewvalues'
p1792
sasg7
I3
sg8
S'dict'
p1793
sa(dp1794
g1
I01
sg7
I2
sg8
S'dir'
p1795
sa(dp1796
g1
I01
sg7
I2
sg8
S'divmod'
p1797
sa(dp1798
g1
I01
sg2
(lp1799
(dp1800
g1
I01
sg7
I5
sg8
g9
sa(dp1801
g1
I01
sg7
I5
sg8
g13
sa(dp1802
g1
I01
sg7
I2
sg8
g15
sa(dp1803
g1
I01
sg7
I5
sg8
g17
sa(dp1804
g1
I01
sg7
I5
sg8
g23
sa(dp1805
g1
I01
sg7
I5
sg8
g25
sa(dp1806
g1
I01
sg7
I5
sg8
g1456
sa(dp1807
g1
I01
sg7
I2
sg8
g27
sa(dp1808
g1
I01
sg7
I2
sg8
g29
sa(dp1809
g1
I01
sg7
I2
sg8
g31
sa(dp1810
g1
I01
sg7
I5
sg8
g33
sa(dp1811
g1
I01
sg7
I5
sg8
g35
sa(dp1812
g1
I01
sg7
I2
sg8
g39
sa(dp1813
g1
I01
sg7
I5
sg8
g41
sa(dp1814
g1
I01
sg7
I2
sg8
g43
sa(dp1815
g1
I01
sg7
I5
sg8
S'next'
p1816
sasg7
I3
sg8
S'enumerate'
p1817
sa(dp1818
g1
I01
sg7
I2
sg8
S'eval'
p1819
sa(dp1820
g1
I01
sg7
I2
sg8
S'execfile'
p1821
sa(dp1822
g1
I01
sg7
I5
sg8
S'exit'
p1823
sa(dp1824
g1
I01
sg2
(lp1825
(dp1826
g1
I01
sg7
I5
sg8
g9
sa(dp1827
g1
I01
sg7
I5
sg8
g13
sa(dp1828
g1
I01
sg7
I2
sg8
S'__enter__'
p1829
sa(dp1830
g1
I01
sg7
I2
sg8
S'__exit__'
p1831
sa(dp1832
g1
I01
sg7
I2
sg8
g15
sa(dp1833
g1
I01
sg7
I5
sg8
g17
sa(dp1834
g1
I01
sg7
I5
sg8
g23
sa(dp1835
g1
I01
sg7
I5
sg8
g25
sa(dp1836
g1
I01
sg7
I5
sg8
g1456
sa(dp1837
g1
I01
sg7
I2
sg8
g27
sa(dp1838
g1
I01
sg7
I2
sg8
g29
sa(dp1839
g1
I01
sg7
I2
sg8
g31
sa(dp1840
g1
I01
sg7
I5
sg8
g33
sa(dp1841
g1
I01
sg7
I5
sg8
g35
sa(dp1842
g1
I01
sg7
I2
sg8
g39
sa(dp1843
g1
I01
sg7
I5
sg8
g41
sa(dp1844
g1
I01
sg7
I2
sg8
g43
sa(dp1845
g1
I01
sg7
I2
sg8
S'close'
p1846
sa(dp1847
g1
I01
sg7
I5
sg8
S'closed'
p1848
sa(dp1849
g1
I01
sg7
I5
sg8
g1033
sa(dp1850
g1
I01
sg7
I5
sg8
S'errors'
p1851
sa(dp1852
g1
I01
sg7
I2
sg8
S'fileno'
p1853
sa(dp1854
g1
I01
sg7
I2
sg8
S'flush'
p1855
sa(dp1856
g1
I01
sg7
I2
sg8
S'isatty'
p1857
sa(dp1858
g1
I01
sg7
I5
sg8
S'mode'
p1859
sa(dp1860
g1
I01
sg7
I5
sg8
g8
sa(dp1861
g1
I01
sg7
I5
sg8
S'newlines'
p1862
sa(dp1863
g1
I01
sg7
I5
sg8
g1816
sa(dp1864
g1
I01
sg7
I2
sg8
S'read'
p1865
sa(dp1866
g1
I01
sg7
I2
sg8
S'readinto'
p1867
sa(dp1868
g1
I01
sg7
I2
sg8
S'readline'
p1869
sa(dp1870
g1
I01
sg7
I2
sg8
S'readlines'
p1871
sa(dp1872
g1
I01
sg7
I2
sg8
S'seek'
p1873
sa(dp1874
g1
I01
sg7
I5
sg8
S'softspace'
p1875
sa(dp1876
g1
I01
sg7
I2
sg8
S'tell'
p1877
sa(dp1878
g1
I01
sg7
I2
sg8
S'truncate'
p1879
sa(dp1880
g1
I01
sg7
I2
sg8
S'write'
p1881
sa(dp1882
g1
I01
sg7
I2
sg8
S'writelines'
p1883
sa(dp1884
g1
I01
sg7
I2
sg8
S'xreadlines'
p1885
sasg7
I3
sg8
S'file'
p1886
sa(dp1887
g1
I01
sg7
I2
sg8
S'filter'
p1888
sa(dp1889
g1
I01
sg2
(lp1890
(dp1891
g1
I01
sg7
I5
sg8
g1285
sa(dp1892
g1
I01
sg7
I5
sg8
g1287
sa(dp1893
g1
I01
sg7
I5
sg8
g1293
sa(dp1894
g1
I01
sg7
I5
sg8
g9
sa(dp1895
g1
I01
sg7
I5
sg8
g1296
sa(dp1896
g1
I01
sg7
I5
sg8
g1298
sa(dp1897
g1
I01
sg7
I5
sg8
g13
sa(dp1898
g1
I01
sg7
I5
sg8
g1441
sa(dp1899
g1
I01
sg7
I5
sg8
g1301
sa(dp1900
g1
I01
sg7
I5
sg8
g1303
sa(dp1901
g1
I01
sg7
I2
sg8
g15
sa(dp1902
g1
I01
sg7
I5
sg8
g1444
sa(dp1903
g1
I01
sg7
I5
sg8
g17
sa(dp1904
g1
I01
sg7
I2
sg8
S'__getformat__'
p1905
sa(dp1906
g1
I01
sg7
I2
sg8
g1307
sa(dp1907
g1
I01
sg7
I5
sg8
g1448
sa(dp1908
g1
I01
sg7
I5
sg8
g23
sa(dp1909
g1
I01
sg7
I5
sg8
g25
sa(dp1910
g1
I01
sg7
I5
sg8
g1315
sa(dp1911
g1
I01
sg7
I5
sg8
g1458
sa(dp1912
g1
I01
sg7
I5
sg8
g1319
sa(dp1913
g1
I01
sg7
I5
sg8
g1461
sa(dp1914
g1
I01
sg7
I5
sg8
g1323
sa(dp1915
g1
I01
sg7
I5
sg8
g1325
sa(dp1916
g1
I01
sg7
I5
sg8
g1464
sa(dp1917
g1
I01
sg7
I5
sg8
g1327
sa(dp1918
g1
I01
sg7
I2
sg8
g27
sa(dp1919
g1
I01
sg7
I5
sg8
g1330
sa(dp1920
g1
I01
sg7
I5
sg8
g1336
sa(dp1921
g1
I01
sg7
I5
sg8
g1338
sa(dp1922
g1
I01
sg7
I5
sg8
g1340
sa(dp1923
g1
I01
sg7
I5
sg8
g1344
sa(dp1924
g1
I01
sg7
I5
sg8
g1346
sa(dp1925
g1
I01
sg7
I2
sg8
g29
sa(dp1926
g1
I01
sg7
I2
sg8
g31
sa(dp1927
g1
I01
sg7
I5
sg8
g33
sa(dp1928
g1
I01
sg7
I5
sg8
g1351
sa(dp1929
g1
I01
sg7
I5
sg8
g1355
sa(dp1930
g1
I01
sg7
I5
sg8
g1357
sa(dp1931
g1
I01
sg7
I5
sg8
g1361
sa(dp1932
g1
I01
sg7
I5
sg8
g1367
sa(dp1933
g1
I01
sg7
I5
sg8
g1369
sa(dp1934
g1
I01
sg7
I5
sg8
g35
sa(dp1935
g1
I01
sg7
I2
sg8
S'__setformat__'
p1936
sa(dp1937
g1
I01
sg7
I2
sg8
g39
sa(dp1938
g1
I01
sg7
I5
sg8
g41
sa(dp1939
g1
I01
sg7
I5
sg8
g1376
sa(dp1940
g1
I01
sg7
I2
sg8
g43
sa(dp1941
g1
I01
sg7
I5
sg8
g1379
sa(dp1942
g1
I01
sg7
I2
sg8
g1381
sa(dp1943
g1
I01
sg7
I2
sg8
S'as_integer_ratio'
p1944
sa(dp1945
g1
I01
sg7
I2
sg8
g1387
sa(dp1946
g1
I01
sg7
I2
sg8
g1494
sa(dp1947
g1
I01
sg7
I2
sg8
S'hex'
p1948
sa(dp1949
g1
I01
sg7
I5
sg8
g1391
sa(dp1950
g1
I01
sg7
I2
sg8
S'is_integer'
p1951
sa(dp1952
g1
I01
sg7
I5
sg8
g1395
sasg7
I3
sg8
S'float'
p1953
sa(dp1954
g1
I01
sg7
I2
sg8
g1608
sa(dp1955
g1
I01
sg2
(lp1956
(dp1957
g1
I01
sg7
I5
sg8
g1289
sa(dp1958
g1
I01
sg7
I5
sg8
g1291
sa(dp1959
g1
I01
sg7
I2
sg8
g1436
sa(dp1960
g1
I01
sg7
I5
sg8
g9
sa(dp1961
g1
I01
sg7
I5
sg8
g13
sa(dp1962
g1
I01
sg7
I5
sg8
g1441
sa(dp1963
g1
I01
sg7
I2
sg8
g15
sa(dp1964
g1
I01
sg7
I5
sg8
g1444
sa(dp1965
g1
I01
sg7
I5
sg8
g17
sa(dp1966
g1
I01
sg7
I5
sg8
g1448
sa(dp1967
g1
I01
sg7
I5
sg8
g23
sa(dp1968
g1
I01
sg7
I5
sg8
g25
sa(dp1969
g1
I01
sg7
I5
sg8
g1456
sa(dp1970
g1
I01
sg7
I5
sg8
g1458
sa(dp1971
g1
I01
sg7
I5
sg8
g1414
sa(dp1972
g1
I01
sg7
I5
sg8
g1461
sa(dp1973
g1
I01
sg7
I5
sg8
g1464
sa(dp1974
g1
I01
sg7
I2
sg8
g27
sa(dp1975
g1
I01
sg7
I5
sg8
g1334
sa(dp1976
g1
I01
sg7
I5
sg8
g1342
sa(dp1977
g1
I01
sg7
I2
sg8
g29
sa(dp1978
g1
I01
sg7
I2
sg8
g31
sa(dp1979
g1
I01
sg7
I5
sg8
g33
sa(dp1980
g1
I01
sg7
I5
sg8
g1359
sa(dp1981
g1
I01
sg7
I5
sg8
g1367
sa(dp1982
g1
I01
sg7
I5
sg8
g1371
sa(dp1983
g1
I01
sg7
I5
sg8
g35
sa(dp1984
g1
I01
sg7
I2
sg8
g39
sa(dp1985
g1
I01
sg7
I5
sg8
g41
sa(dp1986
g1
I01
sg7
I5
sg8
g1376
sa(dp1987
g1
I01
sg7
I2
sg8
g43
sa(dp1988
g1
I01
sg7
I5
sg8
g1383
sa(dp1989
g1
I01
sg7
I2
sg8
g1761
sa(dp1990
g1
I01
sg7
I2
sg8
S'difference'
p1991
sa(dp1992
g1
I01
sg7
I2
sg8
S'intersection'
p1993
sa(dp1994
g1
I01
sg7
I2
sg8
S'isdisjoint'
p1995
sa(dp1996
g1
I01
sg7
I2
sg8
S'issubset'
p1997
sa(dp1998
g1
I01
sg7
I2
sg8
S'issuperset'
p1999
sa(dp2000
g1
I01
sg7
I2
sg8
S'symmetric_difference'
p2001
sa(dp2002
g1
I01
sg7
I2
sg8
S'union'
p2003
sasg7
I3
sg8
S'frozenset'
p2004
sa(dp2005
g1
I01
sg7
I2
sg8
S'getattr'
p2006
sa(dp2007
g1
I01
sg7
I2
sg8
S'globals'
p2008
sa(dp2009
g1
I01
sg7
I2
sg8
S'hasattr'
p2010
sa(dp2011
g1
I01
sg7
I2
sg8
S'hash'
p2012
sa(dp2013
g1
I01
sg7
I5
sg8
S'help'
p2014
sa(dp2015
g1
I01
sg7
I2
sg8
g1948
sa(dp2016
g1
I01
sg7
I2
sg8
S'id'
p2017
sa(dp2018
g1
I01
sg7
I2
sg8
S'input'
p2019
sa(dp2020
g1
I01
sg2
(lp2021
(dp2022
g1
I01
sg7
I5
sg8
g1285
sa(dp2023
g1
I01
sg7
I5
sg8
g1287
sa(dp2024
g1
I01
sg7
I5
sg8
g1289
sa(dp2025
g1
I01
sg7
I5
sg8
g1291
sa(dp2026
g1
I01
sg7
I5
sg8
g1293
sa(dp2027
g1
I01
sg7
I5
sg8
g9
sa(dp2028
g1
I01
sg7
I5
sg8
g1296
sa(dp2029
g1
I01
sg7
I5
sg8
g1298
sa(dp2030
g1
I01
sg7
I5
sg8
g13
sa(dp2031
g1
I01
sg7
I5
sg8
g1301
sa(dp2032
g1
I01
sg7
I5
sg8
g1303
sa(dp2033
g1
I01
sg7
I2
sg8
g15
sa(dp2034
g1
I01
sg7
I5
sg8
g17
sa(dp2035
g1
I01
sg7
I2
sg8
g1307
sa(dp2036
g1
I01
sg7
I5
sg8
g23
sa(dp2037
g1
I01
sg7
I5
sg8
g1310
sa(dp2038
g1
I01
sg7
I5
sg8
g1312
sa(dp2039
g1
I01
sg7
I5
sg8
g25
sa(dp2040
g1
I01
sg7
I5
sg8
g1315
sa(dp2041
g1
I01
sg7
I5
sg8
g1317
sa(dp2042
g1
I01
sg7
I5
sg8
g1319
sa(dp2043
g1
I01
sg7
I5
sg8
g1321
sa(dp2044
g1
I01
sg7
I5
sg8
g1323
sa(dp2045
g1
I01
sg7
I5
sg8
g1325
sa(dp2046
g1
I01
sg7
I5
sg8
g1327
sa(dp2047
g1
I01
sg7
I2
sg8
g27
sa(dp2048
g1
I01
sg7
I5
sg8
g1330
sa(dp2049
g1
I01
sg7
I5
sg8
g1332
sa(dp2050
g1
I01
sg7
I5
sg8
g1334
sa(dp2051
g1
I01
sg7
I5
sg8
g1336
sa(dp2052
g1
I01
sg7
I5
sg8
g1338
sa(dp2053
g1
I01
sg7
I5
sg8
g1340
sa(dp2054
g1
I01
sg7
I5
sg8
g1342
sa(dp2055
g1
I01
sg7
I5
sg8
g1344
sa(dp2056
g1
I01
sg7
I5
sg8
g1346
sa(dp2057
g1
I01
sg7
I2
sg8
g29
sa(dp2058
g1
I01
sg7
I2
sg8
g31
sa(dp2059
g1
I01
sg7
I5
sg8
g33
sa(dp2060
g1
I01
sg7
I5
sg8
g1351
sa(dp2061
g1
I01
sg7
I5
sg8
g1353
sa(dp2062
g1
I01
sg7
I5
sg8
g1355
sa(dp2063
g1
I01
sg7
I5
sg8
g1357
sa(dp2064
g1
I01
sg7
I5
sg8
g1359
sa(dp2065
g1
I01
sg7
I5
sg8
g1361
sa(dp2066
g1
I01
sg7
I5
sg8
g1363
sa(dp2067
g1
I01
sg7
I5
sg8
g1365
sa(dp2068
g1
I01
sg7
I5
sg8
g1367
sa(dp2069
g1
I01
sg7
I5
sg8
g1369
sa(dp2070
g1
I01
sg7
I5
sg8
g1371
sa(dp2071
g1
I01
sg7
I5
sg8
g35
sa(dp2072
g1
I01
sg7
I2
sg8
g39
sa(dp2073
g1
I01
sg7
I5
sg8
g41
sa(dp2074
g1
I01
sg7
I5
sg8
g1376
sa(dp2075
g1
I01
sg7
I2
sg8
g43
sa(dp2076
g1
I01
sg7
I5
sg8
g1379
sa(dp2077
g1
I01
sg7
I2
sg8
g1381
sa(dp2078
g1
I01
sg7
I5
sg8
g1383
sa(dp2079
g1
I01
sg7
I2
sg8
g1385
sa(dp2080
g1
I01
sg7
I2
sg8
g1387
sa(dp2081
g1
I01
sg7
I5
sg8
g1389
sa(dp2082
g1
I01
sg7
I5
sg8
g1391
sa(dp2083
g1
I01
sg7
I5
sg8
g1393
sa(dp2084
g1
I01
sg7
I5
sg8
g1395
sasg7
I3
sg8
S'int'
p2085
sa(dp2086
g1
I01
sg7
I2
sg8
S'intern'
p2087
sa(dp2088
g1
I01
sg7
I2
sg8
S'isinstance'
p2089
sa(dp2090
g1
I01
sg7
I2
sg8
S'issubclass'
p2091
sa(dp2092
g1
I01
sg7
I2
sg8
S'iter'
p2093
sa(dp2094
g1
I01
sg7
I2
sg8
S'len'
p2095
sa(dp2096
g1
I01
sg7
I5
sg8
S'license'
p2097
sa(dp2098
g1
I01
sg2
(lp2099
(dp2100
g1
I01
sg7
I5
sg8
g1287
sa(dp2101
g1
I01
sg7
I5
sg8
g1436
sa(dp2102
g1
I01
sg7
I5
sg8
g9
sa(dp2103
g1
I01
sg7
I5
sg8
g1403
sa(dp2104
g1
I01
sg7
I5
sg8
g1405
sa(dp2105
g1
I01
sg7
I5
sg8
g13
sa(dp2106
g1
I01
sg7
I5
sg8
g1441
sa(dp2107
g1
I01
sg7
I2
sg8
g15
sa(dp2108
g1
I01
sg7
I5
sg8
g1444
sa(dp2109
g1
I01
sg7
I5
sg8
g17
sa(dp2110
g1
I01
sg7
I2
sg8
g19
sa(dp2111
g1
I01
sg7
I5
sg8
g21
sa(dp2112
g1
I01
sg7
I5
sg8
g1448
sa(dp2113
g1
I01
sg7
I5
sg8
g23
sa(dp2114
g1
I01
sg7
I5
sg8
g1451
sa(dp2115
g1
I01
sg7
I5
sg8
g1453
sa(dp2116
g1
I01
sg7
I5
sg8
g25
sa(dp2117
g1
I01
sg7
I5
sg8
g1456
sa(dp2118
g1
I01
sg7
I5
sg8
g1458
sa(dp2119
g1
I01
sg7
I5
sg8
g1414
sa(dp2120
g1
I01
sg7
I5
sg8
g1461
sa(dp2121
g1
I01
sg7
I5
sg8
g1325
sa(dp2122
g1
I01
sg7
I5
sg8
g1464
sa(dp2123
g1
I01
sg7
I2
sg8
g27
sa(dp2124
g1
I01
sg7
I2
sg8
g29
sa(dp2125
g1
I01
sg7
I2
sg8
g31
sa(dp2126
g1
I01
sg7
I5
sg8
g33
sa(dp2127
g1
I01
sg7
I2
sg8
S'__reversed__'
p2128
sa(dp2129
g1
I01
sg7
I5
sg8
g1357
sa(dp2130
g1
I01
sg7
I5
sg8
g35
sa(dp2131
g1
I01
sg7
I5
sg8
g1423
sa(dp2132
g1
I01
sg7
I5
sg8
g1425
sa(dp2133
g1
I01
sg7
I2
sg8
g39
sa(dp2134
g1
I01
sg7
I5
sg8
g41
sa(dp2135
g1
I01
sg7
I2
sg8
g43
sa(dp2136
g1
I01
sg7
I2
sg8
g1476
sa(dp2137
g1
I01
sg7
I2
sg8
g1482
sa(dp2138
g1
I01
sg7
I2
sg8
g1490
sa(dp2139
g1
I01
sg7
I2
sg8
g1496
sa(dp2140
g1
I01
sg7
I2
sg8
g1498
sa(dp2141
g1
I01
sg7
I2
sg8
g1524
sa(dp2142
g1
I01
sg7
I2
sg8
g1526
sa(dp2143
g1
I01
sg7
I2
sg8
g1530
sa(dp2144
g1
I01
sg7
I2
sg8
S'sort'
p2145
sasg7
I3
sg8
S'list'
p2146
sa(dp2147
g1
I01
sg7
I2
sg8
S'locals'
p2148
sa(dp2149
g1
I01
sg2
(lp2150
(dp2151
g1
I01
sg7
I5
sg8
g1285
sa(dp2152
g1
I01
sg7
I5
sg8
g1287
sa(dp2153
g1
I01
sg7
I5
sg8
g1289
sa(dp2154
g1
I01
sg7
I5
sg8
g1291
sa(dp2155
g1
I01
sg7
I5
sg8
g1293
sa(dp2156
g1
I01
sg7
I5
sg8
g9
sa(dp2157
g1
I01
sg7
I5
sg8
g1296
sa(dp2158
g1
I01
sg7
I5
sg8
g1298
sa(dp2159
g1
I01
sg7
I5
sg8
g13
sa(dp2160
g1
I01
sg7
I5
sg8
g1301
sa(dp2161
g1
I01
sg7
I5
sg8
g1303
sa(dp2162
g1
I01
sg7
I2
sg8
g15
sa(dp2163
g1
I01
sg7
I5
sg8
g17
sa(dp2164
g1
I01
sg7
I2
sg8
g1307
sa(dp2165
g1
I01
sg7
I5
sg8
g23
sa(dp2166
g1
I01
sg7
I5
sg8
g1310
sa(dp2167
g1
I01
sg7
I5
sg8
g1312
sa(dp2168
g1
I01
sg7
I5
sg8
g25
sa(dp2169
g1
I01
sg7
I5
sg8
g1315
sa(dp2170
g1
I01
sg7
I5
sg8
g1317
sa(dp2171
g1
I01
sg7
I5
sg8
g1319
sa(dp2172
g1
I01
sg7
I5
sg8
g1321
sa(dp2173
g1
I01
sg7
I5
sg8
g1323
sa(dp2174
g1
I01
sg7
I5
sg8
g1325
sa(dp2175
g1
I01
sg7
I5
sg8
g1327
sa(dp2176
g1
I01
sg7
I2
sg8
g27
sa(dp2177
g1
I01
sg7
I5
sg8
g1330
sa(dp2178
g1
I01
sg7
I5
sg8
g1332
sa(dp2179
g1
I01
sg7
I5
sg8
g1334
sa(dp2180
g1
I01
sg7
I5
sg8
g1336
sa(dp2181
g1
I01
sg7
I5
sg8
g1338
sa(dp2182
g1
I01
sg7
I5
sg8
g1340
sa(dp2183
g1
I01
sg7
I5
sg8
g1342
sa(dp2184
g1
I01
sg7
I5
sg8
g1344
sa(dp2185
g1
I01
sg7
I5
sg8
g1346
sa(dp2186
g1
I01
sg7
I2
sg8
g29
sa(dp2187
g1
I01
sg7
I2
sg8
g31
sa(dp2188
g1
I01
sg7
I5
sg8
g33
sa(dp2189
g1
I01
sg7
I5
sg8
g1351
sa(dp2190
g1
I01
sg7
I5
sg8
g1353
sa(dp2191
g1
I01
sg7
I5
sg8
g1355
sa(dp2192
g1
I01
sg7
I5
sg8
g1357
sa(dp2193
g1
I01
sg7
I5
sg8
g1359
sa(dp2194
g1
I01
sg7
I5
sg8
g1361
sa(dp2195
g1
I01
sg7
I5
sg8
g1363
sa(dp2196
g1
I01
sg7
I5
sg8
g1365
sa(dp2197
g1
I01
sg7
I5
sg8
g1367
sa(dp2198
g1
I01
sg7
I5
sg8
g1369
sa(dp2199
g1
I01
sg7
I5
sg8
g1371
sa(dp2200
g1
I01
sg7
I5
sg8
g35
sa(dp2201
g1
I01
sg7
I2
sg8
g39
sa(dp2202
g1
I01
sg7
I5
sg8
g41
sa(dp2203
g1
I01
sg7
I5
sg8
g1376
sa(dp2204
g1
I01
sg7
I2
sg8
g43
sa(dp2205
g1
I01
sg7
I5
sg8
g1379
sa(dp2206
g1
I01
sg7
I2
sg8
g1381
sa(dp2207
g1
I01
sg7
I5
sg8
g1383
sa(dp2208
g1
I01
sg7
I2
sg8
g1385
sa(dp2209
g1
I01
sg7
I2
sg8
g1387
sa(dp2210
g1
I01
sg7
I5
sg8
g1389
sa(dp2211
g1
I01
sg7
I5
sg8
g1391
sa(dp2212
g1
I01
sg7
I5
sg8
g1393
sa(dp2213
g1
I01
sg7
I5
sg8
g1395
sasg7
I3
sg8
S'long'
p2214
sa(dp2215
g1
I01
sg7
I2
sg8
S'map'
p2216
sa(dp2217
g1
I01
sg7
I2
sg8
S'max'
p2218
sa(dp2219
g1
I01
sg2
(lp2220
(dp2221
g1
I01
sg7
I5
sg8
g9
sa(dp2222
g1
I01
sg7
I5
sg8
g1403
sa(dp2223
g1
I01
sg7
I5
sg8
g13
sa(dp2224
g1
I01
sg7
I5
sg8
g1441
sa(dp2225
g1
I01
sg7
I2
sg8
g15
sa(dp2226
g1
I01
sg7
I5
sg8
g1444
sa(dp2227
g1
I01
sg7
I5
sg8
g17
sa(dp2228
g1
I01
sg7
I5
sg8
g19
sa(dp2229
g1
I01
sg7
I5
sg8
g1448
sa(dp2230
g1
I01
sg7
I5
sg8
g23
sa(dp2231
g1
I01
sg7
I5
sg8
g25
sa(dp2232
g1
I01
sg7
I5
sg8
g1458
sa(dp2233
g1
I01
sg7
I5
sg8
g1414
sa(dp2234
g1
I01
sg7
I5
sg8
g1461
sa(dp2235
g1
I01
sg7
I5
sg8
g1464
sa(dp2236
g1
I01
sg7
I2
sg8
g27
sa(dp2237
g1
I01
sg7
I2
sg8
g29
sa(dp2238
g1
I01
sg7
I2
sg8
g31
sa(dp2239
g1
I01
sg7
I5
sg8
g33
sa(dp2240
g1
I01
sg7
I5
sg8
g35
sa(dp2241
g1
I01
sg7
I5
sg8
g1423
sa(dp2242
g1
I01
sg7
I2
sg8
g39
sa(dp2243
g1
I01
sg7
I5
sg8
g41
sa(dp2244
g1
I01
sg7
I2
sg8
g43
sa(dp2245
g1
I01
sg7
I5
sg8
g1608
sa(dp2246
g1
I01
sg7
I5
sg8
S'itemsize'
p2247
sa(dp2248
g1
I01
sg7
I5
sg8
S'ndim'
p2249
sa(dp2250
g1
I01
sg7
I5
sg8
S'readonly'
p2251
sa(dp2252
g1
I01
sg7
I5
sg8
S'shape'
p2253
sa(dp2254
g1
I01
sg7
I5
sg8
S'strides'
p2255
sa(dp2256
g1
I01
sg7
I5
sg8
S'suboffsets'
p2257
sa(dp2258
g1
I01
sg7
I2
sg8
S'tobytes'
p2259
sa(dp2260
g1
I01
sg7
I2
sg8
S'tolist'
p2261
sasg7
I3
sg8
S'memoryview'
p2262
sa(dp2263
g1
I01
sg7
I2
sg8
S'min'
p2264
sa(dp2265
g1
I01
sg7
I2
sg8
g1816
sa(dp2266
g1
I01
sg2
(lp2267
(dp2268
g1
I01
sg7
I5
sg8
g9
sa(dp2269
g1
I01
sg7
I5
sg8
g13
sa(dp2270
g1
I01
sg7
I2
sg8
g15
sa(dp2271
g1
I01
sg7
I5
sg8
g17
sa(dp2272
g1
I01
sg7
I5
sg8
g23
sa(dp2273
g1
I01
sg7
I5
sg8
g25
sa(dp2274
g1
I01
sg7
I2
sg8
g27
sa(dp2275
g1
I01
sg7
I2
sg8
g29
sa(dp2276
g1
I01
sg7
I2
sg8
g31
sa(dp2277
g1
I01
sg7
I5
sg8
g33
sa(dp2278
g1
I01
sg7
I5
sg8
g35
sa(dp2279
g1
I01
sg7
I2
sg8
g39
sa(dp2280
g1
I01
sg7
I5
sg8
g41
sa(dp2281
g1
I01
sg7
I2
sg8
g43
sasg7
I3
sg8
g1038
sa(dp2282
g1
I01
sg7
I2
sg8
S'oct'
p2283
sa(dp2284
g1
I01
sg7
I2
sg8
S'open'
p2285
sa(dp2286
g1
I01
sg7
I2
sg8
S'ord'
p2287
sa(dp2288
g1
I01
sg7
I2
sg8
S'pow'
p2289
sa(dp2290
g1
I01
sg7
I2
sg8
S'print'
p2291
sa(dp2292
g1
I01
sg2
(lp2293
(dp2294
g1
I01
sg7
I5
sg8
g9
sa(dp2295
g1
I01
sg7
I5
sg8
S'__delete__'
p2296
sa(dp2297
g1
I01
sg7
I5
sg8
g13
sa(dp2298
g1
I01
sg7
I2
sg8
g15
sa(dp2299
g1
I01
sg7
I5
sg8
g1651
sa(dp2300
g1
I01
sg7
I5
sg8
g17
sa(dp2301
g1
I01
sg7
I5
sg8
g23
sa(dp2302
g1
I01
sg7
I5
sg8
g25
sa(dp2303
g1
I01
sg7
I2
sg8
g27
sa(dp2304
g1
I01
sg7
I2
sg8
g29
sa(dp2305
g1
I01
sg7
I2
sg8
g31
sa(dp2306
g1
I01
sg7
I5
sg8
g33
sa(dp2307
g1
I01
sg7
I5
sg8
S'__set__'
p2308
sa(dp2309
g1
I01
sg7
I5
sg8
g35
sa(dp2310
g1
I01
sg7
I2
sg8
g39
sa(dp2311
g1
I01
sg7
I5
sg8
g41
sa(dp2312
g1
I01
sg7
I2
sg8
g43
sa(dp2313
g1
I01
sg7
I2
sg8
S'deleter'
p2314
sa(dp2315
g1
I01
sg7
I5
sg8
S'fdel'
p2316
sa(dp2317
g1
I01
sg7
I5
sg8
S'fget'
p2318
sa(dp2319
g1
I01
sg7
I5
sg8
S'fset'
p2320
sa(dp2321
g1
I01
sg7
I2
sg8
S'getter'
p2322
sa(dp2323
g1
I01
sg7
I2
sg8
S'setter'
p2324
sasg7
I3
sg8
S'property'
p2325
sa(dp2326
g1
I01
sg7
I5
sg8
S'quit'
p2327
sa(dp2328
g1
I01
sg7
I2
sg8
S'range'
p2329
sa(dp2330
g1
I01
sg7
I2
sg8
S'raw_input'
p2331
sa(dp2332
g1
I01
sg7
I2
sg8
S'reduce'
p2333
sa(dp2334
g1
I01
sg7
I2
sg8
S'reload'
p2335
sa(dp2336
g1
I01
sg7
I2
sg8
S'repr'
p2337
sa(dp2338
g1
I01
sg2
(lp2339
(dp2340
g1
I01
sg7
I5
sg8
g9
sa(dp2341
g1
I01
sg7
I5
sg8
g13
sa(dp2342
g1
I01
sg7
I2
sg8
g15
sa(dp2343
g1
I01
sg7
I5
sg8
g17
sa(dp2344
g1
I01
sg7
I5
sg8
g23
sa(dp2345
g1
I01
sg7
I5
sg8
g25
sa(dp2346
g1
I01
sg7
I5
sg8
g1456
sa(dp2347
g1
I01
sg7
I2
sg8
S'__length_hint__'
p2348
sa(dp2349
g1
I01
sg7
I2
sg8
g27
sa(dp2350
g1
I01
sg7
I2
sg8
g29
sa(dp2351
g1
I01
sg7
I2
sg8
g31
sa(dp2352
g1
I01
sg7
I5
sg8
g33
sa(dp2353
g1
I01
sg7
I5
sg8
g35
sa(dp2354
g1
I01
sg7
I2
sg8
g39
sa(dp2355
g1
I01
sg7
I5
sg8
g41
sa(dp2356
g1
I01
sg7
I2
sg8
g43
sa(dp2357
g1
I01
sg7
I5
sg8
g1816
sasg7
I3
sg8
S'reversed'
p2358
sa(dp2359
g1
I01
sg7
I2
sg8
S'round'
p2360
sa(dp2361
g1
I01
sg2
(lp2362
(dp2363
g1
I01
sg7
I5
sg8
g1289
sa(dp2364
g1
I01
sg7
I5
sg8
g1291
sa(dp2365
g1
I01
sg7
I2
sg8
g1436
sa(dp2366
g1
I01
sg7
I5
sg8
g9
sa(dp2367
g1
I01
sg7
I5
sg8
g13
sa(dp2368
g1
I01
sg7
I5
sg8
g1441
sa(dp2369
g1
I01
sg7
I2
sg8
g15
sa(dp2370
g1
I01
sg7
I5
sg8
g1444
sa(dp2371
g1
I01
sg7
I5
sg8
g17
sa(dp2372
g1
I01
sg7
I5
sg8
g1448
sa(dp2373
g1
I01
sg7
I5
sg8
g23
sa(dp2374
g1
I01
sg7
I5
sg8
S'__iand__'
p2375
sa(dp2376
g1
I01
sg7
I5
sg8
g25
sa(dp2377
g1
I01
sg7
I5
sg8
S'__ior__'
p2378
sa(dp2379
g1
I01
sg7
I5
sg8
S'__isub__'
p2380
sa(dp2381
g1
I01
sg7
I5
sg8
g1456
sa(dp2382
g1
I01
sg7
I5
sg8
S'__ixor__'
p2383
sa(dp2384
g1
I01
sg7
I5
sg8
g1458
sa(dp2385
g1
I01
sg7
I5
sg8
g1414
sa(dp2386
g1
I01
sg7
I5
sg8
g1461
sa(dp2387
g1
I01
sg7
I5
sg8
g1464
sa(dp2388
g1
I01
sg7
I2
sg8
g27
sa(dp2389
g1
I01
sg7
I5
sg8
g1334
sa(dp2390
g1
I01
sg7
I5
sg8
g1342
sa(dp2391
g1
I01
sg7
I2
sg8
g29
sa(dp2392
g1
I01
sg7
I2
sg8
g31
sa(dp2393
g1
I01
sg7
I5
sg8
g33
sa(dp2394
g1
I01
sg7
I5
sg8
g1359
sa(dp2395
g1
I01
sg7
I5
sg8
g1367
sa(dp2396
g1
I01
sg7
I5
sg8
g1371
sa(dp2397
g1
I01
sg7
I5
sg8
g35
sa(dp2398
g1
I01
sg7
I2
sg8
g39
sa(dp2399
g1
I01
sg7
I5
sg8
g41
sa(dp2400
g1
I01
sg7
I5
sg8
g1376
sa(dp2401
g1
I01
sg7
I2
sg8
g43
sa(dp2402
g1
I01
sg7
I5
sg8
g1383
sa(dp2403
g1
I01
sg7
I2
sg8
S'add'
p2404
sa(dp2405
g1
I01
sg7
I2
sg8
g1759
sa(dp2406
g1
I01
sg7
I2
sg8
g1761
sa(dp2407
g1
I01
sg7
I2
sg8
g1991
sa(dp2408
g1
I01
sg7
I2
sg8
S'difference_update'
p2409
sa(dp2410
g1
I01
sg7
I2
sg8
S'discard'
p2411
sa(dp2412
g1
I01
sg7
I2
sg8
g1993
sa(dp2413
g1
I01
sg7
I2
sg8
S'intersection_update'
p2414
sa(dp2415
g1
I01
sg7
I2
sg8
g1995
sa(dp2416
g1
I01
sg7
I2
sg8
g1997
sa(dp2417
g1
I01
sg7
I2
sg8
g1999
sa(dp2418
g1
I01
sg7
I2
sg8
g1524
sa(dp2419
g1
I01
sg7
I2
sg8
g1526
sa(dp2420
g1
I01
sg7
I2
sg8
g2001
sa(dp2421
g1
I01
sg7
I2
sg8
S'symmetric_difference_update'
p2422
sa(dp2423
g1
I01
sg7
I2
sg8
g2003
sa(dp2424
g1
I01
sg7
I2
sg8
g1784
sasg7
I3
sg8
S'set'
p2425
sa(dp2426
g1
I01
sg7
I2
sg8
S'setattr'
p2427
sa(dp2428
g1
I01
sg2
(lp2429
(dp2430
g1
I01
sg7
I5
sg8
g1291
sa(dp2431
g1
I01
sg7
I5
sg8
g9
sa(dp2432
g1
I01
sg7
I5
sg8
g13
sa(dp2433
g1
I01
sg7
I2
sg8
g15
sa(dp2434
g1
I01
sg7
I5
sg8
g17
sa(dp2435
g1
I01
sg7
I5
sg8
g23
sa(dp2436
g1
I01
sg7
I5
sg8
g25
sa(dp2437
g1
I01
sg7
I2
sg8
g27
sa(dp2438
g1
I01
sg7
I2
sg8
g29
sa(dp2439
g1
I01
sg7
I2
sg8
g31
sa(dp2440
g1
I01
sg7
I5
sg8
g33
sa(dp2441
g1
I01
sg7
I5
sg8
g35
sa(dp2442
g1
I01
sg7
I2
sg8
g39
sa(dp2443
g1
I01
sg7
I5
sg8
g41
sa(dp2444
g1
I01
sg7
I2
sg8
g43
sa(dp2445
g1
I01
sg7
I2
sg8
S'indices'
p2446
sa(dp2447
g1
I01
sg7
I5
sg8
g1042
sa(dp2448
g1
I01
sg7
I5
sg8
S'step'
p2449
sa(dp2450
g1
I01
sg7
I5
sg8
S'stop'
p2451
sasg7
I3
sg8
S'slice'
p2452
sa(dp2453
g1
I01
sg7
I2
sg8
S'sorted'
p2454
sa(dp2455
g1
I01
sg2
(lp2456
(dp2457
g1
I01
sg7
I5
sg8
g9
sa(dp2458
g1
I01
sg7
I5
sg8
g13
sa(dp2459
g1
I01
sg7
I2
sg8
g15
sa(dp2460
g1
I01
sg7
I5
sg8
g1649
sa(dp2461
g1
I01
sg7
I5
sg8
g1651
sa(dp2462
g1
I01
sg7
I5
sg8
g17
sa(dp2463
g1
I01
sg7
I5
sg8
g23
sa(dp2464
g1
I01
sg7
I5
sg8
g25
sa(dp2465
g1
I01
sg7
I2
sg8
g27
sa(dp2466
g1
I01
sg7
I2
sg8
g29
sa(dp2467
g1
I01
sg7
I2
sg8
g31
sa(dp2468
g1
I01
sg7
I5
sg8
g33
sa(dp2469
g1
I01
sg7
I5
sg8
g35
sa(dp2470
g1
I01
sg7
I2
sg8
g39
sa(dp2471
g1
I01
sg7
I5
sg8
g41
sa(dp2472
g1
I01
sg7
I2
sg8
g43
sasg7
I3
sg8
S'staticmethod'
p2473
sa(dp2474
g1
I01
sg2
(lp2475
(dp2476
g1
I01
sg7
I5
sg8
g1287
sa(dp2477
g1
I01
sg7
I5
sg8
g1436
sa(dp2478
g1
I01
sg7
I5
sg8
g9
sa(dp2479
g1
I01
sg7
I5
sg8
g13
sa(dp2480
g1
I01
sg7
I5
sg8
g1441
sa(dp2481
g1
I01
sg7
I2
sg8
g15
sa(dp2482
g1
I01
sg7
I5
sg8
g1444
sa(dp2483
g1
I01
sg7
I5
sg8
g17
sa(dp2484
g1
I01
sg7
I5
sg8
g19
sa(dp2485
g1
I01
sg7
I2
sg8
g1307
sa(dp2486
g1
I01
sg7
I5
sg8
g21
sa(dp2487
g1
I01
sg7
I5
sg8
g1448
sa(dp2488
g1
I01
sg7
I5
sg8
g23
sa(dp2489
g1
I01
sg7
I5
sg8
g25
sa(dp2490
g1
I01
sg7
I5
sg8
g1458
sa(dp2491
g1
I01
sg7
I5
sg8
g1414
sa(dp2492
g1
I01
sg7
I5
sg8
g1461
sa(dp2493
g1
I01
sg7
I5
sg8
g1323
sa(dp2494
g1
I01
sg7
I5
sg8
g1325
sa(dp2495
g1
I01
sg7
I5
sg8
g1464
sa(dp2496
g1
I01
sg7
I2
sg8
g27
sa(dp2497
g1
I01
sg7
I2
sg8
g29
sa(dp2498
g1
I01
sg7
I2
sg8
g31
sa(dp2499
g1
I01
sg7
I5
sg8
g33
sa(dp2500
g1
I01
sg7
I5
sg8
g1355
sa(dp2501
g1
I01
sg7
I5
sg8
g1357
sa(dp2502
g1
I01
sg7
I5
sg8
g35
sa(dp2503
g1
I01
sg7
I2
sg8
g39
sa(dp2504
g1
I01
sg7
I5
sg8
g41
sa(dp2505
g1
I01
sg7
I2
sg8
g43
sa(dp2506
g1
I01
sg7
I2
sg8
g1595
sa(dp2507
g1
I01
sg7
I2
sg8
g1597
sa(dp2508
g1
I01
sg7
I2
sg8
g1478
sa(dp2509
g1
I01
sg7
I2
sg8
g1480
sa(dp2510
g1
I01
sg7
I2
sg8
g1482
sa(dp2511
g1
I01
sg7
I2
sg8
g1484
sa(dp2512
g1
I01
sg7
I2
sg8
g1603
sa(dp2513
g1
I01
sg7
I2
sg8
g1486
sa(dp2514
g1
I01
sg7
I2
sg8
g1488
sa(dp2515
g1
I01
sg7
I2
sg8
g1492
sa(dp2516
g1
I01
sg7
I2
sg8
g1608
sa(dp2517
g1
I01
sg7
I2
sg8
g1496
sa(dp2518
g1
I01
sg7
I2
sg8
g1500
sa(dp2519
g1
I01
sg7
I2
sg8
g1502
sa(dp2520
g1
I01
sg7
I2
sg8
g1504
sa(dp2521
g1
I01
sg7
I2
sg8
g1506
sa(dp2522
g1
I01
sg7
I2
sg8
g1508
sa(dp2523
g1
I01
sg7
I2
sg8
g1510
sa(dp2524
g1
I01
sg7
I2
sg8
g1512
sa(dp2525
g1
I01
sg7
I2
sg8
g1514
sa(dp2526
g1
I01
sg7
I2
sg8
g1516
sa(dp2527
g1
I01
sg7
I2
sg8
g1518
sa(dp2528
g1
I01
sg7
I2
sg8
g1520
sa(dp2529
g1
I01
sg7
I2
sg8
g1522
sa(dp2530
g1
I01
sg7
I2
sg8
g1528
sa(dp2531
g1
I01
sg7
I2
sg8
g1532
sa(dp2532
g1
I01
sg7
I2
sg8
g1534
sa(dp2533
g1
I01
sg7
I2
sg8
g1536
sa(dp2534
g1
I01
sg7
I2
sg8
g1538
sa(dp2535
g1
I01
sg7
I2
sg8
g1540
sa(dp2536
g1
I01
sg7
I2
sg8
g1542
sa(dp2537
g1
I01
sg7
I2
sg8
g1544
sa(dp2538
g1
I01
sg7
I2
sg8
g1546
sa(dp2539
g1
I01
sg7
I2
sg8
g1548
sa(dp2540
g1
I01
sg7
I2
sg8
g1550
sa(dp2541
g1
I01
sg7
I2
sg8
g1552
sa(dp2542
g1
I01
sg7
I2
sg8
g1554
sa(dp2543
g1
I01
sg7
I2
sg8
g1556
sa(dp2544
g1
I01
sg7
I2
sg8
g1558
sa(dp2545
g1
I01
sg7
I2
sg8
g1560
sasg7
I3
sg8
S'str'
p2546
sa(dp2547
g1
I01
sg7
I2
sg8
S'sum'
p2548
sa(dp2549
g1
I01
sg2
(lp2550
(dp2551
g1
I01
sg7
I5
sg8
g9
sa(dp2552
g1
I01
sg7
I5
sg8
g13
sa(dp2553
g1
I01
sg7
I2
sg8
g15
sa(dp2554
g1
I01
sg7
I5
sg8
g1651
sa(dp2555
g1
I01
sg7
I5
sg8
g17
sa(dp2556
g1
I01
sg7
I5
sg8
g23
sa(dp2557
g1
I01
sg7
I5
sg8
g25
sa(dp2558
g1
I01
sg7
I2
sg8
g27
sa(dp2559
g1
I01
sg7
I2
sg8
g29
sa(dp2560
g1
I01
sg7
I2
sg8
g31
sa(dp2561
g1
I01
sg7
I5
sg8
g33
sa(dp2562
g1
I01
sg7
I5
sg8
S'__self__'
p2563
sa(dp2564
g1
I01
sg7
I5
sg8
S'__self_class__'
p2565
sa(dp2566
g1
I01
sg7
I5
sg8
g35
sa(dp2567
g1
I01
sg7
I2
sg8
g39
sa(dp2568
g1
I01
sg7
I5
sg8
g41
sa(dp2569
g1
I01
sg7
I2
sg8
g43
sa(dp2570
g1
I01
sg7
I5
sg8
S'__thisclass__'
p2571
sasg7
I3
sg8
S'super'
p2572
sa(dp2573
g1
I01
sg2
(lp2574
(dp2575
g1
I01
sg7
I5
sg8
g1287
sa(dp2576
g1
I01
sg7
I5
sg8
g1436
sa(dp2577
g1
I01
sg7
I5
sg8
g9
sa(dp2578
g1
I01
sg7
I5
sg8
g13
sa(dp2579
g1
I01
sg7
I5
sg8
g1441
sa(dp2580
g1
I01
sg7
I2
sg8
g15
sa(dp2581
g1
I01
sg7
I5
sg8
g1444
sa(dp2582
g1
I01
sg7
I5
sg8
g17
sa(dp2583
g1
I01
sg7
I5
sg8
g19
sa(dp2584
g1
I01
sg7
I2
sg8
g1307
sa(dp2585
g1
I01
sg7
I5
sg8
g21
sa(dp2586
g1
I01
sg7
I5
sg8
g1448
sa(dp2587
g1
I01
sg7
I5
sg8
g23
sa(dp2588
g1
I01
sg7
I5
sg8
g25
sa(dp2589
g1
I01
sg7
I5
sg8
g1456
sa(dp2590
g1
I01
sg7
I5
sg8
g1458
sa(dp2591
g1
I01
sg7
I5
sg8
g1414
sa(dp2592
g1
I01
sg7
I5
sg8
g1461
sa(dp2593
g1
I01
sg7
I5
sg8
g1325
sa(dp2594
g1
I01
sg7
I5
sg8
g1464
sa(dp2595
g1
I01
sg7
I2
sg8
g27
sa(dp2596
g1
I01
sg7
I2
sg8
g29
sa(dp2597
g1
I01
sg7
I2
sg8
g31
sa(dp2598
g1
I01
sg7
I5
sg8
g33
sa(dp2599
g1
I01
sg7
I5
sg8
g1357
sa(dp2600
g1
I01
sg7
I5
sg8
g35
sa(dp2601
g1
I01
sg7
I2
sg8
g39
sa(dp2602
g1
I01
sg7
I5
sg8
g41
sa(dp2603
g1
I01
sg7
I2
sg8
g43
sa(dp2604
g1
I01
sg7
I2
sg8
g1482
sa(dp2605
g1
I01
sg7
I2
sg8
g1496
sasg7
I3
sg8
S'tuple'
p2606
sa(dp2607
g1
I01
sg2
(lp2608
(dp2609
g1
I01
sg7
I5
sg8
S'__bases__'
p2610
sa(dp2611
g1
I01
sg7
I5
sg8
S'__basicsize__'
p2612
sa(dp2613
g1
I01
sg7
I5
sg8
S'__call__'
p2614
sa(dp2615
g1
I01
sg7
I5
sg8
g9
sa(dp2616
g1
I01
sg7
I5
sg8
g11
sa(dp2617
g1
I01
sg7
I5
sg8
S'__dictoffset__'
p2618
sa(dp2619
g1
I01
sg7
I5
sg8
g13
sa(dp2620
g1
I01
sg7
I5
sg8
g1441
sa(dp2621
g1
I01
sg7
I5
sg8
S'__flags__'
p2622
sa(dp2623
g1
I01
sg7
I2
sg8
g15
sa(dp2624
g1
I01
sg7
I5
sg8
g1444
sa(dp2625
g1
I01
sg7
I5
sg8
g17
sa(dp2626
g1
I01
sg7
I5
sg8
g1448
sa(dp2627
g1
I01
sg7
I5
sg8
g23
sa(dp2628
g1
I01
sg7
I5
sg8
g25
sa(dp2629
g1
I01
sg7
I2
sg8
S'__instancecheck__'
p2630
sa(dp2631
g1
I01
sg7
I5
sg8
S'__itemsize__'
p2632
sa(dp2633
g1
I01
sg7
I5
sg8
g1458
sa(dp2634
g1
I01
sg7
I5
sg8
g1461
sa(dp2635
g1
I01
sg7
I5
sg8
S'__module__'
p2636
sa(dp2637
g1
I01
sg7
I5
sg8
S'__mro__'
p2638
sa(dp2639
g1
I01
sg7
I5
sg8
g1252
sa(dp2640
g1
I01
sg7
I5
sg8
g1464
sa(dp2641
g1
I01
sg7
I2
sg8
g27
sa(dp2642
g1
I01
sg7
I2
sg8
g29
sa(dp2643
g1
I01
sg7
I2
sg8
g31
sa(dp2644
g1
I01
sg7
I5
sg8
g33
sa(dp2645
g1
I01
sg7
I5
sg8
g35
sa(dp2646
g1
I01
sg7
I2
sg8
g39
sa(dp2647
g1
I01
sg7
I5
sg8
g41
sa(dp2648
g1
I01
sg7
I2
sg8
S'__subclasscheck__'
p2649
sa(dp2650
g1
I01
sg7
I2
sg8
S'__subclasses__'
p2651
sa(dp2652
g1
I01
sg7
I2
sg8
g43
sa(dp2653
g1
I01
sg7
I5
sg8
S'__weakrefoffset__'
p2654
sa(dp2655
g1
I01
sg7
I2
sg8
S'mro'
p2656
sasg7
I3
sg8
g7
sa(dp2657
g1
I01
sg7
I2
sg8
S'unichr'
p2658
sa(dp2659
g1
I01
sg2
(lp2660
(dp2661
g1
I01
sg7
I5
sg8
g1287
sa(dp2662
g1
I01
sg7
I5
sg8
g1436
sa(dp2663
g1
I01
sg7
I5
sg8
g9
sa(dp2664
g1
I01
sg7
I5
sg8
g13
sa(dp2665
g1
I01
sg7
I5
sg8
g1441
sa(dp2666
g1
I01
sg7
I2
sg8
g15
sa(dp2667
g1
I01
sg7
I5
sg8
g1444
sa(dp2668
g1
I01
sg7
I5
sg8
g17
sa(dp2669
g1
I01
sg7
I5
sg8
g19
sa(dp2670
g1
I01
sg7
I2
sg8
g1307
sa(dp2671
g1
I01
sg7
I5
sg8
g21
sa(dp2672
g1
I01
sg7
I5
sg8
g1448
sa(dp2673
g1
I01
sg7
I5
sg8
g23
sa(dp2674
g1
I01
sg7
I5
sg8
g25
sa(dp2675
g1
I01
sg7
I5
sg8
g1458
sa(dp2676
g1
I01
sg7
I5
sg8
g1414
sa(dp2677
g1
I01
sg7
I5
sg8
g1461
sa(dp2678
g1
I01
sg7
I5
sg8
g1323
sa(dp2679
g1
I01
sg7
I5
sg8
g1325
sa(dp2680
g1
I01
sg7
I5
sg8
g1464
sa(dp2681
g1
I01
sg7
I2
sg8
g27
sa(dp2682
g1
I01
sg7
I2
sg8
g29
sa(dp2683
g1
I01
sg7
I2
sg8
g31
sa(dp2684
g1
I01
sg7
I5
sg8
g33
sa(dp2685
g1
I01
sg7
I5
sg8
g1355
sa(dp2686
g1
I01
sg7
I5
sg8
g1357
sa(dp2687
g1
I01
sg7
I5
sg8
g35
sa(dp2688
g1
I01
sg7
I2
sg8
g39
sa(dp2689
g1
I01
sg7
I5
sg8
g41
sa(dp2690
g1
I01
sg7
I2
sg8
g43
sa(dp2691
g1
I01
sg7
I2
sg8
g1595
sa(dp2692
g1
I01
sg7
I2
sg8
g1597
sa(dp2693
g1
I01
sg7
I2
sg8
g1478
sa(dp2694
g1
I01
sg7
I2
sg8
g1480
sa(dp2695
g1
I01
sg7
I2
sg8
g1482
sa(dp2696
g1
I01
sg7
I2
sg8
g1484
sa(dp2697
g1
I01
sg7
I2
sg8
g1603
sa(dp2698
g1
I01
sg7
I2
sg8
g1486
sa(dp2699
g1
I01
sg7
I2
sg8
g1488
sa(dp2700
g1
I01
sg7
I2
sg8
g1492
sa(dp2701
g1
I01
sg7
I2
sg8
g1608
sa(dp2702
g1
I01
sg7
I2
sg8
g1496
sa(dp2703
g1
I01
sg7
I2
sg8
g1500
sa(dp2704
g1
I01
sg7
I2
sg8
g1502
sa(dp2705
g1
I01
sg7
I2
sg8
S'isdecimal'
p2706
sa(dp2707
g1
I01
sg7
I2
sg8
g1504
sa(dp2708
g1
I01
sg7
I2
sg8
g1506
sa(dp2709
g1
I01
sg7
I2
sg8
S'isnumeric'
p2710
sa(dp2711
g1
I01
sg7
I2
sg8
g1508
sa(dp2712
g1
I01
sg7
I2
sg8
g1510
sa(dp2713
g1
I01
sg7
I2
sg8
g1512
sa(dp2714
g1
I01
sg7
I2
sg8
g1514
sa(dp2715
g1
I01
sg7
I2
sg8
g1516
sa(dp2716
g1
I01
sg7
I2
sg8
g1518
sa(dp2717
g1
I01
sg7
I2
sg8
g1520
sa(dp2718
g1
I01
sg7
I2
sg8
g1522
sa(dp2719
g1
I01
sg7
I2
sg8
g1528
sa(dp2720
g1
I01
sg7
I2
sg8
g1532
sa(dp2721
g1
I01
sg7
I2
sg8
g1534
sa(dp2722
g1
I01
sg7
I2
sg8
g1536
sa(dp2723
g1
I01
sg7
I2
sg8
g1538
sa(dp2724
g1
I01
sg7
I2
sg8
g1540
sa(dp2725
g1
I01
sg7
I2
sg8
g1542
sa(dp2726
g1
I01
sg7
I2
sg8
g1544
sa(dp2727
g1
I01
sg7
I2
sg8
g1546
sa(dp2728
g1
I01
sg7
I2
sg8
g1548
sa(dp2729
g1
I01
sg7
I2
sg8
g1550
sa(dp2730
g1
I01
sg7
I2
sg8
g1552
sa(dp2731
g1
I01
sg7
I2
sg8
g1554
sa(dp2732
g1
I01
sg7
I2
sg8
g1556
sa(dp2733
g1
I01
sg7
I2
sg8
g1558
sa(dp2734
g1
I01
sg7
I2
sg8
g1560
sasg7
I3
sg8
S'unicode'
p2735
sa(dp2736
g1
I01
sg7
I2
sg8
S'vars'
p2737
sa(dp2738
g1
I01
sg2
(lp2739
(dp2740
g1
I01
sg7
I5
sg8
g9
sa(dp2741
g1
I01
sg7
I5
sg8
g13
sa(dp2742
g1
I01
sg7
I2
sg8
g15
sa(dp2743
g1
I01
sg7
I5
sg8
g17
sa(dp2744
g1
I01
sg7
I5
sg8
g19
sa(dp2745
g1
I01
sg7
I5
sg8
g23
sa(dp2746
g1
I01
sg7
I5
sg8
g25
sa(dp2747
g1
I01
sg7
I5
sg8
g1456
sa(dp2748
g1
I01
sg7
I5
sg8
g1414
sa(dp2749
g1
I01
sg7
I2
sg8
g27
sa(dp2750
g1
I01
sg7
I2
sg8
g29
sa(dp2751
g1
I01
sg7
I2
sg8
g31
sa(dp2752
g1
I01
sg7
I5
sg8
g33
sa(dp2753
g1
I01
sg7
I2
sg8
g2128
sa(dp2754
g1
I01
sg7
I5
sg8
g35
sa(dp2755
g1
I01
sg7
I2
sg8
g39
sa(dp2756
g1
I01
sg7
I5
sg8
g41
sa(dp2757
g1
I01
sg7
I2
sg8
g43
sasg7
I3
sg8
S'xrange'
p2758
sa(dp2759
g1
I01
sg7
I2
sg8
S'zip'
p2760
sasg8
S'__builtin__'
p2761
s.