(dp0
S'doc'
p1
NsS'is_builtin'
p2
I01
sS'childs'
p3
(lp4
(dp5
g1
Nsg2
I01
sg3
(lp6
(dp7
g2
I01
sS'type'
p8
I5
sS'name'
p9
S'__delattr__'
p10
sa(dp11
g2
I01
sg8
I5
sg9
S'__doc__'
p12
sa(dp13
g1
S'default object formatter'
p14
sg2
I01
sg8
I2
sg9
S'__format__'
p15
sa(dp16
g2
I01
sg8
I5
sg9
S'__getattribute__'
p17
sa(dp18
g2
I01
sg8
I5
sg9
S'__hash__'
p19
sa(dp20
g2
I01
sg8
I5
sg9
S'__init__'
p21
sa(dp22
g1
S'T.__new__(S, ...) -> a new object with type S, a subtype of T'
p23
sg2
I01
sg8
I2
sg9
S'__new__'
p24
sa(dp25
g1
Nsg2
I01
sg8
I2
sg9
S'__reduce__'
p26
sa(dp27
g1
S'helper for pickle'
p28
sg2
I01
sg8
I2
sg9
S'__reduce_ex__'
p29
sa(dp30
g2
I01
sg8
I5
sg9
S'__repr__'
p31
sa(dp32
g2
I01
sg8
I5
sg9
S'__setattr__'
p33
sa(dp34
g1
S'__sizeof__() -> int\nsize of object in memory, in bytes'
p35
sg2
I01
sg8
I2
sg9
S'__sizeof__'
p36
sa(dp37
g2
I01
sg8
I5
sg9
S'__str__'
p38
sa(dp39
g1
S'Abstract classes can override this to customize issubclass().\n\nThis is invoked early on by abc.ABCMeta.__subclasscheck__().\nIt should return True, False or NotImplemented.  If it returns\nNotImplemented, the normal algorithm is used.  Otherwise, it\noverrides the normal algorithm (and the outcome is cached).\n'
p40
sg2
I01
sg8
I2
sg9
S'__subclasshook__'
p41
sa(dp42
g2
I01
sg8
I5
sg9
S'_attributes'
p43
sa(dp44
g2
I01
sg8
I5
sg9
S'_fields'
p45
sasg8
I3
sg9
S'AST'
p46
sa(dp47
g1
Nsg2
I01
sg3
(lp48
(dp49
g2
I01
sg8
I5
sg9
g10
sa(dp50
g2
I01
sg8
I5
sg9
S'__dict__'
p51
sa(dp52
g2
I01
sg8
I5
sg9
g12
sa(dp53
g1
S'default object formatter'
p54
sg2
I01
sg8
I2
sg9
g15
sa(dp55
g2
I01
sg8
I5
sg9
g17
sa(dp56
g2
I01
sg8
I5
sg9
g19
sa(dp57
g2
I01
sg8
I5
sg9
g21
sa(dp58
g2
I01
sg8
I5
sg9
S'__module__'
p59
sa(dp60
g1
S'T.__new__(S, ...) -> a new object with type S, a subtype of T'
p61
sg2
I01
sg8
I2
sg9
g24
sa(dp62
g1
Nsg2
I01
sg8
I2
sg9
g26
sa(dp63
g1
S'helper for pickle'
p64
sg2
I01
sg8
I2
sg9
g29
sa(dp65
g2
I01
sg8
I5
sg9
g31
sa(dp66
g2
I01
sg8
I5
sg9
g33
sa(dp67
g1
S'__sizeof__() -> int\nsize of object in memory, in bytes'
p68
sg2
I01
sg8
I2
sg9
g36
sa(dp69
g2
I01
sg8
I5
sg9
g38
sa(dp70
g1
S'Abstract classes can override this to customize issubclass().\n\nThis is invoked early on by abc.ABCMeta.__subclasscheck__().\nIt should return True, False or NotImplemented.  If it returns\nNotImplemented, the normal algorithm is used.  Otherwise, it\noverrides the normal algorithm (and the outcome is cached).\n'
p71
sg2
I01
sg8
I2
sg9
g41
sa(dp72
g2
I01
sg8
I5
sg9
S'__weakref__'
p73
sa(dp74
g2
I01
sg8
I5
sg9
g43
sa(dp75
g2
I01
sg8
I5
sg9
S'_fields'
p76
sasg8
I3
sg9
S'Add'
p77
sa(dp78
g1
Nsg2
I01
sg3
(lp79
(dp80
g2
I01
sg8
I5
sg9
g10
sa(dp81
g2
I01
sg8
I5
sg9
g51
sa(dp82
g2
I01
sg8
I5
sg9
g12
sa(dp83
g1
S'default object formatter'
p84
sg2
I01
sg8
I2
sg9
g15
sa(dp85
g2
I01
sg8
I5
sg9
g17
sa(dp86
g2
I01
sg8
I5
sg9
g19
sa(dp87
g2
I01
sg8
I5
sg9
g21
sa(dp88
g2
I01
sg8
I5
sg9
S'__module__'
p89
sa(dp90
g1
S'T.__new__(S, ...) -> a new object with type S, a subtype of T'
p91
sg2
I01
sg8
I2
sg9
g24
sa(dp92
g1
Nsg2
I01
sg8
I2
sg9
g26
sa(dp93
g1
S'helper for pickle'
p94
sg2
I01
sg8
I2
sg9
g29
sa(dp95
g2
I01
sg8
I5
sg9
g31
sa(dp96
g2
I01
sg8
I5
sg9
g33
sa(dp97
g1
S'__sizeof__() -> int\nsize of object in memory, in bytes'
p98
sg2
I01
sg8
I2
sg9
g36
sa(dp99
g2
I01
sg8
I5
sg9
g38
sa(dp100
g1
S'Abstract classes can override this to customize issubclass().\n\nThis is invoked early on by abc.ABCMeta.__subclasscheck__().\nIt should return True, False or NotImplemented.  If it returns\nNotImplemented, the normal algorithm is used.  Otherwise, it\noverrides the normal algorithm (and the outcome is cached).\n'
p101
sg2
I01
sg8
I2
sg9
g41
sa(dp102
g2
I01
sg8
I5
sg9
g73
sa(dp103
g2
I01
sg8
I5
sg9
g43
sa(dp104
g2
I01
sg8
I5
sg9
S'_fields'
p105
sasg8
I3
sg9
S'And'
p106
sa(dp107
g1
Nsg2
I01
sg3
(lp108
(dp109
g2
I01
sg8
I5
sg9
g10
sa(dp110
g2
I01
sg8
I5
sg9
g51
sa(dp111
g2
I01
sg8
I5
sg9
g12
sa(dp112
g1
S'default object formatter'
p113
sg2
I01
sg8
I2
sg9
g15
sa(dp114
g2
I01
sg8
I5
sg9
g17
sa(dp115
g2
I01
sg8
I5
sg9
g19
sa(dp116
g2
I01
sg8
I5
sg9
g21
sa(dp117
g2
I01
sg8
I5
sg9
S'__module__'
p118
sa(dp119
g1
S'T.__new__(S, ...) -> a new object with type S, a subtype of T'
p120
sg2
I01
sg8
I2
sg9
g24
sa(dp121
g1
Nsg2
I01
sg8
I2
sg9
g26
sa(dp122
g1
S'helper for pickle'
p123
sg2
I01
sg8
I2
sg9
g29
sa(dp124
g2
I01
sg8
I5
sg9
g31
sa(dp125
g2
I01
sg8
I5
sg9
g33
sa(dp126
g1
S'__sizeof__() -> int\nsize of object in memory, in bytes'
p127
sg2
I01
sg8
I2
sg9
g36
sa(dp128
g2
I01
sg8
I5
sg9
g38
sa(dp129
g1
S'Abstract classes can override this to customize issubclass().\n\nThis is invoked early on by abc.ABCMeta.__subclasscheck__().\nIt should return True, False or NotImplemented.  If it returns\nNotImplemented, the normal algorithm is used.  Otherwise, it\noverrides the normal algorithm (and the outcome is cached).\n'
p130
sg2
I01
sg8
I2
sg9
g41
sa(dp131
g2
I01
sg8
I5
sg9
g73
sa(dp132
g2
I01
sg8
I5
sg9
g43
sa(dp133
g2
I01
sg8
I5
sg9
S'_fields'
p134
sasg8
I3
sg9
S'Assert'
p135
sa(dp136
g1
Nsg2
I01
sg3
(lp137
(dp138
g2
I01
sg8
I5
sg9
g10
sa(dp139
g2
I01
sg8
I5
sg9
g51
sa(dp140
g2
I01
sg8
I5
sg9
g12
sa(dp141
g1
S'default object formatter'
p142
sg2
I01
sg8
I2
sg9
g15
sa(dp143
g2
I01
sg8
I5
sg9
g17
sa(dp144
g2
I01
sg8
I5
sg9
g19
sa(dp145
g2
I01
sg8
I5
sg9
g21
sa(dp146
g2
I01
sg8
I5
sg9
S'__module__'
p147
sa(dp148
g1
S'T.__new__(S, ...) -> a new object with type S, a subtype of T'
p149
sg2
I01
sg8
I2
sg9
g24
sa(dp150
g1
Nsg2
I01
sg8
I2
sg9
g26
sa(dp151
g1
S'helper for pickle'
p152
sg2
I01
sg8
I2
sg9
g29
sa(dp153
g2
I01
sg8
I5
sg9
g31
sa(dp154
g2
I01
sg8
I5
sg9
g33
sa(dp155
g1
S'__sizeof__() -> int\nsize of object in memory, in bytes'
p156
sg2
I01
sg8
I2
sg9
g36
sa(dp157
g2
I01
sg8
I5
sg9
g38
sa(dp158
g1
S'Abstract classes can override this to customize issubclass().\n\nThis is invoked early on by abc.ABCMeta.__subclasscheck__().\nIt should return True, False or NotImplemented.  If it returns\nNotImplemented, the normal algorithm is used.  Otherwise, it\noverrides the normal algorithm (and the outcome is cached).\n'
p159
sg2
I01
sg8
I2
sg9
g41
sa(dp160
g2
I01
sg8
I5
sg9
g73
sa(dp161
g2
I01
sg8
I5
sg9
g43
sa(dp162
g2
I01
sg8
I5
sg9
S'_fields'
p163
sasg8
I3
sg9
S'Assign'
p164
sa(dp165
g1
Nsg2
I01
sg3
(lp166
(dp167
g2
I01
sg8
I5
sg9
g10
sa(dp168
g2
I01
sg8
I5
sg9
g51
sa(dp169
g2
I01
sg8
I5
sg9
g12
sa(dp170
g1
S'default object formatter'
p171
sg2
I01
sg8
I2
sg9
g15
sa(dp172
g2
I01
sg8
I5
sg9
g17
sa(dp173
g2
I01
sg8
I5
sg9
g19
sa(dp174
g2
I01
sg8
I5
sg9
g21
sa(dp175
g2
I01
sg8
I5
sg9
S'__module__'
p176
sa(dp177
g1
S'T.__new__(S, ...) -> a new object with type S, a subtype of T'
p178
sg2
I01
sg8
I2
sg9
g24
sa(dp179
g1
Nsg2
I01
sg8
I2
sg9
g26
sa(dp180
g1
S'helper for pickle'
p181
sg2
I01
sg8
I2
sg9
g29
sa(dp182
g2
I01
sg8
I5
sg9
g31
sa(dp183
g2
I01
sg8
I5
sg9
g33
sa(dp184
g1
S'__sizeof__() -> int\nsize of object in memory, in bytes'
p185
sg2
I01
sg8
I2
sg9
g36
sa(dp186
g2
I01
sg8
I5
sg9
g38
sa(dp187
g1
S'Abstract classes can override this to customize issubclass().\n\nThis is invoked early on by abc.ABCMeta.__subclasscheck__().\nIt should return True, False or NotImplemented.  If it returns\nNotImplemented, the normal algorithm is used.  Otherwise, it\noverrides the normal algorithm (and the outcome is cached).\n'
p188
sg2
I01
sg8
I2
sg9
g41
sa(dp189
g2
I01
sg8
I5
sg9
g73
sa(dp190
g2
I01
sg8
I5
sg9
g43
sa(dp191
g2
I01
sg8
I5
sg9
S'_fields'
p192
sasg8
I3
sg9
S'Attribute'
p193
sa(dp194
g1
Nsg2
I01
sg3
(lp195
(dp196
g2
I01
sg8
I5
sg9
g10
sa(dp197
g2
I01
sg8
I5
sg9
g51
sa(dp198
g2
I01
sg8
I5
sg9
g12
sa(dp199
g1
S'default object formatter'
p200
sg2
I01
sg8
I2
sg9
g15
sa(dp201
g2
I01
sg8
I5
sg9
g17
sa(dp202
g2
I01
sg8
I5
sg9
g19
sa(dp203
g2
I01
sg8
I5
sg9
g21
sa(dp204
g2
I01
sg8
I5
sg9
S'__module__'
p205
sa(dp206
g1
S'T.__new__(S, ...) -> a new object with type S, a subtype of T'
p207
sg2
I01
sg8
I2
sg9
g24
sa(dp208
g1
Nsg2
I01
sg8
I2
sg9
g26
sa(dp209
g1
S'helper for pickle'
p210
sg2
I01
sg8
I2
sg9
g29
sa(dp211
g2
I01
sg8
I5
sg9
g31
sa(dp212
g2
I01
sg8
I5
sg9
g33
sa(dp213
g1
S'__sizeof__() -> int\nsize of object in memory, in bytes'
p214
sg2
I01
sg8
I2
sg9
g36
sa(dp215
g2
I01
sg8
I5
sg9
g38
sa(dp216
g1
S'Abstract classes can override this to customize issubclass().\n\nThis is invoked early on by abc.ABCMeta.__subclasscheck__().\nIt should return True, False or NotImplemented.  If it returns\nNotImplemented, the normal algorithm is used.  Otherwise, it\noverrides the normal algorithm (and the outcome is cached).\n'
p217
sg2
I01
sg8
I2
sg9
g41
sa(dp218
g2
I01
sg8
I5
sg9
g73
sa(dp219
g2
I01
sg8
I5
sg9
g43
sa(dp220
g2
I01
sg8
I5
sg9
S'_fields'
p221
sasg8
I3
sg9
S'AugAssign'
p222
sa(dp223
g1
Nsg2
I01
sg3
(lp224
(dp225
g2
I01
sg8
I5
sg9
g10
sa(dp226
g2
I01
sg8
I5
sg9
g51
sa(dp227
g2
I01
sg8
I5
sg9
g12
sa(dp228
g1
S'default object formatter'
p229
sg2
I01
sg8
I2
sg9
g15
sa(dp230
g2
I01
sg8
I5
sg9
g17
sa(dp231
g2
I01
sg8
I5
sg9
g19
sa(dp232
g2
I01
sg8
I5
sg9
g21
sa(dp233
g2
I01
sg8
I5
sg9
S'__module__'
p234
sa(dp235
g1
S'T.__new__(S, ...) -> a new object with type S, a subtype of T'
p236
sg2
I01
sg8
I2
sg9
g24
sa(dp237
g1
Nsg2
I01
sg8
I2
sg9
g26
sa(dp238
g1
S'helper for pickle'
p239
sg2
I01
sg8
I2
sg9
g29
sa(dp240
g2
I01
sg8
I5
sg9
g31
sa(dp241
g2
I01
sg8
I5
sg9
g33
sa(dp242
g1
S'__sizeof__() -> int\nsize of object in memory, in bytes'
p243
sg2
I01
sg8
I2
sg9
g36
sa(dp244
g2
I01
sg8
I5
sg9
g38
sa(dp245
g1
S'Abstract classes can override this to customize issubclass().\n\nThis is invoked early on by abc.ABCMeta.__subclasscheck__().\nIt should return True, False or NotImplemented.  If it returns\nNotImplemented, the normal algorithm is used.  Otherwise, it\noverrides the normal algorithm (and the outcome is cached).\n'
p246
sg2
I01
sg8
I2
sg9
g41
sa(dp247
g2
I01
sg8
I5
sg9
g73
sa(dp248
g2
I01
sg8
I5
sg9
g43
sa(dp249
g2
I01
sg8
I5
sg9
S'_fields'
p250
sasg8
I3
sg9
S'AugLoad'
p251
sa(dp252
g1
Nsg2
I01
sg3
(lp253
(dp254
g2
I01
sg8
I5
sg9
g10
sa(dp255
g2
I01
sg8
I5
sg9
g51
sa(dp256
g2
I01
sg8
I5
sg9
g12
sa(dp257
g1
S'default object formatter'
p258
sg2
I01
sg8
I2
sg9
g15
sa(dp259
g2
I01
sg8
I5
sg9
g17
sa(dp260
g2
I01
sg8
I5
sg9
g19
sa(dp261
g2
I01
sg8
I5
sg9
g21
sa(dp262
g2
I01
sg8
I5
sg9
S'__module__'
p263
sa(dp264
g1
S'T.__new__(S, ...) -> a new object with type S, a subtype of T'
p265
sg2
I01
sg8
I2
sg9
g24
sa(dp266
g1
Nsg2
I01
sg8
I2
sg9
g26
sa(dp267
g1
S'helper for pickle'
p268
sg2
I01
sg8
I2
sg9
g29
sa(dp269
g2
I01
sg8
I5
sg9
g31
sa(dp270
g2
I01
sg8
I5
sg9
g33
sa(dp271
g1
S'__sizeof__() -> int\nsize of object in memory, in bytes'
p272
sg2
I01
sg8
I2
sg9
g36
sa(dp273
g2
I01
sg8
I5
sg9
g38
sa(dp274
g1
S'Abstract classes can override this to customize issubclass().\n\nThis is invoked early on by abc.ABCMeta.__subclasscheck__().\nIt should return True, False or NotImplemented.  If it returns\nNotImplemented, the normal algorithm is used.  Otherwise, it\noverrides the normal algorithm (and the outcome is cached).\n'
p275
sg2
I01
sg8
I2
sg9
g41
sa(dp276
g2
I01
sg8
I5
sg9
g73
sa(dp277
g2
I01
sg8
I5
sg9
g43
sa(dp278
g2
I01
sg8
I5
sg9
S'_fields'
p279
sasg8
I3
sg9
S'AugStore'
p280
sa(dp281
g1
Nsg2
I01
sg3
(lp282
(dp283
g2
I01
sg8
I5
sg9
g10
sa(dp284
g2
I01
sg8
I5
sg9
g51
sa(dp285
g2
I01
sg8
I5
sg9
g12
sa(dp286
g1
S'default object formatter'
p287
sg2
I01
sg8
I2
sg9
g15
sa(dp288
g2
I01
sg8
I5
sg9
g17
sa(dp289
g2
I01
sg8
I5
sg9
g19
sa(dp290
g2
I01
sg8
I5
sg9
g21
sa(dp291
g2
I01
sg8
I5
sg9
S'__module__'
p292
sa(dp293
g1
S'T.__new__(S, ...) -> a new object with type S, a subtype of T'
p294
sg2
I01
sg8
I2
sg9
g24
sa(dp295
g1
Nsg2
I01
sg8
I2
sg9
g26
sa(dp296
g1
S'helper for pickle'
p297
sg2
I01
sg8
I2
sg9
g29
sa(dp298
g2
I01
sg8
I5
sg9
g31
sa(dp299
g2
I01
sg8
I5
sg9
g33
sa(dp300
g1
S'__sizeof__() -> int\nsize of object in memory, in bytes'
p301
sg2
I01
sg8
I2
sg9
g36
sa(dp302
g2
I01
sg8
I5
sg9
g38
sa(dp303
g1
S'Abstract classes can override this to customize issubclass().\n\nThis is invoked early on by abc.ABCMeta.__subclasscheck__().\nIt should return True, False or NotImplemented.  If it returns\nNotImplemented, the normal algorithm is used.  Otherwise, it\noverrides the normal algorithm (and the outcome is cached).\n'
p304
sg2
I01
sg8
I2
sg9
g41
sa(dp305
g2
I01
sg8
I5
sg9
g73
sa(dp306
g2
I01
sg8
I5
sg9
g43
sa(dp307
g2
I01
sg8
I5
sg9
S'_fields'
p308
sasg8
I3
sg9
S'BinOp'
p309
sa(dp310
g1
Nsg2
I01
sg3
(lp311
(dp312
g2
I01
sg8
I5
sg9
g10
sa(dp313
g2
I01
sg8
I5
sg9
g51
sa(dp314
g2
I01
sg8
I5
sg9
g12
sa(dp315
g1
S'default object formatter'
p316
sg2
I01
sg8
I2
sg9
g15
sa(dp317
g2
I01
sg8
I5
sg9
g17
sa(dp318
g2
I01
sg8
I5
sg9
g19
sa(dp319
g2
I01
sg8
I5
sg9
g21
sa(dp320
g2
I01
sg8
I5
sg9
S'__module__'
p321
sa(dp322
g1
S'T.__new__(S, ...) -> a new object with type S, a subtype of T'
p323
sg2
I01
sg8
I2
sg9
g24
sa(dp324
g1
Nsg2
I01
sg8
I2
sg9
g26
sa(dp325
g1
S'helper for pickle'
p326
sg2
I01
sg8
I2
sg9
g29
sa(dp327
g2
I01
sg8
I5
sg9
g31
sa(dp328
g2
I01
sg8
I5
sg9
g33
sa(dp329
g1
S'__sizeof__() -> int\nsize of object in memory, in bytes'
p330
sg2
I01
sg8
I2
sg9
g36
sa(dp331
g2
I01
sg8
I5
sg9
g38
sa(dp332
g1
S'Abstract classes can override this to customize issubclass().\n\nThis is invoked early on by abc.ABCMeta.__subclasscheck__().\nIt should return True, False or NotImplemented.  If it returns\nNotImplemented, the normal algorithm is used.  Otherwise, it\noverrides the normal algorithm (and the outcome is cached).\n'
p333
sg2
I01
sg8
I2
sg9
g41
sa(dp334
g2
I01
sg8
I5
sg9
g73
sa(dp335
g2
I01
sg8
I5
sg9
g43
sa(dp336
g2
I01
sg8
I5
sg9
S'_fields'
p337
sasg8
I3
sg9
S'BitAnd'
p338
sa(dp339
g1
Nsg2
I01
sg3
(lp340
(dp341
g2
I01
sg8
I5
sg9
g10
sa(dp342
g2
I01
sg8
I5
sg9
g51
sa(dp343
g2
I01
sg8
I5
sg9
g12
sa(dp344
g1
S'default object formatter'
p345
sg2
I01
sg8
I2
sg9
g15
sa(dp346
g2
I01
sg8
I5
sg9
g17
sa(dp347
g2
I01
sg8
I5
sg9
g19
sa(dp348
g2
I01
sg8
I5
sg9
g21
sa(dp349
g2
I01
sg8
I5
sg9
S'__module__'
p350
sa(dp351
g1
S'T.__new__(S, ...) -> a new object with type S, a subtype of T'
p352
sg2
I01
sg8
I2
sg9
g24
sa(dp353
g1
Nsg2
I01
sg8
I2
sg9
g26
sa(dp354
g1
S'helper for pickle'
p355
sg2
I01
sg8
I2
sg9
g29
sa(dp356
g2
I01
sg8
I5
sg9
g31
sa(dp357
g2
I01
sg8
I5
sg9
g33
sa(dp358
g1
S'__sizeof__() -> int\nsize of object in memory, in bytes'
p359
sg2
I01
sg8
I2
sg9
g36
sa(dp360
g2
I01
sg8
I5
sg9
g38
sa(dp361
g1
S'Abstract classes can override this to customize issubclass().\n\nThis is invoked early on by abc.ABCMeta.__subclasscheck__().\nIt should return True, False or NotImplemented.  If it returns\nNotImplemented, the normal algorithm is used.  Otherwise, it\noverrides the normal algorithm (and the outcome is cached).\n'
p362
sg2
I01
sg8
I2
sg9
g41
sa(dp363
g2
I01
sg8
I5
sg9
g73
sa(dp364
g2
I01
sg8
I5
sg9
g43
sa(dp365
g2
I01
sg8
I5
sg9
S'_fields'
p366
sasg8
I3
sg9
S'BitOr'
p367
sa(dp368
g1
Nsg2
I01
sg3
(lp369
(dp370
g2
I01
sg8
I5
sg9
g10
sa(dp371
g2
I01
sg8
I5
sg9
g51
sa(dp372
g2
I01
sg8
I5
sg9
g12
sa(dp373
g1
S'default object formatter'
p374
sg2
I01
sg8
I2
sg9
g15
sa(dp375
g2
I01
sg8
I5
sg9
g17
sa(dp376
g2
I01
sg8
I5
sg9
g19
sa(dp377
g2
I01
sg8
I5
sg9
g21
sa(dp378
g2
I01
sg8
I5
sg9
S'__module__'
p379
sa(dp380
g1
S'T.__new__(S, ...) -> a new object with type S, a subtype of T'
p381
sg2
I01
sg8
I2
sg9
g24
sa(dp382
g1
Nsg2
I01
sg8
I2
sg9
g26
sa(dp383
g1
S'helper for pickle'
p384
sg2
I01
sg8
I2
sg9
g29
sa(dp385
g2
I01
sg8
I5
sg9
g31
sa(dp386
g2
I01
sg8
I5
sg9
g33
sa(dp387
g1
S'__sizeof__() -> int\nsize of object in memory, in bytes'
p388
sg2
I01
sg8
I2
sg9
g36
sa(dp389
g2
I01
sg8
I5
sg9
g38
sa(dp390
g1
S'Abstract classes can override this to customize issubclass().\n\nThis is invoked early on by abc.ABCMeta.__subclasscheck__().\nIt should return True, False or NotImplemented.  If it returns\nNotImplemented, the normal algorithm is used.  Otherwise, it\noverrides the normal algorithm (and the outcome is cached).\n'
p391
sg2
I01
sg8
I2
sg9
g41
sa(dp392
g2
I01
sg8
I5
sg9
g73
sa(dp393
g2
I01
sg8
I5
sg9
g43
sa(dp394
g2
I01
sg8
I5
sg9
S'_fields'
p395
sasg8
I3
sg9
S'BitXor'
p396
sa(dp397
g1
Nsg2
I01
sg3
(lp398
(dp399
g2
I01
sg8
I5
sg9
g10
sa(dp400
g2
I01
sg8
I5
sg9
g51
sa(dp401
g2
I01
sg8
I5
sg9
g12
sa(dp402
g1
S'default object formatter'
p403
sg2
I01
sg8
I2
sg9
g15
sa(dp404
g2
I01
sg8
I5
sg9
g17
sa(dp405
g2
I01
sg8
I5
sg9
g19
sa(dp406
g2
I01
sg8
I5
sg9
g21
sa(dp407
g2
I01
sg8
I5
sg9
S'__module__'
p408
sa(dp409
g1
S'T.__new__(S, ...) -> a new object with type S, a subtype of T'
p410
sg2
I01
sg8
I2
sg9
g24
sa(dp411
g1
Nsg2
I01
sg8
I2
sg9
g26
sa(dp412
g1
S'helper for pickle'
p413
sg2
I01
sg8
I2
sg9
g29
sa(dp414
g2
I01
sg8
I5
sg9
g31
sa(dp415
g2
I01
sg8
I5
sg9
g33
sa(dp416
g1
S'__sizeof__() -> int\nsize of object in memory, in bytes'
p417
sg2
I01
sg8
I2
sg9
g36
sa(dp418
g2
I01
sg8
I5
sg9
g38
sa(dp419
g1
S'Abstract classes can override this to customize issubclass().\n\nThis is invoked early on by abc.ABCMeta.__subclasscheck__().\nIt should return True, False or NotImplemented.  If it returns\nNotImplemented, the normal algorithm is used.  Otherwise, it\noverrides the normal algorithm (and the outcome is cached).\n'
p420
sg2
I01
sg8
I2
sg9
g41
sa(dp421
g2
I01
sg8
I5
sg9
g73
sa(dp422
g2
I01
sg8
I5
sg9
g43
sa(dp423
g2
I01
sg8
I5
sg9
S'_fields'
p424
sasg8
I3
sg9
S'BoolOp'
p425
sa(dp426
g1
Nsg2
I01
sg3
(lp427
(dp428
g2
I01
sg8
I5
sg9
g10
sa(dp429
g2
I01
sg8
I5
sg9
g51
sa(dp430
g2
I01
sg8
I5
sg9
g12
sa(dp431
g1
S'default object formatter'
p432
sg2
I01
sg8
I2
sg9
g15
sa(dp433
g2
I01
sg8
I5
sg9
g17
sa(dp434
g2
I01
sg8
I5
sg9
g19
sa(dp435
g2
I01
sg8
I5
sg9
g21
sa(dp436
g2
I01
sg8
I5
sg9
S'__module__'
p437
sa(dp438
g1
S'T.__new__(S, ...) -> a new object with type S, a subtype of T'
p439
sg2
I01
sg8
I2
sg9
g24
sa(dp440
g1
Nsg2
I01
sg8
I2
sg9
g26
sa(dp441
g1
S'helper for pickle'
p442
sg2
I01
sg8
I2
sg9
g29
sa(dp443
g2
I01
sg8
I5
sg9
g31
sa(dp444
g2
I01
sg8
I5
sg9
g33
sa(dp445
g1
S'__sizeof__() -> int\nsize of object in memory, in bytes'
p446
sg2
I01
sg8
I2
sg9
g36
sa(dp447
g2
I01
sg8
I5
sg9
g38
sa(dp448
g1
S'Abstract classes can override this to customize issubclass().\n\nThis is invoked early on by abc.ABCMeta.__subclasscheck__().\nIt should return True, False or NotImplemented.  If it returns\nNotImplemented, the normal algorithm is used.  Otherwise, it\noverrides the normal algorithm (and the outcome is cached).\n'
p449
sg2
I01
sg8
I2
sg9
g41
sa(dp450
g2
I01
sg8
I5
sg9
g73
sa(dp451
g2
I01
sg8
I5
sg9
g43
sa(dp452
g2
I01
sg8
I5
sg9
S'_fields'
p453
sasg8
I3
sg9
S'Break'
p454
sa(dp455
g1
Nsg2
I01
sg3
(lp456
(dp457
g2
I01
sg8
I5
sg9
g10
sa(dp458
g2
I01
sg8
I5
sg9
g51
sa(dp459
g2
I01
sg8
I5
sg9
g12
sa(dp460
g1
S'default object formatter'
p461
sg2
I01
sg8
I2
sg9
g15
sa(dp462
g2
I01
sg8
I5
sg9
g17
sa(dp463
g2
I01
sg8
I5
sg9
g19
sa(dp464
g2
I01
sg8
I5
sg9
g21
sa(dp465
g2
I01
sg8
I5
sg9
S'__module__'
p466
sa(dp467
g1
S'T.__new__(S, ...) -> a new object with type S, a subtype of T'
p468
sg2
I01
sg8
I2
sg9
g24
sa(dp469
g1
Nsg2
I01
sg8
I2
sg9
g26
sa(dp470
g1
S'helper for pickle'
p471
sg2
I01
sg8
I2
sg9
g29
sa(dp472
g2
I01
sg8
I5
sg9
g31
sa(dp473
g2
I01
sg8
I5
sg9
g33
sa(dp474
g1
S'__sizeof__() -> int\nsize of object in memory, in bytes'
p475
sg2
I01
sg8
I2
sg9
g36
sa(dp476
g2
I01
sg8
I5
sg9
g38
sa(dp477
g1
S'Abstract classes can override this to customize issubclass().\n\nThis is invoked early on by abc.ABCMeta.__subclasscheck__().\nIt should return True, False or NotImplemented.  If it returns\nNotImplemented, the normal algorithm is used.  Otherwise, it\noverrides the normal algorithm (and the outcome is cached).\n'
p478
sg2
I01
sg8
I2
sg9
g41
sa(dp479
g2
I01
sg8
I5
sg9
g73
sa(dp480
g2
I01
sg8
I5
sg9
g43
sa(dp481
g2
I01
sg8
I5
sg9
S'_fields'
p482
sasg8
I3
sg9
S'Call'
p483
sa(dp484
g1
Nsg2
I01
sg3
(lp485
(dp486
g2
I01
sg8
I5
sg9
g10
sa(dp487
g2
I01
sg8
I5
sg9
g51
sa(dp488
g2
I01
sg8
I5
sg9
g12
sa(dp489
g1
S'default object formatter'
p490
sg2
I01
sg8
I2
sg9
g15
sa(dp491
g2
I01
sg8
I5
sg9
g17
sa(dp492
g2
I01
sg8
I5
sg9
g19
sa(dp493
g2
I01
sg8
I5
sg9
g21
sa(dp494
g2
I01
sg8
I5
sg9
S'__module__'
p495
sa(dp496
g1
S'T.__new__(S, ...) -> a new object with type S, a subtype of T'
p497
sg2
I01
sg8
I2
sg9
g24
sa(dp498
g1
Nsg2
I01
sg8
I2
sg9
g26
sa(dp499
g1
S'helper for pickle'
p500
sg2
I01
sg8
I2
sg9
g29
sa(dp501
g2
I01
sg8
I5
sg9
g31
sa(dp502
g2
I01
sg8
I5
sg9
g33
sa(dp503
g1
S'__sizeof__() -> int\nsize of object in memory, in bytes'
p504
sg2
I01
sg8
I2
sg9
g36
sa(dp505
g2
I01
sg8
I5
sg9
g38
sa(dp506
g1
S'Abstract classes can override this to customize issubclass().\n\nThis is invoked early on by abc.ABCMeta.__subclasscheck__().\nIt should return True, False or NotImplemented.  If it returns\nNotImplemented, the normal algorithm is used.  Otherwise, it\noverrides the normal algorithm (and the outcome is cached).\n'
p507
sg2
I01
sg8
I2
sg9
g41
sa(dp508
g2
I01
sg8
I5
sg9
g73
sa(dp509
g2
I01
sg8
I5
sg9
g43
sa(dp510
g2
I01
sg8
I5
sg9
S'_fields'
p511
sasg8
I3
sg9
S'ClassDef'
p512
sa(dp513
g1
Nsg2
I01
sg3
(lp514
(dp515
g2
I01
sg8
I5
sg9
g10
sa(dp516
g2
I01
sg8
I5
sg9
g51
sa(dp517
g2
I01
sg8
I5
sg9
g12
sa(dp518
g1
S'default object formatter'
p519
sg2
I01
sg8
I2
sg9
g15
sa(dp520
g2
I01
sg8
I5
sg9
g17
sa(dp521
g2
I01
sg8
I5
sg9
g19
sa(dp522
g2
I01
sg8
I5
sg9
g21
sa(dp523
g2
I01
sg8
I5
sg9
S'__module__'
p524
sa(dp525
g1
S'T.__new__(S, ...) -> a new object with type S, a subtype of T'
p526
sg2
I01
sg8
I2
sg9
g24
sa(dp527
g1
Nsg2
I01
sg8
I2
sg9
g26
sa(dp528
g1
S'helper for pickle'
p529
sg2
I01
sg8
I2
sg9
g29
sa(dp530
g2
I01
sg8
I5
sg9
g31
sa(dp531
g2
I01
sg8
I5
sg9
g33
sa(dp532
g1
S'__sizeof__() -> int\nsize of object in memory, in bytes'
p533
sg2
I01
sg8
I2
sg9
g36
sa(dp534
g2
I01
sg8
I5
sg9
g38
sa(dp535
g1
S'Abstract classes can override this to customize issubclass().\n\nThis is invoked early on by abc.ABCMeta.__subclasscheck__().\nIt should return True, False or NotImplemented.  If it returns\nNotImplemented, the normal algorithm is used.  Otherwise, it\noverrides the normal algorithm (and the outcome is cached).\n'
p536
sg2
I01
sg8
I2
sg9
g41
sa(dp537
g2
I01
sg8
I5
sg9
g73
sa(dp538
g2
I01
sg8
I5
sg9
g43
sa(dp539
g2
I01
sg8
I5
sg9
S'_fields'
p540
sasg8
I3
sg9
S'Compare'
p541
sa(dp542
g1
Nsg2
I01
sg3
(lp543
(dp544
g2
I01
sg8
I5
sg9
g10
sa(dp545
g2
I01
sg8
I5
sg9
g51
sa(dp546
g2
I01
sg8
I5
sg9
g12
sa(dp547
g1
S'default object formatter'
p548
sg2
I01
sg8
I2
sg9
g15
sa(dp549
g2
I01
sg8
I5
sg9
g17
sa(dp550
g2
I01
sg8
I5
sg9
g19
sa(dp551
g2
I01
sg8
I5
sg9
g21
sa(dp552
g2
I01
sg8
I5
sg9
S'__module__'
p553
sa(dp554
g1
S'T.__new__(S, ...) -> a new object with type S, a subtype of T'
p555
sg2
I01
sg8
I2
sg9
g24
sa(dp556
g1
Nsg2
I01
sg8
I2
sg9
g26
sa(dp557
g1
S'helper for pickle'
p558
sg2
I01
sg8
I2
sg9
g29
sa(dp559
g2
I01
sg8
I5
sg9
g31
sa(dp560
g2
I01
sg8
I5
sg9
g33
sa(dp561
g1
S'__sizeof__() -> int\nsize of object in memory, in bytes'
p562
sg2
I01
sg8
I2
sg9
g36
sa(dp563
g2
I01
sg8
I5
sg9
g38
sa(dp564
g1
S'Abstract classes can override this to customize issubclass().\n\nThis is invoked early on by abc.ABCMeta.__subclasscheck__().\nIt should return True, False or NotImplemented.  If it returns\nNotImplemented, the normal algorithm is used.  Otherwise, it\noverrides the normal algorithm (and the outcome is cached).\n'
p565
sg2
I01
sg8
I2
sg9
g41
sa(dp566
g2
I01
sg8
I5
sg9
g73
sa(dp567
g2
I01
sg8
I5
sg9
g43
sa(dp568
g2
I01
sg8
I5
sg9
S'_fields'
p569
sasg8
I3
sg9
S'Continue'
p570
sa(dp571
g1
Nsg2
I01
sg3
(lp572
(dp573
g2
I01
sg8
I5
sg9
g10
sa(dp574
g2
I01
sg8
I5
sg9
g51
sa(dp575
g2
I01
sg8
I5
sg9
g12
sa(dp576
g1
S'default object formatter'
p577
sg2
I01
sg8
I2
sg9
g15
sa(dp578
g2
I01
sg8
I5
sg9
g17
sa(dp579
g2
I01
sg8
I5
sg9
g19
sa(dp580
g2
I01
sg8
I5
sg9
g21
sa(dp581
g2
I01
sg8
I5
sg9
S'__module__'
p582
sa(dp583
g1
S'T.__new__(S, ...) -> a new object with type S, a subtype of T'
p584
sg2
I01
sg8
I2
sg9
g24
sa(dp585
g1
Nsg2
I01
sg8
I2
sg9
g26
sa(dp586
g1
S'helper for pickle'
p587
sg2
I01
sg8
I2
sg9
g29
sa(dp588
g2
I01
sg8
I5
sg9
g31
sa(dp589
g2
I01
sg8
I5
sg9
g33
sa(dp590
g1
S'__sizeof__() -> int\nsize of object in memory, in bytes'
p591
sg2
I01
sg8
I2
sg9
g36
sa(dp592
g2
I01
sg8
I5
sg9
g38
sa(dp593
g1
S'Abstract classes can override this to customize issubclass().\n\nThis is invoked early on by abc.ABCMeta.__subclasscheck__().\nIt should return True, False or NotImplemented.  If it returns\nNotImplemented, the normal algorithm is used.  Otherwise, it\noverrides the normal algorithm (and the outcome is cached).\n'
p594
sg2
I01
sg8
I2
sg9
g41
sa(dp595
g2
I01
sg8
I5
sg9
g73
sa(dp596
g2
I01
sg8
I5
sg9
g43
sa(dp597
g2
I01
sg8
I5
sg9
S'_fields'
p598
sasg8
I3
sg9
S'Del'
p599
sa(dp600
g1
Nsg2
I01
sg3
(lp601
(dp602
g2
I01
sg8
I5
sg9
g10
sa(dp603
g2
I01
sg8
I5
sg9
g51
sa(dp604
g2
I01
sg8
I5
sg9
g12
sa(dp605
g1
S'default object formatter'
p606
sg2
I01
sg8
I2
sg9
g15
sa(dp607
g2
I01
sg8
I5
sg9
g17
sa(dp608
g2
I01
sg8
I5
sg9
g19
sa(dp609
g2
I01
sg8
I5
sg9
g21
sa(dp610
g2
I01
sg8
I5
sg9
S'__module__'
p611
sa(dp612
g1
S'T.__new__(S, ...) -> a new object with type S, a subtype of T'
p613
sg2
I01
sg8
I2
sg9
g24
sa(dp614
g1
Nsg2
I01
sg8
I2
sg9
g26
sa(dp615
g1
S'helper for pickle'
p616
sg2
I01
sg8
I2
sg9
g29
sa(dp617
g2
I01
sg8
I5
sg9
g31
sa(dp618
g2
I01
sg8
I5
sg9
g33
sa(dp619
g1
S'__sizeof__() -> int\nsize of object in memory, in bytes'
p620
sg2
I01
sg8
I2
sg9
g36
sa(dp621
g2
I01
sg8
I5
sg9
g38
sa(dp622
g1
S'Abstract classes can override this to customize issubclass().\n\nThis is invoked early on by abc.ABCMeta.__subclasscheck__().\nIt should return True, False or NotImplemented.  If it returns\nNotImplemented, the normal algorithm is used.  Otherwise, it\noverrides the normal algorithm (and the outcome is cached).\n'
p623
sg2
I01
sg8
I2
sg9
g41
sa(dp624
g2
I01
sg8
I5
sg9
g73
sa(dp625
g2
I01
sg8
I5
sg9
g43
sa(dp626
g2
I01
sg8
I5
sg9
S'_fields'
p627
sasg8
I3
sg9
S'Delete'
p628
sa(dp629
g1
Nsg2
I01
sg3
(lp630
(dp631
g2
I01
sg8
I5
sg9
g10
sa(dp632
g2
I01
sg8
I5
sg9
g51
sa(dp633
g2
I01
sg8
I5
sg9
g12
sa(dp634
g1
S'default object formatter'
p635
sg2
I01
sg8
I2
sg9
g15
sa(dp636
g2
I01
sg8
I5
sg9
g17
sa(dp637
g2
I01
sg8
I5
sg9
g19
sa(dp638
g2
I01
sg8
I5
sg9
g21
sa(dp639
g2
I01
sg8
I5
sg9
S'__module__'
p640
sa(dp641
g1
S'T.__new__(S, ...) -> a new object with type S, a subtype of T'
p642
sg2
I01
sg8
I2
sg9
g24
sa(dp643
g1
Nsg2
I01
sg8
I2
sg9
g26
sa(dp644
g1
S'helper for pickle'
p645
sg2
I01
sg8
I2
sg9
g29
sa(dp646
g2
I01
sg8
I5
sg9
g31
sa(dp647
g2
I01
sg8
I5
sg9
g33
sa(dp648
g1
S'__sizeof__() -> int\nsize of object in memory, in bytes'
p649
sg2
I01
sg8
I2
sg9
g36
sa(dp650
g2
I01
sg8
I5
sg9
g38
sa(dp651
g1
S'Abstract classes can override this to customize issubclass().\n\nThis is invoked early on by abc.ABCMeta.__subclasscheck__().\nIt should return True, False or NotImplemented.  If it returns\nNotImplemented, the normal algorithm is used.  Otherwise, it\noverrides the normal algorithm (and the outcome is cached).\n'
p652
sg2
I01
sg8
I2
sg9
g41
sa(dp653
g2
I01
sg8
I5
sg9
g73
sa(dp654
g2
I01
sg8
I5
sg9
g43
sa(dp655
g2
I01
sg8
I5
sg9
S'_fields'
p656
sasg8
I3
sg9
S'Dict'
p657
sa(dp658
g1
Nsg2
I01
sg3
(lp659
(dp660
g2
I01
sg8
I5
sg9
g10
sa(dp661
g2
I01
sg8
I5
sg9
g51
sa(dp662
g2
I01
sg8
I5
sg9
g12
sa(dp663
g1
S'default object formatter'
p664
sg2
I01
sg8
I2
sg9
g15
sa(dp665
g2
I01
sg8
I5
sg9
g17
sa(dp666
g2
I01
sg8
I5
sg9
g19
sa(dp667
g2
I01
sg8
I5
sg9
g21
sa(dp668
g2
I01
sg8
I5
sg9
S'__module__'
p669
sa(dp670
g1
S'T.__new__(S, ...) -> a new object with type S, a subtype of T'
p671
sg2
I01
sg8
I2
sg9
g24
sa(dp672
g1
Nsg2
I01
sg8
I2
sg9
g26
sa(dp673
g1
S'helper for pickle'
p674
sg2
I01
sg8
I2
sg9
g29
sa(dp675
g2
I01
sg8
I5
sg9
g31
sa(dp676
g2
I01
sg8
I5
sg9
g33
sa(dp677
g1
S'__sizeof__() -> int\nsize of object in memory, in bytes'
p678
sg2
I01
sg8
I2
sg9
g36
sa(dp679
g2
I01
sg8
I5
sg9
g38
sa(dp680
g1
S'Abstract classes can override this to customize issubclass().\n\nThis is invoked early on by abc.ABCMeta.__subclasscheck__().\nIt should return True, False or NotImplemented.  If it returns\nNotImplemented, the normal algorithm is used.  Otherwise, it\noverrides the normal algorithm (and the outcome is cached).\n'
p681
sg2
I01
sg8
I2
sg9
g41
sa(dp682
g2
I01
sg8
I5
sg9
g73
sa(dp683
g2
I01
sg8
I5
sg9
g43
sa(dp684
g2
I01
sg8
I5
sg9
S'_fields'
p685
sasg8
I3
sg9
S'DictComp'
p686
sa(dp687
g1
Nsg2
I01
sg3
(lp688
(dp689
g2
I01
sg8
I5
sg9
g10
sa(dp690
g2
I01
sg8
I5
sg9
g51
sa(dp691
g2
I01
sg8
I5
sg9
g12
sa(dp692
g1
S'default object formatter'
p693
sg2
I01
sg8
I2
sg9
g15
sa(dp694
g2
I01
sg8
I5
sg9
g17
sa(dp695
g2
I01
sg8
I5
sg9
g19
sa(dp696
g2
I01
sg8
I5
sg9
g21
sa(dp697
g2
I01
sg8
I5
sg9
S'__module__'
p698
sa(dp699
g1
S'T.__new__(S, ...) -> a new object with type S, a subtype of T'
p700
sg2
I01
sg8
I2
sg9
g24
sa(dp701
g1
Nsg2
I01
sg8
I2
sg9
g26
sa(dp702
g1
S'helper for pickle'
p703
sg2
I01
sg8
I2
sg9
g29
sa(dp704
g2
I01
sg8
I5
sg9
g31
sa(dp705
g2
I01
sg8
I5
sg9
g33
sa(dp706
g1
S'__sizeof__() -> int\nsize of object in memory, in bytes'
p707
sg2
I01
sg8
I2
sg9
g36
sa(dp708
g2
I01
sg8
I5
sg9
g38
sa(dp709
g1
S'Abstract classes can override this to customize issubclass().\n\nThis is invoked early on by abc.ABCMeta.__subclasscheck__().\nIt should return True, False or NotImplemented.  If it returns\nNotImplemented, the normal algorithm is used.  Otherwise, it\noverrides the normal algorithm (and the outcome is cached).\n'
p710
sg2
I01
sg8
I2
sg9
g41
sa(dp711
g2
I01
sg8
I5
sg9
g73
sa(dp712
g2
I01
sg8
I5
sg9
g43
sa(dp713
g2
I01
sg8
I5
sg9
S'_fields'
p714
sasg8
I3
sg9
S'Div'
p715
sa(dp716
g1
Nsg2
I01
sg3
(lp717
(dp718
g2
I01
sg8
I5
sg9
g10
sa(dp719
g2
I01
sg8
I5
sg9
g51
sa(dp720
g2
I01
sg8
I5
sg9
g12
sa(dp721
g1
S'default object formatter'
p722
sg2
I01
sg8
I2
sg9
g15
sa(dp723
g2
I01
sg8
I5
sg9
g17
sa(dp724
g2
I01
sg8
I5
sg9
g19
sa(dp725
g2
I01
sg8
I5
sg9
g21
sa(dp726
g2
I01
sg8
I5
sg9
S'__module__'
p727
sa(dp728
g1
S'T.__new__(S, ...) -> a new object with type S, a subtype of T'
p729
sg2
I01
sg8
I2
sg9
g24
sa(dp730
g1
Nsg2
I01
sg8
I2
sg9
g26
sa(dp731
g1
S'helper for pickle'
p732
sg2
I01
sg8
I2
sg9
g29
sa(dp733
g2
I01
sg8
I5
sg9
g31
sa(dp734
g2
I01
sg8
I5
sg9
g33
sa(dp735
g1
S'__sizeof__() -> int\nsize of object in memory, in bytes'
p736
sg2
I01
sg8
I2
sg9
g36
sa(dp737
g2
I01
sg8
I5
sg9
g38
sa(dp738
g1
S'Abstract classes can override this to customize issubclass().\n\nThis is invoked early on by abc.ABCMeta.__subclasscheck__().\nIt should return True, False or NotImplemented.  If it returns\nNotImplemented, the normal algorithm is used.  Otherwise, it\noverrides the normal algorithm (and the outcome is cached).\n'
p739
sg2
I01
sg8
I2
sg9
g41
sa(dp740
g2
I01
sg8
I5
sg9
g73
sa(dp741
g2
I01
sg8
I5
sg9
g43
sa(dp742
g2
I01
sg8
I5
sg9
S'_fields'
p743
sasg8
I3
sg9
S'Ellipsis'
p744
sa(dp745
g1
Nsg2
I01
sg3
(lp746
(dp747
g2
I01
sg8
I5
sg9
g10
sa(dp748
g2
I01
sg8
I5
sg9
g51
sa(dp749
g2
I01
sg8
I5
sg9
g12
sa(dp750
g1
S'default object formatter'
p751
sg2
I01
sg8
I2
sg9
g15
sa(dp752
g2
I01
sg8
I5
sg9
g17
sa(dp753
g2
I01
sg8
I5
sg9
g19
sa(dp754
g2
I01
sg8
I5
sg9
g21
sa(dp755
g2
I01
sg8
I5
sg9
S'__module__'
p756
sa(dp757
g1
S'T.__new__(S, ...) -> a new object with type S, a subtype of T'
p758
sg2
I01
sg8
I2
sg9
g24
sa(dp759
g1
Nsg2
I01
sg8
I2
sg9
g26
sa(dp760
g1
S'helper for pickle'
p761
sg2
I01
sg8
I2
sg9
g29
sa(dp762
g2
I01
sg8
I5
sg9
g31
sa(dp763
g2
I01
sg8
I5
sg9
g33
sa(dp764
g1
S'__sizeof__() -> int\nsize of object in memory, in bytes'
p765
sg2
I01
sg8
I2
sg9
g36
sa(dp766
g2
I01
sg8
I5
sg9
g38
sa(dp767
g1
S'Abstract classes can override this to customize issubclass().\n\nThis is invoked early on by abc.ABCMeta.__subclasscheck__().\nIt should return True, False or NotImplemented.  If it returns\nNotImplemented, the normal algorithm is used.  Otherwise, it\noverrides the normal algorithm (and the outcome is cached).\n'
p768
sg2
I01
sg8
I2
sg9
g41
sa(dp769
g2
I01
sg8
I5
sg9
g73
sa(dp770
g2
I01
sg8
I5
sg9
g43
sa(dp771
g2
I01
sg8
I5
sg9
S'_fields'
p772
sasg8
I3
sg9
S'Eq'
p773
sa(dp774
g1
Nsg2
I01
sg3
(lp775
(dp776
g2
I01
sg8
I5
sg9
g10
sa(dp777
g2
I01
sg8
I5
sg9
g51
sa(dp778
g2
I01
sg8
I5
sg9
g12
sa(dp779
g1
S'default object formatter'
p780
sg2
I01
sg8
I2
sg9
g15
sa(dp781
g2
I01
sg8
I5
sg9
g17
sa(dp782
g2
I01
sg8
I5
sg9
g19
sa(dp783
g2
I01
sg8
I5
sg9
g21
sa(dp784
g2
I01
sg8
I5
sg9
S'__module__'
p785
sa(dp786
g1
S'T.__new__(S, ...) -> a new object with type S, a subtype of T'
p787
sg2
I01
sg8
I2
sg9
g24
sa(dp788
g1
Nsg2
I01
sg8
I2
sg9
g26
sa(dp789
g1
S'helper for pickle'
p790
sg2
I01
sg8
I2
sg9
g29
sa(dp791
g2
I01
sg8
I5
sg9
g31
sa(dp792
g2
I01
sg8
I5
sg9
g33
sa(dp793
g1
S'__sizeof__() -> int\nsize of object in memory, in bytes'
p794
sg2
I01
sg8
I2
sg9
g36
sa(dp795
g2
I01
sg8
I5
sg9
g38
sa(dp796
g1
S'Abstract classes can override this to customize issubclass().\n\nThis is invoked early on by abc.ABCMeta.__subclasscheck__().\nIt should return True, False or NotImplemented.  If it returns\nNotImplemented, the normal algorithm is used.  Otherwise, it\noverrides the normal algorithm (and the outcome is cached).\n'
p797
sg2
I01
sg8
I2
sg9
g41
sa(dp798
g2
I01
sg8
I5
sg9
g73
sa(dp799
g2
I01
sg8
I5
sg9
g43
sa(dp800
g2
I01
sg8
I5
sg9
S'_fields'
p801
sasg8
I3
sg9
S'ExceptHandler'
p802
sa(dp803
g1
Nsg2
I01
sg3
(lp804
(dp805
g2
I01
sg8
I5
sg9
g10
sa(dp806
g2
I01
sg8
I5
sg9
g51
sa(dp807
g2
I01
sg8
I5
sg9
g12
sa(dp808
g1
S'default object formatter'
p809
sg2
I01
sg8
I2
sg9
g15
sa(dp810
g2
I01
sg8
I5
sg9
g17
sa(dp811
g2
I01
sg8
I5
sg9
g19
sa(dp812
g2
I01
sg8
I5
sg9
g21
sa(dp813
g2
I01
sg8
I5
sg9
S'__module__'
p814
sa(dp815
g1
S'T.__new__(S, ...) -> a new object with type S, a subtype of T'
p816
sg2
I01
sg8
I2
sg9
g24
sa(dp817
g1
Nsg2
I01
sg8
I2
sg9
g26
sa(dp818
g1
S'helper for pickle'
p819
sg2
I01
sg8
I2
sg9
g29
sa(dp820
g2
I01
sg8
I5
sg9
g31
sa(dp821
g2
I01
sg8
I5
sg9
g33
sa(dp822
g1
S'__sizeof__() -> int\nsize of object in memory, in bytes'
p823
sg2
I01
sg8
I2
sg9
g36
sa(dp824
g2
I01
sg8
I5
sg9
g38
sa(dp825
g1
S'Abstract classes can override this to customize issubclass().\n\nThis is invoked early on by abc.ABCMeta.__subclasscheck__().\nIt should return True, False or NotImplemented.  If it returns\nNotImplemented, the normal algorithm is used.  Otherwise, it\noverrides the normal algorithm (and the outcome is cached).\n'
p826
sg2
I01
sg8
I2
sg9
g41
sa(dp827
g2
I01
sg8
I5
sg9
g73
sa(dp828
g2
I01
sg8
I5
sg9
g43
sa(dp829
g2
I01
sg8
I5
sg9
S'_fields'
p830
sasg8
I3
sg9
S'Exec'
p831
sa(dp832
g1
Nsg2
I01
sg3
(lp833
(dp834
g2
I01
sg8
I5
sg9
g10
sa(dp835
g2
I01
sg8
I5
sg9
g51
sa(dp836
g2
I01
sg8
I5
sg9
g12
sa(dp837
g1
S'default object formatter'
p838
sg2
I01
sg8
I2
sg9
g15
sa(dp839
g2
I01
sg8
I5
sg9
g17
sa(dp840
g2
I01
sg8
I5
sg9
g19
sa(dp841
g2
I01
sg8
I5
sg9
g21
sa(dp842
g2
I01
sg8
I5
sg9
S'__module__'
p843
sa(dp844
g1
S'T.__new__(S, ...) -> a new object with type S, a subtype of T'
p845
sg2
I01
sg8
I2
sg9
g24
sa(dp846
g1
Nsg2
I01
sg8
I2
sg9
g26
sa(dp847
g1
S'helper for pickle'
p848
sg2
I01
sg8
I2
sg9
g29
sa(dp849
g2
I01
sg8
I5
sg9
g31
sa(dp850
g2
I01
sg8
I5
sg9
g33
sa(dp851
g1
S'__sizeof__() -> int\nsize of object in memory, in bytes'
p852
sg2
I01
sg8
I2
sg9
g36
sa(dp853
g2
I01
sg8
I5
sg9
g38
sa(dp854
g1
S'Abstract classes can override this to customize issubclass().\n\nThis is invoked early on by abc.ABCMeta.__subclasscheck__().\nIt should return True, False or NotImplemented.  If it returns\nNotImplemented, the normal algorithm is used.  Otherwise, it\noverrides the normal algorithm (and the outcome is cached).\n'
p855
sg2
I01
sg8
I2
sg9
g41
sa(dp856
g2
I01
sg8
I5
sg9
g73
sa(dp857
g2
I01
sg8
I5
sg9
g43
sa(dp858
g2
I01
sg8
I5
sg9
S'_fields'
p859
sasg8
I3
sg9
S'Expr'
p860
sa(dp861
g1
Nsg2
I01
sg3
(lp862
(dp863
g2
I01
sg8
I5
sg9
g10
sa(dp864
g2
I01
sg8
I5
sg9
g51
sa(dp865
g2
I01
sg8
I5
sg9
g12
sa(dp866
g1
S'default object formatter'
p867
sg2
I01
sg8
I2
sg9
g15
sa(dp868
g2
I01
sg8
I5
sg9
g17
sa(dp869
g2
I01
sg8
I5
sg9
g19
sa(dp870
g2
I01
sg8
I5
sg9
g21
sa(dp871
g2
I01
sg8
I5
sg9
S'__module__'
p872
sa(dp873
g1
S'T.__new__(S, ...) -> a new object with type S, a subtype of T'
p874
sg2
I01
sg8
I2
sg9
g24
sa(dp875
g1
Nsg2
I01
sg8
I2
sg9
g26
sa(dp876
g1
S'helper for pickle'
p877
sg2
I01
sg8
I2
sg9
g29
sa(dp878
g2
I01
sg8
I5
sg9
g31
sa(dp879
g2
I01
sg8
I5
sg9
g33
sa(dp880
g1
S'__sizeof__() -> int\nsize of object in memory, in bytes'
p881
sg2
I01
sg8
I2
sg9
g36
sa(dp882
g2
I01
sg8
I5
sg9
g38
sa(dp883
g1
S'Abstract classes can override this to customize issubclass().\n\nThis is invoked early on by abc.ABCMeta.__subclasscheck__().\nIt should return True, False or NotImplemented.  If it returns\nNotImplemented, the normal algorithm is used.  Otherwise, it\noverrides the normal algorithm (and the outcome is cached).\n'
p884
sg2
I01
sg8
I2
sg9
g41
sa(dp885
g2
I01
sg8
I5
sg9
g73
sa(dp886
g2
I01
sg8
I5
sg9
g43
sa(dp887
g2
I01
sg8
I5
sg9
S'_fields'
p888
sasg8
I3
sg9
S'Expression'
p889
sa(dp890
g1
Nsg2
I01
sg3
(lp891
(dp892
g2
I01
sg8
I5
sg9
g10
sa(dp893
g2
I01
sg8
I5
sg9
g51
sa(dp894
g2
I01
sg8
I5
sg9
g12
sa(dp895
g1
S'default object formatter'
p896
sg2
I01
sg8
I2
sg9
g15
sa(dp897
g2
I01
sg8
I5
sg9
g17
sa(dp898
g2
I01
sg8
I5
sg9
g19
sa(dp899
g2
I01
sg8
I5
sg9
g21
sa(dp900
g2
I01
sg8
I5
sg9
S'__module__'
p901
sa(dp902
g1
S'T.__new__(S, ...) -> a new object with type S, a subtype of T'
p903
sg2
I01
sg8
I2
sg9
g24
sa(dp904
g1
Nsg2
I01
sg8
I2
sg9
g26
sa(dp905
g1
S'helper for pickle'
p906
sg2
I01
sg8
I2
sg9
g29
sa(dp907
g2
I01
sg8
I5
sg9
g31
sa(dp908
g2
I01
sg8
I5
sg9
g33
sa(dp909
g1
S'__sizeof__() -> int\nsize of object in memory, in bytes'
p910
sg2
I01
sg8
I2
sg9
g36
sa(dp911
g2
I01
sg8
I5
sg9
g38
sa(dp912
g1
S'Abstract classes can override this to customize issubclass().\n\nThis is invoked early on by abc.ABCMeta.__subclasscheck__().\nIt should return True, False or NotImplemented.  If it returns\nNotImplemented, the normal algorithm is used.  Otherwise, it\noverrides the normal algorithm (and the outcome is cached).\n'
p913
sg2
I01
sg8
I2
sg9
g41
sa(dp914
g2
I01
sg8
I5
sg9
g73
sa(dp915
g2
I01
sg8
I5
sg9
g43
sa(dp916
g2
I01
sg8
I5
sg9
S'_fields'
p917
sasg8
I3
sg9
S'ExtSlice'
p918
sa(dp919
g1
Nsg2
I01
sg3
(lp920
(dp921
g2
I01
sg8
I5
sg9
g10
sa(dp922
g2
I01
sg8
I5
sg9
g51
sa(dp923
g2
I01
sg8
I5
sg9
g12
sa(dp924
g1
S'default object formatter'
p925
sg2
I01
sg8
I2
sg9
g15
sa(dp926
g2
I01
sg8
I5
sg9
g17
sa(dp927
g2
I01
sg8
I5
sg9
g19
sa(dp928
g2
I01
sg8
I5
sg9
g21
sa(dp929
g2
I01
sg8
I5
sg9
S'__module__'
p930
sa(dp931
g1
S'T.__new__(S, ...) -> a new object with type S, a subtype of T'
p932
sg2
I01
sg8
I2
sg9
g24
sa(dp933
g1
Nsg2
I01
sg8
I2
sg9
g26
sa(dp934
g1
S'helper for pickle'
p935
sg2
I01
sg8
I2
sg9
g29
sa(dp936
g2
I01
sg8
I5
sg9
g31
sa(dp937
g2
I01
sg8
I5
sg9
g33
sa(dp938
g1
S'__sizeof__() -> int\nsize of object in memory, in bytes'
p939
sg2
I01
sg8
I2
sg9
g36
sa(dp940
g2
I01
sg8
I5
sg9
g38
sa(dp941
g1
S'Abstract classes can override this to customize issubclass().\n\nThis is invoked early on by abc.ABCMeta.__subclasscheck__().\nIt should return True, False or NotImplemented.  If it returns\nNotImplemented, the normal algorithm is used.  Otherwise, it\noverrides the normal algorithm (and the outcome is cached).\n'
p942
sg2
I01
sg8
I2
sg9
g41
sa(dp943
g2
I01
sg8
I5
sg9
g73
sa(dp944
g2
I01
sg8
I5
sg9
g43
sa(dp945
g2
I01
sg8
I5
sg9
S'_fields'
p946
sasg8
I3
sg9
S'FloorDiv'
p947
sa(dp948
g1
Nsg2
I01
sg3
(lp949
(dp950
g2
I01
sg8
I5
sg9
g10
sa(dp951
g2
I01
sg8
I5
sg9
g51
sa(dp952
g2
I01
sg8
I5
sg9
g12
sa(dp953
g1
S'default object formatter'
p954
sg2
I01
sg8
I2
sg9
g15
sa(dp955
g2
I01
sg8
I5
sg9
g17
sa(dp956
g2
I01
sg8
I5
sg9
g19
sa(dp957
g2
I01
sg8
I5
sg9
g21
sa(dp958
g2
I01
sg8
I5
sg9
S'__module__'
p959
sa(dp960
g1
S'T.__new__(S, ...) -> a new object with type S, a subtype of T'
p961
sg2
I01
sg8
I2
sg9
g24
sa(dp962
g1
Nsg2
I01
sg8
I2
sg9
g26
sa(dp963
g1
S'helper for pickle'
p964
sg2
I01
sg8
I2
sg9
g29
sa(dp965
g2
I01
sg8
I5
sg9
g31
sa(dp966
g2
I01
sg8
I5
sg9
g33
sa(dp967
g1
S'__sizeof__() -> int\nsize of object in memory, in bytes'
p968
sg2
I01
sg8
I2
sg9
g36
sa(dp969
g2
I01
sg8
I5
sg9
g38
sa(dp970
g1
S'Abstract classes can override this to customize issubclass().\n\nThis is invoked early on by abc.ABCMeta.__subclasscheck__().\nIt should return True, False or NotImplemented.  If it returns\nNotImplemented, the normal algorithm is used.  Otherwise, it\noverrides the normal algorithm (and the outcome is cached).\n'
p971
sg2
I01
sg8
I2
sg9
g41
sa(dp972
g2
I01
sg8
I5
sg9
g73
sa(dp973
g2
I01
sg8
I5
sg9
g43
sa(dp974
g2
I01
sg8
I5
sg9
S'_fields'
p975
sasg8
I3
sg9
S'For'
p976
sa(dp977
g1
Nsg2
I01
sg3
(lp978
(dp979
g2
I01
sg8
I5
sg9
g10
sa(dp980
g2
I01
sg8
I5
sg9
g51
sa(dp981
g2
I01
sg8
I5
sg9
g12
sa(dp982
g1
S'default object formatter'
p983
sg2
I01
sg8
I2
sg9
g15
sa(dp984
g2
I01
sg8
I5
sg9
g17
sa(dp985
g2
I01
sg8
I5
sg9
g19
sa(dp986
g2
I01
sg8
I5
sg9
g21
sa(dp987
g2
I01
sg8
I5
sg9
S'__module__'
p988
sa(dp989
g1
S'T.__new__(S, ...) -> a new object with type S, a subtype of T'
p990
sg2
I01
sg8
I2
sg9
g24
sa(dp991
g1
Nsg2
I01
sg8
I2
sg9
g26
sa(dp992
g1
S'helper for pickle'
p993
sg2
I01
sg8
I2
sg9
g29
sa(dp994
g2
I01
sg8
I5
sg9
g31
sa(dp995
g2
I01
sg8
I5
sg9
g33
sa(dp996
g1
S'__sizeof__() -> int\nsize of object in memory, in bytes'
p997
sg2
I01
sg8
I2
sg9
g36
sa(dp998
g2
I01
sg8
I5
sg9
g38
sa(dp999
g1
S'Abstract classes can override this to customize issubclass().\n\nThis is invoked early on by abc.ABCMeta.__subclasscheck__().\nIt should return True, False or NotImplemented.  If it returns\nNotImplemented, the normal algorithm is used.  Otherwise, it\noverrides the normal algorithm (and the outcome is cached).\n'
p1000
sg2
I01
sg8
I2
sg9
g41
sa(dp1001
g2
I01
sg8
I5
sg9
g73
sa(dp1002
g2
I01
sg8
I5
sg9
g43
sa(dp1003
g2
I01
sg8
I5
sg9
S'_fields'
p1004
sasg8
I3
sg9
S'FunctionDef'
p1005
sa(dp1006
g1
Nsg2
I01
sg3
(lp1007
(dp1008
g2
I01
sg8
I5
sg9
g10
sa(dp1009
g2
I01
sg8
I5
sg9
g51
sa(dp1010
g2
I01
sg8
I5
sg9
g12
sa(dp1011
g1
S'default object formatter'
p1012
sg2
I01
sg8
I2
sg9
g15
sa(dp1013
g2
I01
sg8
I5
sg9
g17
sa(dp1014
g2
I01
sg8
I5
sg9
g19
sa(dp1015
g2
I01
sg8
I5
sg9
g21
sa(dp1016
g2
I01
sg8
I5
sg9
S'__module__'
p1017
sa(dp1018
g1
S'T.__new__(S, ...) -> a new object with type S, a subtype of T'
p1019
sg2
I01
sg8
I2
sg9
g24
sa(dp1020
g1
Nsg2
I01
sg8
I2
sg9
g26
sa(dp1021
g1
S'helper for pickle'
p1022
sg2
I01
sg8
I2
sg9
g29
sa(dp1023
g2
I01
sg8
I5
sg9
g31
sa(dp1024
g2
I01
sg8
I5
sg9
g33
sa(dp1025
g1
S'__sizeof__() -> int\nsize of object in memory, in bytes'
p1026
sg2
I01
sg8
I2
sg9
g36
sa(dp1027
g2
I01
sg8
I5
sg9
g38
sa(dp1028
g1
S'Abstract classes can override this to customize issubclass().\n\nThis is invoked early on by abc.ABCMeta.__subclasscheck__().\nIt should return True, False or NotImplemented.  If it returns\nNotImplemented, the normal algorithm is used.  Otherwise, it\noverrides the normal algorithm (and the outcome is cached).\n'
p1029
sg2
I01
sg8
I2
sg9
g41
sa(dp1030
g2
I01
sg8
I5
sg9
g73
sa(dp1031
g2
I01
sg8
I5
sg9
g43
sa(dp1032
g2
I01
sg8
I5
sg9
S'_fields'
p1033
sasg8
I3
sg9
S'GeneratorExp'
p1034
sa(dp1035
g1
Nsg2
I01
sg3
(lp1036
(dp1037
g2
I01
sg8
I5
sg9
g10
sa(dp1038
g2
I01
sg8
I5
sg9
g51
sa(dp1039
g2
I01
sg8
I5
sg9
g12
sa(dp1040
g1
S'default object formatter'
p1041
sg2
I01
sg8
I2
sg9
g15
sa(dp1042
g2
I01
sg8
I5
sg9
g17
sa(dp1043
g2
I01
sg8
I5
sg9
g19
sa(dp1044
g2
I01
sg8
I5
sg9
g21
sa(dp1045
g2
I01
sg8
I5
sg9
S'__module__'
p1046
sa(dp1047
g1
S'T.__new__(S, ...) -> a new object with type S, a subtype of T'
p1048
sg2
I01
sg8
I2
sg9
g24
sa(dp1049
g1
Nsg2
I01
sg8
I2
sg9
g26
sa(dp1050
g1
S'helper for pickle'
p1051
sg2
I01
sg8
I2
sg9
g29
sa(dp1052
g2
I01
sg8
I5
sg9
g31
sa(dp1053
g2
I01
sg8
I5
sg9
g33
sa(dp1054
g1
S'__sizeof__() -> int\nsize of object in memory, in bytes'
p1055
sg2
I01
sg8
I2
sg9
g36
sa(dp1056
g2
I01
sg8
I5
sg9
g38
sa(dp1057
g1
S'Abstract classes can override this to customize issubclass().\n\nThis is invoked early on by abc.ABCMeta.__subclasscheck__().\nIt should return True, False or NotImplemented.  If it returns\nNotImplemented, the normal algorithm is used.  Otherwise, it\noverrides the normal algorithm (and the outcome is cached).\n'
p1058
sg2
I01
sg8
I2
sg9
g41
sa(dp1059
g2
I01
sg8
I5
sg9
g73
sa(dp1060
g2
I01
sg8
I5
sg9
g43
sa(dp1061
g2
I01
sg8
I5
sg9
S'_fields'
p1062
sasg8
I3
sg9
S'Global'
p1063
sa(dp1064
g1
Nsg2
I01
sg3
(lp1065
(dp1066
g2
I01
sg8
I5
sg9
g10
sa(dp1067
g2
I01
sg8
I5
sg9
g51
sa(dp1068
g2
I01
sg8
I5
sg9
g12
sa(dp1069
g1
S'default object formatter'
p1070
sg2
I01
sg8
I2
sg9
g15
sa(dp1071
g2
I01
sg8
I5
sg9
g17
sa(dp1072
g2
I01
sg8
I5
sg9
g19
sa(dp1073
g2
I01
sg8
I5
sg9
g21
sa(dp1074
g2
I01
sg8
I5
sg9
S'__module__'
p1075
sa(dp1076
g1
S'T.__new__(S, ...) -> a new object with type S, a subtype of T'
p1077
sg2
I01
sg8
I2
sg9
g24
sa(dp1078
g1
Nsg2
I01
sg8
I2
sg9
g26
sa(dp1079
g1
S'helper for pickle'
p1080
sg2
I01
sg8
I2
sg9
g29
sa(dp1081
g2
I01
sg8
I5
sg9
g31
sa(dp1082
g2
I01
sg8
I5
sg9
g33
sa(dp1083
g1
S'__sizeof__() -> int\nsize of object in memory, in bytes'
p1084
sg2
I01
sg8
I2
sg9
g36
sa(dp1085
g2
I01
sg8
I5
sg9
g38
sa(dp1086
g1
S'Abstract classes can override this to customize issubclass().\n\nThis is invoked early on by abc.ABCMeta.__subclasscheck__().\nIt should return True, False or NotImplemented.  If it returns\nNotImplemented, the normal algorithm is used.  Otherwise, it\noverrides the normal algorithm (and the outcome is cached).\n'
p1087
sg2
I01
sg8
I2
sg9
g41
sa(dp1088
g2
I01
sg8
I5
sg9
g73
sa(dp1089
g2
I01
sg8
I5
sg9
g43
sa(dp1090
g2
I01
sg8
I5
sg9
S'_fields'
p1091
sasg8
I3
sg9
S'Gt'
p1092
sa(dp1093
g1
Nsg2
I01
sg3
(lp1094
(dp1095
g2
I01
sg8
I5
sg9
g10
sa(dp1096
g2
I01
sg8
I5
sg9
g51
sa(dp1097
g2
I01
sg8
I5
sg9
g12
sa(dp1098
g1
S'default object formatter'
p1099
sg2
I01
sg8
I2
sg9
g15
sa(dp1100
g2
I01
sg8
I5
sg9
g17
sa(dp1101
g2
I01
sg8
I5
sg9
g19
sa(dp1102
g2
I01
sg8
I5
sg9
g21
sa(dp1103
g2
I01
sg8
I5
sg9
S'__module__'
p1104
sa(dp1105
g1
S'T.__new__(S, ...) -> a new object with type S, a subtype of T'
p1106
sg2
I01
sg8
I2
sg9
g24
sa(dp1107
g1
Nsg2
I01
sg8
I2
sg9
g26
sa(dp1108
g1
S'helper for pickle'
p1109
sg2
I01
sg8
I2
sg9
g29
sa(dp1110
g2
I01
sg8
I5
sg9
g31
sa(dp1111
g2
I01
sg8
I5
sg9
g33
sa(dp1112
g1
S'__sizeof__() -> int\nsize of object in memory, in bytes'
p1113
sg2
I01
sg8
I2
sg9
g36
sa(dp1114
g2
I01
sg8
I5
sg9
g38
sa(dp1115
g1
S'Abstract classes can override this to customize issubclass().\n\nThis is invoked early on by abc.ABCMeta.__subclasscheck__().\nIt should return True, False or NotImplemented.  If it returns\nNotImplemented, the normal algorithm is used.  Otherwise, it\noverrides the normal algorithm (and the outcome is cached).\n'
p1116
sg2
I01
sg8
I2
sg9
g41
sa(dp1117
g2
I01
sg8
I5
sg9
g73
sa(dp1118
g2
I01
sg8
I5
sg9
g43
sa(dp1119
g2
I01
sg8
I5
sg9
S'_fields'
p1120
sasg8
I3
sg9
S'GtE'
p1121
sa(dp1122
g1
Nsg2
I01
sg3
(lp1123
(dp1124
g2
I01
sg8
I5
sg9
g10
sa(dp1125
g2
I01
sg8
I5
sg9
g51
sa(dp1126
g2
I01
sg8
I5
sg9
g12
sa(dp1127
g1
S'default object formatter'
p1128
sg2
I01
sg8
I2
sg9
g15
sa(dp1129
g2
I01
sg8
I5
sg9
g17
sa(dp1130
g2
I01
sg8
I5
sg9
g19
sa(dp1131
g2
I01
sg8
I5
sg9
g21
sa(dp1132
g2
I01
sg8
I5
sg9
S'__module__'
p1133
sa(dp1134
g1
S'T.__new__(S, ...) -> a new object with type S, a subtype of T'
p1135
sg2
I01
sg8
I2
sg9
g24
sa(dp1136
g1
Nsg2
I01
sg8
I2
sg9
g26
sa(dp1137
g1
S'helper for pickle'
p1138
sg2
I01
sg8
I2
sg9
g29
sa(dp1139
g2
I01
sg8
I5
sg9
g31
sa(dp1140
g2
I01
sg8
I5
sg9
g33
sa(dp1141
g1
S'__sizeof__() -> int\nsize of object in memory, in bytes'
p1142
sg2
I01
sg8
I2
sg9
g36
sa(dp1143
g2
I01
sg8
I5
sg9
g38
sa(dp1144
g1
S'Abstract classes can override this to customize issubclass().\n\nThis is invoked early on by abc.ABCMeta.__subclasscheck__().\nIt should return True, False or NotImplemented.  If it returns\nNotImplemented, the normal algorithm is used.  Otherwise, it\noverrides the normal algorithm (and the outcome is cached).\n'
p1145
sg2
I01
sg8
I2
sg9
g41
sa(dp1146
g2
I01
sg8
I5
sg9
g73
sa(dp1147
g2
I01
sg8
I5
sg9
g43
sa(dp1148
g2
I01
sg8
I5
sg9
S'_fields'
p1149
sasg8
I3
sg9
S'If'
p1150
sa(dp1151
g1
Nsg2
I01
sg3
(lp1152
(dp1153
g2
I01
sg8
I5
sg9
g10
sa(dp1154
g2
I01
sg8
I5
sg9
g51
sa(dp1155
g2
I01
sg8
I5
sg9
g12
sa(dp1156
g1
S'default object formatter'
p1157
sg2
I01
sg8
I2
sg9
g15
sa(dp1158
g2
I01
sg8
I5
sg9
g17
sa(dp1159
g2
I01
sg8
I5
sg9
g19
sa(dp1160
g2
I01
sg8
I5
sg9
g21
sa(dp1161
g2
I01
sg8
I5
sg9
S'__module__'
p1162
sa(dp1163
g1
S'T.__new__(S, ...) -> a new object with type S, a subtype of T'
p1164
sg2
I01
sg8
I2
sg9
g24
sa(dp1165
g1
Nsg2
I01
sg8
I2
sg9
g26
sa(dp1166
g1
S'helper for pickle'
p1167
sg2
I01
sg8
I2
sg9
g29
sa(dp1168
g2
I01
sg8
I5
sg9
g31
sa(dp1169
g2
I01
sg8
I5
sg9
g33
sa(dp1170
g1
S'__sizeof__() -> int\nsize of object in memory, in bytes'
p1171
sg2
I01
sg8
I2
sg9
g36
sa(dp1172
g2
I01
sg8
I5
sg9
g38
sa(dp1173
g1
S'Abstract classes can override this to customize issubclass().\n\nThis is invoked early on by abc.ABCMeta.__subclasscheck__().\nIt should return True, False or NotImplemented.  If it returns\nNotImplemented, the normal algorithm is used.  Otherwise, it\noverrides the normal algorithm (and the outcome is cached).\n'
p1174
sg2
I01
sg8
I2
sg9
g41
sa(dp1175
g2
I01
sg8
I5
sg9
g73
sa(dp1176
g2
I01
sg8
I5
sg9
g43
sa(dp1177
g2
I01
sg8
I5
sg9
S'_fields'
p1178
sasg8
I3
sg9
S'IfExp'
p1179
sa(dp1180
g1
Nsg2
I01
sg3
(lp1181
(dp1182
g2
I01
sg8
I5
sg9
g10
sa(dp1183
g2
I01
sg8
I5
sg9
g51
sa(dp1184
g2
I01
sg8
I5
sg9
g12
sa(dp1185
g1
S'default object formatter'
p1186
sg2
I01
sg8
I2
sg9
g15
sa(dp1187
g2
I01
sg8
I5
sg9
g17
sa(dp1188
g2
I01
sg8
I5
sg9
g19
sa(dp1189
g2
I01
sg8
I5
sg9
g21
sa(dp1190
g2
I01
sg8
I5
sg9
S'__module__'
p1191
sa(dp1192
g1
S'T.__new__(S, ...) -> a new object with type S, a subtype of T'
p1193
sg2
I01
sg8
I2
sg9
g24
sa(dp1194
g1
Nsg2
I01
sg8
I2
sg9
g26
sa(dp1195
g1
S'helper for pickle'
p1196
sg2
I01
sg8
I2
sg9
g29
sa(dp1197
g2
I01
sg8
I5
sg9
g31
sa(dp1198
g2
I01
sg8
I5
sg9
g33
sa(dp1199
g1
S'__sizeof__() -> int\nsize of object in memory, in bytes'
p1200
sg2
I01
sg8
I2
sg9
g36
sa(dp1201
g2
I01
sg8
I5
sg9
g38
sa(dp1202
g1
S'Abstract classes can override this to customize issubclass().\n\nThis is invoked early on by abc.ABCMeta.__subclasscheck__().\nIt should return True, False or NotImplemented.  If it returns\nNotImplemented, the normal algorithm is used.  Otherwise, it\noverrides the normal algorithm (and the outcome is cached).\n'
p1203
sg2
I01
sg8
I2
sg9
g41
sa(dp1204
g2
I01
sg8
I5
sg9
g73
sa(dp1205
g2
I01
sg8
I5
sg9
g43
sa(dp1206
g2
I01
sg8
I5
sg9
S'_fields'
p1207
sasg8
I3
sg9
S'Import'
p1208
sa(dp1209
g1
Nsg2
I01
sg3
(lp1210
(dp1211
g2
I01
sg8
I5
sg9
g10
sa(dp1212
g2
I01
sg8
I5
sg9
g51
sa(dp1213
g2
I01
sg8
I5
sg9
g12
sa(dp1214
g1
S'default object formatter'
p1215
sg2
I01
sg8
I2
sg9
g15
sa(dp1216
g2
I01
sg8
I5
sg9
g17
sa(dp1217
g2
I01
sg8
I5
sg9
g19
sa(dp1218
g2
I01
sg8
I5
sg9
g21
sa(dp1219
g2
I01
sg8
I5
sg9
S'__module__'
p1220
sa(dp1221
g1
S'T.__new__(S, ...) -> a new object with type S, a subtype of T'
p1222
sg2
I01
sg8
I2
sg9
g24
sa(dp1223
g1
Nsg2
I01
sg8
I2
sg9
g26
sa(dp1224
g1
S'helper for pickle'
p1225
sg2
I01
sg8
I2
sg9
g29
sa(dp1226
g2
I01
sg8
I5
sg9
g31
sa(dp1227
g2
I01
sg8
I5
sg9
g33
sa(dp1228
g1
S'__sizeof__() -> int\nsize of object in memory, in bytes'
p1229
sg2
I01
sg8
I2
sg9
g36
sa(dp1230
g2
I01
sg8
I5
sg9
g38
sa(dp1231
g1
S'Abstract classes can override this to customize issubclass().\n\nThis is invoked early on by abc.ABCMeta.__subclasscheck__().\nIt should return True, False or NotImplemented.  If it returns\nNotImplemented, the normal algorithm is used.  Otherwise, it\noverrides the normal algorithm (and the outcome is cached).\n'
p1232
sg2
I01
sg8
I2
sg9
g41
sa(dp1233
g2
I01
sg8
I5
sg9
g73
sa(dp1234
g2
I01
sg8
I5
sg9
g43
sa(dp1235
g2
I01
sg8
I5
sg9
S'_fields'
p1236
sasg8
I3
sg9
S'ImportFrom'
p1237
sa(dp1238
g1
Nsg2
I01
sg3
(lp1239
(dp1240
g2
I01
sg8
I5
sg9
g10
sa(dp1241
g2
I01
sg8
I5
sg9
g51
sa(dp1242
g2
I01
sg8
I5
sg9
g12
sa(dp1243
g1
S'default object formatter'
p1244
sg2
I01
sg8
I2
sg9
g15
sa(dp1245
g2
I01
sg8
I5
sg9
g17
sa(dp1246
g2
I01
sg8
I5
sg9
g19
sa(dp1247
g2
I01
sg8
I5
sg9
g21
sa(dp1248
g2
I01
sg8
I5
sg9
S'__module__'
p1249
sa(dp1250
g1
S'T.__new__(S, ...) -> a new object with type S, a subtype of T'
p1251
sg2
I01
sg8
I2
sg9
g24
sa(dp1252
g1
Nsg2
I01
sg8
I2
sg9
g26
sa(dp1253
g1
S'helper for pickle'
p1254
sg2
I01
sg8
I2
sg9
g29
sa(dp1255
g2
I01
sg8
I5
sg9
g31
sa(dp1256
g2
I01
sg8
I5
sg9
g33
sa(dp1257
g1
S'__sizeof__() -> int\nsize of object in memory, in bytes'
p1258
sg2
I01
sg8
I2
sg9
g36
sa(dp1259
g2
I01
sg8
I5
sg9
g38
sa(dp1260
g1
S'Abstract classes can override this to customize issubclass().\n\nThis is invoked early on by abc.ABCMeta.__subclasscheck__().\nIt should return True, False or NotImplemented.  If it returns\nNotImplemented, the normal algorithm is used.  Otherwise, it\noverrides the normal algorithm (and the outcome is cached).\n'
p1261
sg2
I01
sg8
I2
sg9
g41
sa(dp1262
g2
I01
sg8
I5
sg9
g73
sa(dp1263
g2
I01
sg8
I5
sg9
g43
sa(dp1264
g2
I01
sg8
I5
sg9
S'_fields'
p1265
sasg8
I3
sg9
S'In'
p1266
sa(dp1267
g1
Nsg2
I01
sg3
(lp1268
(dp1269
g2
I01
sg8
I5
sg9
g10
sa(dp1270
g2
I01
sg8
I5
sg9
g51
sa(dp1271
g2
I01
sg8
I5
sg9
g12
sa(dp1272
g1
S'default object formatter'
p1273
sg2
I01
sg8
I2
sg9
g15
sa(dp1274
g2
I01
sg8
I5
sg9
g17
sa(dp1275
g2
I01
sg8
I5
sg9
g19
sa(dp1276
g2
I01
sg8
I5
sg9
g21
sa(dp1277
g2
I01
sg8
I5
sg9
S'__module__'
p1278
sa(dp1279
g1
S'T.__new__(S, ...) -> a new object with type S, a subtype of T'
p1280
sg2
I01
sg8
I2
sg9
g24
sa(dp1281
g1
Nsg2
I01
sg8
I2
sg9
g26
sa(dp1282
g1
S'helper for pickle'
p1283
sg2
I01
sg8
I2
sg9
g29
sa(dp1284
g2
I01
sg8
I5
sg9
g31
sa(dp1285
g2
I01
sg8
I5
sg9
g33
sa(dp1286
g1
S'__sizeof__() -> int\nsize of object in memory, in bytes'
p1287
sg2
I01
sg8
I2
sg9
g36
sa(dp1288
g2
I01
sg8
I5
sg9
g38
sa(dp1289
g1
S'Abstract classes can override this to customize issubclass().\n\nThis is invoked early on by abc.ABCMeta.__subclasscheck__().\nIt should return True, False or NotImplemented.  If it returns\nNotImplemented, the normal algorithm is used.  Otherwise, it\noverrides the normal algorithm (and the outcome is cached).\n'
p1290
sg2
I01
sg8
I2
sg9
g41
sa(dp1291
g2
I01
sg8
I5
sg9
g73
sa(dp1292
g2
I01
sg8
I5
sg9
g43
sa(dp1293
g2
I01
sg8
I5
sg9
S'_fields'
p1294
sasg8
I3
sg9
S'Index'
p1295
sa(dp1296
g1
Nsg2
I01
sg3
(lp1297
(dp1298
g2
I01
sg8
I5
sg9
g10
sa(dp1299
g2
I01
sg8
I5
sg9
g51
sa(dp1300
g2
I01
sg8
I5
sg9
g12
sa(dp1301
g1
S'default object formatter'
p1302
sg2
I01
sg8
I2
sg9
g15
sa(dp1303
g2
I01
sg8
I5
sg9
g17
sa(dp1304
g2
I01
sg8
I5
sg9
g19
sa(dp1305
g2
I01
sg8
I5
sg9
g21
sa(dp1306
g2
I01
sg8
I5
sg9
S'__module__'
p1307
sa(dp1308
g1
S'T.__new__(S, ...) -> a new object with type S, a subtype of T'
p1309
sg2
I01
sg8
I2
sg9
g24
sa(dp1310
g1
Nsg2
I01
sg8
I2
sg9
g26
sa(dp1311
g1
S'helper for pickle'
p1312
sg2
I01
sg8
I2
sg9
g29
sa(dp1313
g2
I01
sg8
I5
sg9
g31
sa(dp1314
g2
I01
sg8
I5
sg9
g33
sa(dp1315
g1
S'__sizeof__() -> int\nsize of object in memory, in bytes'
p1316
sg2
I01
sg8
I2
sg9
g36
sa(dp1317
g2
I01
sg8
I5
sg9
g38
sa(dp1318
g1
S'Abstract classes can override this to customize issubclass().\n\nThis is invoked early on by abc.ABCMeta.__subclasscheck__().\nIt should return True, False or NotImplemented.  If it returns\nNotImplemented, the normal algorithm is used.  Otherwise, it\noverrides the normal algorithm (and the outcome is cached).\n'
p1319
sg2
I01
sg8
I2
sg9
g41
sa(dp1320
g2
I01
sg8
I5
sg9
g73
sa(dp1321
g2
I01
sg8
I5
sg9
g43
sa(dp1322
g2
I01
sg8
I5
sg9
S'_fields'
p1323
sasg8
I3
sg9
S'Interactive'
p1324
sa(dp1325
g1
Nsg2
I01
sg3
(lp1326
(dp1327
g2
I01
sg8
I5
sg9
g10
sa(dp1328
g2
I01
sg8
I5
sg9
g51
sa(dp1329
g2
I01
sg8
I5
sg9
g12
sa(dp1330
g1
S'default object formatter'
p1331
sg2
I01
sg8
I2
sg9
g15
sa(dp1332
g2
I01
sg8
I5
sg9
g17
sa(dp1333
g2
I01
sg8
I5
sg9
g19
sa(dp1334
g2
I01
sg8
I5
sg9
g21
sa(dp1335
g2
I01
sg8
I5
sg9
S'__module__'
p1336
sa(dp1337
g1
S'T.__new__(S, ...) -> a new object with type S, a subtype of T'
p1338
sg2
I01
sg8
I2
sg9
g24
sa(dp1339
g1
Nsg2
I01
sg8
I2
sg9
g26
sa(dp1340
g1
S'helper for pickle'
p1341
sg2
I01
sg8
I2
sg9
g29
sa(dp1342
g2
I01
sg8
I5
sg9
g31
sa(dp1343
g2
I01
sg8
I5
sg9
g33
sa(dp1344
g1
S'__sizeof__() -> int\nsize of object in memory, in bytes'
p1345
sg2
I01
sg8
I2
sg9
g36
sa(dp1346
g2
I01
sg8
I5
sg9
g38
sa(dp1347
g1
S'Abstract classes can override this to customize issubclass().\n\nThis is invoked early on by abc.ABCMeta.__subclasscheck__().\nIt should return True, False or NotImplemented.  If it returns\nNotImplemented, the normal algorithm is used.  Otherwise, it\noverrides the normal algorithm (and the outcome is cached).\n'
p1348
sg2
I01
sg8
I2
sg9
g41
sa(dp1349
g2
I01
sg8
I5
sg9
g73
sa(dp1350
g2
I01
sg8
I5
sg9
g43
sa(dp1351
g2
I01
sg8
I5
sg9
S'_fields'
p1352
sasg8
I3
sg9
S'Invert'
p1353
sa(dp1354
g1
Nsg2
I01
sg3
(lp1355
(dp1356
g2
I01
sg8
I5
sg9
g10
sa(dp1357
g2
I01
sg8
I5
sg9
g51
sa(dp1358
g2
I01
sg8
I5
sg9
g12
sa(dp1359
g1
S'default object formatter'
p1360
sg2
I01
sg8
I2
sg9
g15
sa(dp1361
g2
I01
sg8
I5
sg9
g17
sa(dp1362
g2
I01
sg8
I5
sg9
g19
sa(dp1363
g2
I01
sg8
I5
sg9
g21
sa(dp1364
g2
I01
sg8
I5
sg9
S'__module__'
p1365
sa(dp1366
g1
S'T.__new__(S, ...) -> a new object with type S, a subtype of T'
p1367
sg2
I01
sg8
I2
sg9
g24
sa(dp1368
g1
Nsg2
I01
sg8
I2
sg9
g26
sa(dp1369
g1
S'helper for pickle'
p1370
sg2
I01
sg8
I2
sg9
g29
sa(dp1371
g2
I01
sg8
I5
sg9
g31
sa(dp1372
g2
I01
sg8
I5
sg9
g33
sa(dp1373
g1
S'__sizeof__() -> int\nsize of object in memory, in bytes'
p1374
sg2
I01
sg8
I2
sg9
g36
sa(dp1375
g2
I01
sg8
I5
sg9
g38
sa(dp1376
g1
S'Abstract classes can override this to customize issubclass().\n\nThis is invoked early on by abc.ABCMeta.__subclasscheck__().\nIt should return True, False or NotImplemented.  If it returns\nNotImplemented, the normal algorithm is used.  Otherwise, it\noverrides the normal algorithm (and the outcome is cached).\n'
p1377
sg2
I01
sg8
I2
sg9
g41
sa(dp1378
g2
I01
sg8
I5
sg9
g73
sa(dp1379
g2
I01
sg8
I5
sg9
g43
sa(dp1380
g2
I01
sg8
I5
sg9
S'_fields'
p1381
sasg8
I3
sg9
S'Is'
p1382
sa(dp1383
g1
Nsg2
I01
sg3
(lp1384
(dp1385
g2
I01
sg8
I5
sg9
g10
sa(dp1386
g2
I01
sg8
I5
sg9
g51
sa(dp1387
g2
I01
sg8
I5
sg9
g12
sa(dp1388
g1
S'default object formatter'
p1389
sg2
I01
sg8
I2
sg9
g15
sa(dp1390
g2
I01
sg8
I5
sg9
g17
sa(dp1391
g2
I01
sg8
I5
sg9
g19
sa(dp1392
g2
I01
sg8
I5
sg9
g21
sa(dp1393
g2
I01
sg8
I5
sg9
S'__module__'
p1394
sa(dp1395
g1
S'T.__new__(S, ...) -> a new object with type S, a subtype of T'
p1396
sg2
I01
sg8
I2
sg9
g24
sa(dp1397
g1
Nsg2
I01
sg8
I2
sg9
g26
sa(dp1398
g1
S'helper for pickle'
p1399
sg2
I01
sg8
I2
sg9
g29
sa(dp1400
g2
I01
sg8
I5
sg9
g31
sa(dp1401
g2
I01
sg8
I5
sg9
g33
sa(dp1402
g1
S'__sizeof__() -> int\nsize of object in memory, in bytes'
p1403
sg2
I01
sg8
I2
sg9
g36
sa(dp1404
g2
I01
sg8
I5
sg9
g38
sa(dp1405
g1
S'Abstract classes can override this to customize issubclass().\n\nThis is invoked early on by abc.ABCMeta.__subclasscheck__().\nIt should return True, False or NotImplemented.  If it returns\nNotImplemented, the normal algorithm is used.  Otherwise, it\noverrides the normal algorithm (and the outcome is cached).\n'
p1406
sg2
I01
sg8
I2
sg9
g41
sa(dp1407
g2
I01
sg8
I5
sg9
g73
sa(dp1408
g2
I01
sg8
I5
sg9
g43
sa(dp1409
g2
I01
sg8
I5
sg9
S'_fields'
p1410
sasg8
I3
sg9
S'IsNot'
p1411
sa(dp1412
g1
Nsg2
I01
sg3
(lp1413
(dp1414
g2
I01
sg8
I5
sg9
g10
sa(dp1415
g2
I01
sg8
I5
sg9
g51
sa(dp1416
g2
I01
sg8
I5
sg9
g12
sa(dp1417
g1
S'default object formatter'
p1418
sg2
I01
sg8
I2
sg9
g15
sa(dp1419
g2
I01
sg8
I5
sg9
g17
sa(dp1420
g2
I01
sg8
I5
sg9
g19
sa(dp1421
g2
I01
sg8
I5
sg9
g21
sa(dp1422
g2
I01
sg8
I5
sg9
S'__module__'
p1423
sa(dp1424
g1
S'T.__new__(S, ...) -> a new object with type S, a subtype of T'
p1425
sg2
I01
sg8
I2
sg9
g24
sa(dp1426
g1
Nsg2
I01
sg8
I2
sg9
g26
sa(dp1427
g1
S'helper for pickle'
p1428
sg2
I01
sg8
I2
sg9
g29
sa(dp1429
g2
I01
sg8
I5
sg9
g31
sa(dp1430
g2
I01
sg8
I5
sg9
g33
sa(dp1431
g1
S'__sizeof__() -> int\nsize of object in memory, in bytes'
p1432
sg2
I01
sg8
I2
sg9
g36
sa(dp1433
g2
I01
sg8
I5
sg9
g38
sa(dp1434
g1
S'Abstract classes can override this to customize issubclass().\n\nThis is invoked early on by abc.ABCMeta.__subclasscheck__().\nIt should return True, False or NotImplemented.  If it returns\nNotImplemented, the normal algorithm is used.  Otherwise, it\noverrides the normal algorithm (and the outcome is cached).\n'
p1435
sg2
I01
sg8
I2
sg9
g41
sa(dp1436
g2
I01
sg8
I5
sg9
g73
sa(dp1437
g2
I01
sg8
I5
sg9
g43
sa(dp1438
g2
I01
sg8
I5
sg9
S'_fields'
p1439
sasg8
I3
sg9
S'LShift'
p1440
sa(dp1441
g1
Nsg2
I01
sg3
(lp1442
(dp1443
g2
I01
sg8
I5
sg9
g10
sa(dp1444
g2
I01
sg8
I5
sg9
g51
sa(dp1445
g2
I01
sg8
I5
sg9
g12
sa(dp1446
g1
S'default object formatter'
p1447
sg2
I01
sg8
I2
sg9
g15
sa(dp1448
g2
I01
sg8
I5
sg9
g17
sa(dp1449
g2
I01
sg8
I5
sg9
g19
sa(dp1450
g2
I01
sg8
I5
sg9
g21
sa(dp1451
g2
I01
sg8
I5
sg9
S'__module__'
p1452
sa(dp1453
g1
S'T.__new__(S, ...) -> a new object with type S, a subtype of T'
p1454
sg2
I01
sg8
I2
sg9
g24
sa(dp1455
g1
Nsg2
I01
sg8
I2
sg9
g26
sa(dp1456
g1
S'helper for pickle'
p1457
sg2
I01
sg8
I2
sg9
g29
sa(dp1458
g2
I01
sg8
I5
sg9
g31
sa(dp1459
g2
I01
sg8
I5
sg9
g33
sa(dp1460
g1
S'__sizeof__() -> int\nsize of object in memory, in bytes'
p1461
sg2
I01
sg8
I2
sg9
g36
sa(dp1462
g2
I01
sg8
I5
sg9
g38
sa(dp1463
g1
S'Abstract classes can override this to customize issubclass().\n\nThis is invoked early on by abc.ABCMeta.__subclasscheck__().\nIt should return True, False or NotImplemented.  If it returns\nNotImplemented, the normal algorithm is used.  Otherwise, it\noverrides the normal algorithm (and the outcome is cached).\n'
p1464
sg2
I01
sg8
I2
sg9
g41
sa(dp1465
g2
I01
sg8
I5
sg9
g73
sa(dp1466
g2
I01
sg8
I5
sg9
g43
sa(dp1467
g2
I01
sg8
I5
sg9
S'_fields'
p1468
sasg8
I3
sg9
S'Lambda'
p1469
sa(dp1470
g1
Nsg2
I01
sg3
(lp1471
(dp1472
g2
I01
sg8
I5
sg9
g10
sa(dp1473
g2
I01
sg8
I5
sg9
g51
sa(dp1474
g2
I01
sg8
I5
sg9
g12
sa(dp1475
g1
S'default object formatter'
p1476
sg2
I01
sg8
I2
sg9
g15
sa(dp1477
g2
I01
sg8
I5
sg9
g17
sa(dp1478
g2
I01
sg8
I5
sg9
g19
sa(dp1479
g2
I01
sg8
I5
sg9
g21
sa(dp1480
g2
I01
sg8
I5
sg9
S'__module__'
p1481
sa(dp1482
g1
S'T.__new__(S, ...) -> a new object with type S, a subtype of T'
p1483
sg2
I01
sg8
I2
sg9
g24
sa(dp1484
g1
Nsg2
I01
sg8
I2
sg9
g26
sa(dp1485
g1
S'helper for pickle'
p1486
sg2
I01
sg8
I2
sg9
g29
sa(dp1487
g2
I01
sg8
I5
sg9
g31
sa(dp1488
g2
I01
sg8
I5
sg9
g33
sa(dp1489
g1
S'__sizeof__() -> int\nsize of object in memory, in bytes'
p1490
sg2
I01
sg8
I2
sg9
g36
sa(dp1491
g2
I01
sg8
I5
sg9
g38
sa(dp1492
g1
S'Abstract classes can override this to customize issubclass().\n\nThis is invoked early on by abc.ABCMeta.__subclasscheck__().\nIt should return True, False or NotImplemented.  If it returns\nNotImplemented, the normal algorithm is used.  Otherwise, it\noverrides the normal algorithm (and the outcome is cached).\n'
p1493
sg2
I01
sg8
I2
sg9
g41
sa(dp1494
g2
I01
sg8
I5
sg9
g73
sa(dp1495
g2
I01
sg8
I5
sg9
g43
sa(dp1496
g2
I01
sg8
I5
sg9
S'_fields'
p1497
sasg8
I3
sg9
S'List'
p1498
sa(dp1499
g1
Nsg2
I01
sg3
(lp1500
(dp1501
g2
I01
sg8
I5
sg9
g10
sa(dp1502
g2
I01
sg8
I5
sg9
g51
sa(dp1503
g2
I01
sg8
I5
sg9
g12
sa(dp1504
g1
S'default object formatter'
p1505
sg2
I01
sg8
I2
sg9
g15
sa(dp1506
g2
I01
sg8
I5
sg9
g17
sa(dp1507
g2
I01
sg8
I5
sg9
g19
sa(dp1508
g2
I01
sg8
I5
sg9
g21
sa(dp1509
g2
I01
sg8
I5
sg9
S'__module__'
p1510
sa(dp1511
g1
S'T.__new__(S, ...) -> a new object with type S, a subtype of T'
p1512
sg2
I01
sg8
I2
sg9
g24
sa(dp1513
g1
Nsg2
I01
sg8
I2
sg9
g26
sa(dp1514
g1
S'helper for pickle'
p1515
sg2
I01
sg8
I2
sg9
g29
sa(dp1516
g2
I01
sg8
I5
sg9
g31
sa(dp1517
g2
I01
sg8
I5
sg9
g33
sa(dp1518
g1
S'__sizeof__() -> int\nsize of object in memory, in bytes'
p1519
sg2
I01
sg8
I2
sg9
g36
sa(dp1520
g2
I01
sg8
I5
sg9
g38
sa(dp1521
g1
S'Abstract classes can override this to customize issubclass().\n\nThis is invoked early on by abc.ABCMeta.__subclasscheck__().\nIt should return True, False or NotImplemented.  If it returns\nNotImplemented, the normal algorithm is used.  Otherwise, it\noverrides the normal algorithm (and the outcome is cached).\n'
p1522
sg2
I01
sg8
I2
sg9
g41
sa(dp1523
g2
I01
sg8
I5
sg9
g73
sa(dp1524
g2
I01
sg8
I5
sg9
g43
sa(dp1525
g2
I01
sg8
I5
sg9
S'_fields'
p1526
sasg8
I3
sg9
S'ListComp'
p1527
sa(dp1528
g1
Nsg2
I01
sg3
(lp1529
(dp1530
g2
I01
sg8
I5
sg9
g10
sa(dp1531
g2
I01
sg8
I5
sg9
g51
sa(dp1532
g2
I01
sg8
I5
sg9
g12
sa(dp1533
g1
S'default object formatter'
p1534
sg2
I01
sg8
I2
sg9
g15
sa(dp1535
g2
I01
sg8
I5
sg9
g17
sa(dp1536
g2
I01
sg8
I5
sg9
g19
sa(dp1537
g2
I01
sg8
I5
sg9
g21
sa(dp1538
g2
I01
sg8
I5
sg9
S'__module__'
p1539
sa(dp1540
g1
S'T.__new__(S, ...) -> a new object with type S, a subtype of T'
p1541
sg2
I01
sg8
I2
sg9
g24
sa(dp1542
g1
Nsg2
I01
sg8
I2
sg9
g26
sa(dp1543
g1
S'helper for pickle'
p1544
sg2
I01
sg8
I2
sg9
g29
sa(dp1545
g2
I01
sg8
I5
sg9
g31
sa(dp1546
g2
I01
sg8
I5
sg9
g33
sa(dp1547
g1
S'__sizeof__() -> int\nsize of object in memory, in bytes'
p1548
sg2
I01
sg8
I2
sg9
g36
sa(dp1549
g2
I01
sg8
I5
sg9
g38
sa(dp1550
g1
S'Abstract classes can override this to customize issubclass().\n\nThis is invoked early on by abc.ABCMeta.__subclasscheck__().\nIt should return True, False or NotImplemented.  If it returns\nNotImplemented, the normal algorithm is used.  Otherwise, it\noverrides the normal algorithm (and the outcome is cached).\n'
p1551
sg2
I01
sg8
I2
sg9
g41
sa(dp1552
g2
I01
sg8
I5
sg9
g73
sa(dp1553
g2
I01
sg8
I5
sg9
g43
sa(dp1554
g2
I01
sg8
I5
sg9
S'_fields'
p1555
sasg8
I3
sg9
S'Load'
p1556
sa(dp1557
g1
Nsg2
I01
sg3
(lp1558
(dp1559
g2
I01
sg8
I5
sg9
g10
sa(dp1560
g2
I01
sg8
I5
sg9
g51
sa(dp1561
g2
I01
sg8
I5
sg9
g12
sa(dp1562
g1
S'default object formatter'
p1563
sg2
I01
sg8
I2
sg9
g15
sa(dp1564
g2
I01
sg8
I5
sg9
g17
sa(dp1565
g2
I01
sg8
I5
sg9
g19
sa(dp1566
g2
I01
sg8
I5
sg9
g21
sa(dp1567
g2
I01
sg8
I5
sg9
S'__module__'
p1568
sa(dp1569
g1
S'T.__new__(S, ...) -> a new object with type S, a subtype of T'
p1570
sg2
I01
sg8
I2
sg9
g24
sa(dp1571
g1
Nsg2
I01
sg8
I2
sg9
g26
sa(dp1572
g1
S'helper for pickle'
p1573
sg2
I01
sg8
I2
sg9
g29
sa(dp1574
g2
I01
sg8
I5
sg9
g31
sa(dp1575
g2
I01
sg8
I5
sg9
g33
sa(dp1576
g1
S'__sizeof__() -> int\nsize of object in memory, in bytes'
p1577
sg2
I01
sg8
I2
sg9
g36
sa(dp1578
g2
I01
sg8
I5
sg9
g38
sa(dp1579
g1
S'Abstract classes can override this to customize issubclass().\n\nThis is invoked early on by abc.ABCMeta.__subclasscheck__().\nIt should return True, False or NotImplemented.  If it returns\nNotImplemented, the normal algorithm is used.  Otherwise, it\noverrides the normal algorithm (and the outcome is cached).\n'
p1580
sg2
I01
sg8
I2
sg9
g41
sa(dp1581
g2
I01
sg8
I5
sg9
g73
sa(dp1582
g2
I01
sg8
I5
sg9
g43
sa(dp1583
g2
I01
sg8
I5
sg9
S'_fields'
p1584
sasg8
I3
sg9
S'Lt'
p1585
sa(dp1586
g1
Nsg2
I01
sg3
(lp1587
(dp1588
g2
I01
sg8
I5
sg9
g10
sa(dp1589
g2
I01
sg8
I5
sg9
g51
sa(dp1590
g2
I01
sg8
I5
sg9
g12
sa(dp1591
g1
S'default object formatter'
p1592
sg2
I01
sg8
I2
sg9
g15
sa(dp1593
g2
I01
sg8
I5
sg9
g17
sa(dp1594
g2
I01
sg8
I5
sg9
g19
sa(dp1595
g2
I01
sg8
I5
sg9
g21
sa(dp1596
g2
I01
sg8
I5
sg9
S'__module__'
p1597
sa(dp1598
g1
S'T.__new__(S, ...) -> a new object with type S, a subtype of T'
p1599
sg2
I01
sg8
I2
sg9
g24
sa(dp1600
g1
Nsg2
I01
sg8
I2
sg9
g26
sa(dp1601
g1
S'helper for pickle'
p1602
sg2
I01
sg8
I2
sg9
g29
sa(dp1603
g2
I01
sg8
I5
sg9
g31
sa(dp1604
g2
I01
sg8
I5
sg9
g33
sa(dp1605
g1
S'__sizeof__() -> int\nsize of object in memory, in bytes'
p1606
sg2
I01
sg8
I2
sg9
g36
sa(dp1607
g2
I01
sg8
I5
sg9
g38
sa(dp1608
g1
S'Abstract classes can override this to customize issubclass().\n\nThis is invoked early on by abc.ABCMeta.__subclasscheck__().\nIt should return True, False or NotImplemented.  If it returns\nNotImplemented, the normal algorithm is used.  Otherwise, it\noverrides the normal algorithm (and the outcome is cached).\n'
p1609
sg2
I01
sg8
I2
sg9
g41
sa(dp1610
g2
I01
sg8
I5
sg9
g73
sa(dp1611
g2
I01
sg8
I5
sg9
g43
sa(dp1612
g2
I01
sg8
I5
sg9
S'_fields'
p1613
sasg8
I3
sg9
S'LtE'
p1614
sa(dp1615
g1
Nsg2
I01
sg3
(lp1616
(dp1617
g2
I01
sg8
I5
sg9
g10
sa(dp1618
g2
I01
sg8
I5
sg9
g51
sa(dp1619
g2
I01
sg8
I5
sg9
g12
sa(dp1620
g1
S'default object formatter'
p1621
sg2
I01
sg8
I2
sg9
g15
sa(dp1622
g2
I01
sg8
I5
sg9
g17
sa(dp1623
g2
I01
sg8
I5
sg9
g19
sa(dp1624
g2
I01
sg8
I5
sg9
g21
sa(dp1625
g2
I01
sg8
I5
sg9
S'__module__'
p1626
sa(dp1627
g1
S'T.__new__(S, ...) -> a new object with type S, a subtype of T'
p1628
sg2
I01
sg8
I2
sg9
g24
sa(dp1629
g1
Nsg2
I01
sg8
I2
sg9
g26
sa(dp1630
g1
S'helper for pickle'
p1631
sg2
I01
sg8
I2
sg9
g29
sa(dp1632
g2
I01
sg8
I5
sg9
g31
sa(dp1633
g2
I01
sg8
I5
sg9
g33
sa(dp1634
g1
S'__sizeof__() -> int\nsize of object in memory, in bytes'
p1635
sg2
I01
sg8
I2
sg9
g36
sa(dp1636
g2
I01
sg8
I5
sg9
g38
sa(dp1637
g1
S'Abstract classes can override this to customize issubclass().\n\nThis is invoked early on by abc.ABCMeta.__subclasscheck__().\nIt should return True, False or NotImplemented.  If it returns\nNotImplemented, the normal algorithm is used.  Otherwise, it\noverrides the normal algorithm (and the outcome is cached).\n'
p1638
sg2
I01
sg8
I2
sg9
g41
sa(dp1639
g2
I01
sg8
I5
sg9
g73
sa(dp1640
g2
I01
sg8
I5
sg9
g43
sa(dp1641
g2
I01
sg8
I5
sg9
S'_fields'
p1642
sasg8
I3
sg9
S'Mod'
p1643
sa(dp1644
g1
Nsg2
I01
sg3
(lp1645
(dp1646
g2
I01
sg8
I5
sg9
g10
sa(dp1647
g2
I01
sg8
I5
sg9
g51
sa(dp1648
g2
I01
sg8
I5
sg9
g12
sa(dp1649
g1
S'default object formatter'
p1650
sg2
I01
sg8
I2
sg9
g15
sa(dp1651
g2
I01
sg8
I5
sg9
g17
sa(dp1652
g2
I01
sg8
I5
sg9
g19
sa(dp1653
g2
I01
sg8
I5
sg9
g21
sa(dp1654
g2
I01
sg8
I5
sg9
S'__module__'
p1655
sa(dp1656
g1
S'T.__new__(S, ...) -> a new object with type S, a subtype of T'
p1657
sg2
I01
sg8
I2
sg9
g24
sa(dp1658
g1
Nsg2
I01
sg8
I2
sg9
g26
sa(dp1659
g1
S'helper for pickle'
p1660
sg2
I01
sg8
I2
sg9
g29
sa(dp1661
g2
I01
sg8
I5
sg9
g31
sa(dp1662
g2
I01
sg8
I5
sg9
g33
sa(dp1663
g1
S'__sizeof__() -> int\nsize of object in memory, in bytes'
p1664
sg2
I01
sg8
I2
sg9
g36
sa(dp1665
g2
I01
sg8
I5
sg9
g38
sa(dp1666
g1
S'Abstract classes can override this to customize issubclass().\n\nThis is invoked early on by abc.ABCMeta.__subclasscheck__().\nIt should return True, False or NotImplemented.  If it returns\nNotImplemented, the normal algorithm is used.  Otherwise, it\noverrides the normal algorithm (and the outcome is cached).\n'
p1667
sg2
I01
sg8
I2
sg9
g41
sa(dp1668
g2
I01
sg8
I5
sg9
g73
sa(dp1669
g2
I01
sg8
I5
sg9
g43
sa(dp1670
g2
I01
sg8
I5
sg9
S'_fields'
p1671
sasg8
I3
sg9
S'Module'
p1672
sa(dp1673
g1
Nsg2
I01
sg3
(lp1674
(dp1675
g2
I01
sg8
I5
sg9
g10
sa(dp1676
g2
I01
sg8
I5
sg9
g51
sa(dp1677
g2
I01
sg8
I5
sg9
g12
sa(dp1678
g1
S'default object formatter'
p1679
sg2
I01
sg8
I2
sg9
g15
sa(dp1680
g2
I01
sg8
I5
sg9
g17
sa(dp1681
g2
I01
sg8
I5
sg9
g19
sa(dp1682
g2
I01
sg8
I5
sg9
g21
sa(dp1683
g2
I01
sg8
I5
sg9
S'__module__'
p1684
sa(dp1685
g1
S'T.__new__(S, ...) -> a new object with type S, a subtype of T'
p1686
sg2
I01
sg8
I2
sg9
g24
sa(dp1687
g1
Nsg2
I01
sg8
I2
sg9
g26
sa(dp1688
g1
S'helper for pickle'
p1689
sg2
I01
sg8
I2
sg9
g29
sa(dp1690
g2
I01
sg8
I5
sg9
g31
sa(dp1691
g2
I01
sg8
I5
sg9
g33
sa(dp1692
g1
S'__sizeof__() -> int\nsize of object in memory, in bytes'
p1693
sg2
I01
sg8
I2
sg9
g36
sa(dp1694
g2
I01
sg8
I5
sg9
g38
sa(dp1695
g1
S'Abstract classes can override this to customize issubclass().\n\nThis is invoked early on by abc.ABCMeta.__subclasscheck__().\nIt should return True, False or NotImplemented.  If it returns\nNotImplemented, the normal algorithm is used.  Otherwise, it\noverrides the normal algorithm (and the outcome is cached).\n'
p1696
sg2
I01
sg8
I2
sg9
g41
sa(dp1697
g2
I01
sg8
I5
sg9
g73
sa(dp1698
g2
I01
sg8
I5
sg9
g43
sa(dp1699
g2
I01
sg8
I5
sg9
S'_fields'
p1700
sasg8
I3
sg9
S'Mult'
p1701
sa(dp1702
g1
Nsg2
I01
sg3
(lp1703
(dp1704
g2
I01
sg8
I5
sg9
g10
sa(dp1705
g2
I01
sg8
I5
sg9
g51
sa(dp1706
g2
I01
sg8
I5
sg9
g12
sa(dp1707
g1
S'default object formatter'
p1708
sg2
I01
sg8
I2
sg9
g15
sa(dp1709
g2
I01
sg8
I5
sg9
g17
sa(dp1710
g2
I01
sg8
I5
sg9
g19
sa(dp1711
g2
I01
sg8
I5
sg9
g21
sa(dp1712
g2
I01
sg8
I5
sg9
S'__module__'
p1713
sa(dp1714
g1
S'T.__new__(S, ...) -> a new object with type S, a subtype of T'
p1715
sg2
I01
sg8
I2
sg9
g24
sa(dp1716
g1
Nsg2
I01
sg8
I2
sg9
g26
sa(dp1717
g1
S'helper for pickle'
p1718
sg2
I01
sg8
I2
sg9
g29
sa(dp1719
g2
I01
sg8
I5
sg9
g31
sa(dp1720
g2
I01
sg8
I5
sg9
g33
sa(dp1721
g1
S'__sizeof__() -> int\nsize of object in memory, in bytes'
p1722
sg2
I01
sg8
I2
sg9
g36
sa(dp1723
g2
I01
sg8
I5
sg9
g38
sa(dp1724
g1
S'Abstract classes can override this to customize issubclass().\n\nThis is invoked early on by abc.ABCMeta.__subclasscheck__().\nIt should return True, False or NotImplemented.  If it returns\nNotImplemented, the normal algorithm is used.  Otherwise, it\noverrides the normal algorithm (and the outcome is cached).\n'
p1725
sg2
I01
sg8
I2
sg9
g41
sa(dp1726
g2
I01
sg8
I5
sg9
g73
sa(dp1727
g2
I01
sg8
I5
sg9
g43
sa(dp1728
g2
I01
sg8
I5
sg9
S'_fields'
p1729
sasg8
I3
sg9
S'Name'
p1730
sa(dp1731
g1
Nsg2
I01
sg3
(lp1732
(dp1733
g2
I01
sg8
I5
sg9
g10
sa(dp1734
g2
I01
sg8
I5
sg9
g51
sa(dp1735
g2
I01
sg8
I5
sg9
g12
sa(dp1736
g1
S'default object formatter'
p1737
sg2
I01
sg8
I2
sg9
g15
sa(dp1738
g2
I01
sg8
I5
sg9
g17
sa(dp1739
g2
I01
sg8
I5
sg9
g19
sa(dp1740
g2
I01
sg8
I5
sg9
g21
sa(dp1741
g2
I01
sg8
I5
sg9
S'__module__'
p1742
sa(dp1743
g1
S'T.__new__(S, ...) -> a new object with type S, a subtype of T'
p1744
sg2
I01
sg8
I2
sg9
g24
sa(dp1745
g1
Nsg2
I01
sg8
I2
sg9
g26
sa(dp1746
g1
S'helper for pickle'
p1747
sg2
I01
sg8
I2
sg9
g29
sa(dp1748
g2
I01
sg8
I5
sg9
g31
sa(dp1749
g2
I01
sg8
I5
sg9
g33
sa(dp1750
g1
S'__sizeof__() -> int\nsize of object in memory, in bytes'
p1751
sg2
I01
sg8
I2
sg9
g36
sa(dp1752
g2
I01
sg8
I5
sg9
g38
sa(dp1753
g1
S'Abstract classes can override this to customize issubclass().\n\nThis is invoked early on by abc.ABCMeta.__subclasscheck__().\nIt should return True, False or NotImplemented.  If it returns\nNotImplemented, the normal algorithm is used.  Otherwise, it\noverrides the normal algorithm (and the outcome is cached).\n'
p1754
sg2
I01
sg8
I2
sg9
g41
sa(dp1755
g2
I01
sg8
I5
sg9
g73
sa(dp1756
g2
I01
sg8
I5
sg9
g43
sa(dp1757
g2
I01
sg8
I5
sg9
S'_fields'
p1758
sasg8
I3
sg9
S'Not'
p1759
sa(dp1760
g1
Nsg2
I01
sg3
(lp1761
(dp1762
g2
I01
sg8
I5
sg9
g10
sa(dp1763
g2
I01
sg8
I5
sg9
g51
sa(dp1764
g2
I01
sg8
I5
sg9
g12
sa(dp1765
g1
S'default object formatter'
p1766
sg2
I01
sg8
I2
sg9
g15
sa(dp1767
g2
I01
sg8
I5
sg9
g17
sa(dp1768
g2
I01
sg8
I5
sg9
g19
sa(dp1769
g2
I01
sg8
I5
sg9
g21
sa(dp1770
g2
I01
sg8
I5
sg9
S'__module__'
p1771
sa(dp1772
g1
S'T.__new__(S, ...) -> a new object with type S, a subtype of T'
p1773
sg2
I01
sg8
I2
sg9
g24
sa(dp1774
g1
Nsg2
I01
sg8
I2
sg9
g26
sa(dp1775
g1
S'helper for pickle'
p1776
sg2
I01
sg8
I2
sg9
g29
sa(dp1777
g2
I01
sg8
I5
sg9
g31
sa(dp1778
g2
I01
sg8
I5
sg9
g33
sa(dp1779
g1
S'__sizeof__() -> int\nsize of object in memory, in bytes'
p1780
sg2
I01
sg8
I2
sg9
g36
sa(dp1781
g2
I01
sg8
I5
sg9
g38
sa(dp1782
g1
S'Abstract classes can override this to customize issubclass().\n\nThis is invoked early on by abc.ABCMeta.__subclasscheck__().\nIt should return True, False or NotImplemented.  If it returns\nNotImplemented, the normal algorithm is used.  Otherwise, it\noverrides the normal algorithm (and the outcome is cached).\n'
p1783
sg2
I01
sg8
I2
sg9
g41
sa(dp1784
g2
I01
sg8
I5
sg9
g73
sa(dp1785
g2
I01
sg8
I5
sg9
g43
sa(dp1786
g2
I01
sg8
I5
sg9
S'_fields'
p1787
sasg8
I3
sg9
S'NotEq'
p1788
sa(dp1789
g1
Nsg2
I01
sg3
(lp1790
(dp1791
g2
I01
sg8
I5
sg9
g10
sa(dp1792
g2
I01
sg8
I5
sg9
g51
sa(dp1793
g2
I01
sg8
I5
sg9
g12
sa(dp1794
g1
S'default object formatter'
p1795
sg2
I01
sg8
I2
sg9
g15
sa(dp1796
g2
I01
sg8
I5
sg9
g17
sa(dp1797
g2
I01
sg8
I5
sg9
g19
sa(dp1798
g2
I01
sg8
I5
sg9
g21
sa(dp1799
g2
I01
sg8
I5
sg9
S'__module__'
p1800
sa(dp1801
g1
S'T.__new__(S, ...) -> a new object with type S, a subtype of T'
p1802
sg2
I01
sg8
I2
sg9
g24
sa(dp1803
g1
Nsg2
I01
sg8
I2
sg9
g26
sa(dp1804
g1
S'helper for pickle'
p1805
sg2
I01
sg8
I2
sg9
g29
sa(dp1806
g2
I01
sg8
I5
sg9
g31
sa(dp1807
g2
I01
sg8
I5
sg9
g33
sa(dp1808
g1
S'__sizeof__() -> int\nsize of object in memory, in bytes'
p1809
sg2
I01
sg8
I2
sg9
g36
sa(dp1810
g2
I01
sg8
I5
sg9
g38
sa(dp1811
g1
S'Abstract classes can override this to customize issubclass().\n\nThis is invoked early on by abc.ABCMeta.__subclasscheck__().\nIt should return True, False or NotImplemented.  If it returns\nNotImplemented, the normal algorithm is used.  Otherwise, it\noverrides the normal algorithm (and the outcome is cached).\n'
p1812
sg2
I01
sg8
I2
sg9
g41
sa(dp1813
g2
I01
sg8
I5
sg9
g73
sa(dp1814
g2
I01
sg8
I5
sg9
g43
sa(dp1815
g2
I01
sg8
I5
sg9
S'_fields'
p1816
sasg8
I3
sg9
S'NotIn'
p1817
sa(dp1818
g1
Nsg2
I01
sg3
(lp1819
(dp1820
g2
I01
sg8
I5
sg9
g10
sa(dp1821
g2
I01
sg8
I5
sg9
g51
sa(dp1822
g2
I01
sg8
I5
sg9
g12
sa(dp1823
g1
S'default object formatter'
p1824
sg2
I01
sg8
I2
sg9
g15
sa(dp1825
g2
I01
sg8
I5
sg9
g17
sa(dp1826
g2
I01
sg8
I5
sg9
g19
sa(dp1827
g2
I01
sg8
I5
sg9
g21
sa(dp1828
g2
I01
sg8
I5
sg9
S'__module__'
p1829
sa(dp1830
g1
S'T.__new__(S, ...) -> a new object with type S, a subtype of T'
p1831
sg2
I01
sg8
I2
sg9
g24
sa(dp1832
g1
Nsg2
I01
sg8
I2
sg9
g26
sa(dp1833
g1
S'helper for pickle'
p1834
sg2
I01
sg8
I2
sg9
g29
sa(dp1835
g2
I01
sg8
I5
sg9
g31
sa(dp1836
g2
I01
sg8
I5
sg9
g33
sa(dp1837
g1
S'__sizeof__() -> int\nsize of object in memory, in bytes'
p1838
sg2
I01
sg8
I2
sg9
g36
sa(dp1839
g2
I01
sg8
I5
sg9
g38
sa(dp1840
g1
S'Abstract classes can override this to customize issubclass().\n\nThis is invoked early on by abc.ABCMeta.__subclasscheck__().\nIt should return True, False or NotImplemented.  If it returns\nNotImplemented, the normal algorithm is used.  Otherwise, it\noverrides the normal algorithm (and the outcome is cached).\n'
p1841
sg2
I01
sg8
I2
sg9
g41
sa(dp1842
g2
I01
sg8
I5
sg9
g73
sa(dp1843
g2
I01
sg8
I5
sg9
g43
sa(dp1844
g2
I01
sg8
I5
sg9
S'_fields'
p1845
sasg8
I3
sg9
S'Num'
p1846
sa(dp1847
g1
Nsg2
I01
sg3
(lp1848
(dp1849
g2
I01
sg8
I5
sg9
g10
sa(dp1850
g2
I01
sg8
I5
sg9
g51
sa(dp1851
g2
I01
sg8
I5
sg9
g12
sa(dp1852
g1
S'default object formatter'
p1853
sg2
I01
sg8
I2
sg9
g15
sa(dp1854
g2
I01
sg8
I5
sg9
g17
sa(dp1855
g2
I01
sg8
I5
sg9
g19
sa(dp1856
g2
I01
sg8
I5
sg9
g21
sa(dp1857
g2
I01
sg8
I5
sg9
S'__module__'
p1858
sa(dp1859
g1
S'T.__new__(S, ...) -> a new object with type S, a subtype of T'
p1860
sg2
I01
sg8
I2
sg9
g24
sa(dp1861
g1
Nsg2
I01
sg8
I2
sg9
g26
sa(dp1862
g1
S'helper for pickle'
p1863
sg2
I01
sg8
I2
sg9
g29
sa(dp1864
g2
I01
sg8
I5
sg9
g31
sa(dp1865
g2
I01
sg8
I5
sg9
g33
sa(dp1866
g1
S'__sizeof__() -> int\nsize of object in memory, in bytes'
p1867
sg2
I01
sg8
I2
sg9
g36
sa(dp1868
g2
I01
sg8
I5
sg9
g38
sa(dp1869
g1
S'Abstract classes can override this to customize issubclass().\n\nThis is invoked early on by abc.ABCMeta.__subclasscheck__().\nIt should return True, False or NotImplemented.  If it returns\nNotImplemented, the normal algorithm is used.  Otherwise, it\noverrides the normal algorithm (and the outcome is cached).\n'
p1870
sg2
I01
sg8
I2
sg9
g41
sa(dp1871
g2
I01
sg8
I5
sg9
g73
sa(dp1872
g2
I01
sg8
I5
sg9
g43
sa(dp1873
g2
I01
sg8
I5
sg9
S'_fields'
p1874
sasg8
I3
sg9
S'Or'
p1875
sa(dp1876
g1
Nsg2
I01
sg3
(lp1877
(dp1878
g2
I01
sg8
I5
sg9
g10
sa(dp1879
g2
I01
sg8
I5
sg9
g51
sa(dp1880
g2
I01
sg8
I5
sg9
g12
sa(dp1881
g1
S'default object formatter'
p1882
sg2
I01
sg8
I2
sg9
g15
sa(dp1883
g2
I01
sg8
I5
sg9
g17
sa(dp1884
g2
I01
sg8
I5
sg9
g19
sa(dp1885
g2
I01
sg8
I5
sg9
g21
sa(dp1886
g2
I01
sg8
I5
sg9
S'__module__'
p1887
sa(dp1888
g1
S'T.__new__(S, ...) -> a new object with type S, a subtype of T'
p1889
sg2
I01
sg8
I2
sg9
g24
sa(dp1890
g1
Nsg2
I01
sg8
I2
sg9
g26
sa(dp1891
g1
S'helper for pickle'
p1892
sg2
I01
sg8
I2
sg9
g29
sa(dp1893
g2
I01
sg8
I5
sg9
g31
sa(dp1894
g2
I01
sg8
I5
sg9
g33
sa(dp1895
g1
S'__sizeof__() -> int\nsize of object in memory, in bytes'
p1896
sg2
I01
sg8
I2
sg9
g36
sa(dp1897
g2
I01
sg8
I5
sg9
g38
sa(dp1898
g1
S'Abstract classes can override this to customize issubclass().\n\nThis is invoked early on by abc.ABCMeta.__subclasscheck__().\nIt should return True, False or NotImplemented.  If it returns\nNotImplemented, the normal algorithm is used.  Otherwise, it\noverrides the normal algorithm (and the outcome is cached).\n'
p1899
sg2
I01
sg8
I2
sg9
g41
sa(dp1900
g2
I01
sg8
I5
sg9
g73
sa(dp1901
g2
I01
sg8
I5
sg9
g43
sa(dp1902
g2
I01
sg8
I5
sg9
S'_fields'
p1903
sasg8
I3
sg9
S'Param'
p1904
sa(dp1905
g1
Nsg2
I01
sg3
(lp1906
(dp1907
g2
I01
sg8
I5
sg9
g10
sa(dp1908
g2
I01
sg8
I5
sg9
g51
sa(dp1909
g2
I01
sg8
I5
sg9
g12
sa(dp1910
g1
S'default object formatter'
p1911
sg2
I01
sg8
I2
sg9
g15
sa(dp1912
g2
I01
sg8
I5
sg9
g17
sa(dp1913
g2
I01
sg8
I5
sg9
g19
sa(dp1914
g2
I01
sg8
I5
sg9
g21
sa(dp1915
g2
I01
sg8
I5
sg9
S'__module__'
p1916
sa(dp1917
g1
S'T.__new__(S, ...) -> a new object with type S, a subtype of T'
p1918
sg2
I01
sg8
I2
sg9
g24
sa(dp1919
g1
Nsg2
I01
sg8
I2
sg9
g26
sa(dp1920
g1
S'helper for pickle'
p1921
sg2
I01
sg8
I2
sg9
g29
sa(dp1922
g2
I01
sg8
I5
sg9
g31
sa(dp1923
g2
I01
sg8
I5
sg9
g33
sa(dp1924
g1
S'__sizeof__() -> int\nsize of object in memory, in bytes'
p1925
sg2
I01
sg8
I2
sg9
g36
sa(dp1926
g2
I01
sg8
I5
sg9
g38
sa(dp1927
g1
S'Abstract classes can override this to customize issubclass().\n\nThis is invoked early on by abc.ABCMeta.__subclasscheck__().\nIt should return True, False or NotImplemented.  If it returns\nNotImplemented, the normal algorithm is used.  Otherwise, it\noverrides the normal algorithm (and the outcome is cached).\n'
p1928
sg2
I01
sg8
I2
sg9
g41
sa(dp1929
g2
I01
sg8
I5
sg9
g73
sa(dp1930
g2
I01
sg8
I5
sg9
g43
sa(dp1931
g2
I01
sg8
I5
sg9
S'_fields'
p1932
sasg8
I3
sg9
S'Pass'
p1933
sa(dp1934
g1
Nsg2
I01
sg3
(lp1935
(dp1936
g2
I01
sg8
I5
sg9
g10
sa(dp1937
g2
I01
sg8
I5
sg9
g51
sa(dp1938
g2
I01
sg8
I5
sg9
g12
sa(dp1939
g1
S'default object formatter'
p1940
sg2
I01
sg8
I2
sg9
g15
sa(dp1941
g2
I01
sg8
I5
sg9
g17
sa(dp1942
g2
I01
sg8
I5
sg9
g19
sa(dp1943
g2
I01
sg8
I5
sg9
g21
sa(dp1944
g2
I01
sg8
I5
sg9
S'__module__'
p1945
sa(dp1946
g1
S'T.__new__(S, ...) -> a new object with type S, a subtype of T'
p1947
sg2
I01
sg8
I2
sg9
g24
sa(dp1948
g1
Nsg2
I01
sg8
I2
sg9
g26
sa(dp1949
g1
S'helper for pickle'
p1950
sg2
I01
sg8
I2
sg9
g29
sa(dp1951
g2
I01
sg8
I5
sg9
g31
sa(dp1952
g2
I01
sg8
I5
sg9
g33
sa(dp1953
g1
S'__sizeof__() -> int\nsize of object in memory, in bytes'
p1954
sg2
I01
sg8
I2
sg9
g36
sa(dp1955
g2
I01
sg8
I5
sg9
g38
sa(dp1956
g1
S'Abstract classes can override this to customize issubclass().\n\nThis is invoked early on by abc.ABCMeta.__subclasscheck__().\nIt should return True, False or NotImplemented.  If it returns\nNotImplemented, the normal algorithm is used.  Otherwise, it\noverrides the normal algorithm (and the outcome is cached).\n'
p1957
sg2
I01
sg8
I2
sg9
g41
sa(dp1958
g2
I01
sg8
I5
sg9
g73
sa(dp1959
g2
I01
sg8
I5
sg9
g43
sa(dp1960
g2
I01
sg8
I5
sg9
S'_fields'
p1961
sasg8
I3
sg9
S'Pow'
p1962
sa(dp1963
g1
Nsg2
I01
sg3
(lp1964
(dp1965
g2
I01
sg8
I5
sg9
g10
sa(dp1966
g2
I01
sg8
I5
sg9
g51
sa(dp1967
g2
I01
sg8
I5
sg9
g12
sa(dp1968
g1
S'default object formatter'
p1969
sg2
I01
sg8
I2
sg9
g15
sa(dp1970
g2
I01
sg8
I5
sg9
g17
sa(dp1971
g2
I01
sg8
I5
sg9
g19
sa(dp1972
g2
I01
sg8
I5
sg9
g21
sa(dp1973
g2
I01
sg8
I5
sg9
S'__module__'
p1974
sa(dp1975
g1
S'T.__new__(S, ...) -> a new object with type S, a subtype of T'
p1976
sg2
I01
sg8
I2
sg9
g24
sa(dp1977
g1
Nsg2
I01
sg8
I2
sg9
g26
sa(dp1978
g1
S'helper for pickle'
p1979
sg2
I01
sg8
I2
sg9
g29
sa(dp1980
g2
I01
sg8
I5
sg9
g31
sa(dp1981
g2
I01
sg8
I5
sg9
g33
sa(dp1982
g1
S'__sizeof__() -> int\nsize of object in memory, in bytes'
p1983
sg2
I01
sg8
I2
sg9
g36
sa(dp1984
g2
I01
sg8
I5
sg9
g38
sa(dp1985
g1
S'Abstract classes can override this to customize issubclass().\n\nThis is invoked early on by abc.ABCMeta.__subclasscheck__().\nIt should return True, False or NotImplemented.  If it returns\nNotImplemented, the normal algorithm is used.  Otherwise, it\noverrides the normal algorithm (and the outcome is cached).\n'
p1986
sg2
I01
sg8
I2
sg9
g41
sa(dp1987
g2
I01
sg8
I5
sg9
g73
sa(dp1988
g2
I01
sg8
I5
sg9
g43
sa(dp1989
g2
I01
sg8
I5
sg9
S'_fields'
p1990
sasg8
I3
sg9
S'Print'
p1991
sa(dp1992
g2
I01
sg8
I5
sg9
S'PyCF_ONLY_AST'
p1993
sa(dp1994
g1
Nsg2
I01
sg3
(lp1995
(dp1996
g2
I01
sg8
I5
sg9
g10
sa(dp1997
g2
I01
sg8
I5
sg9
g51
sa(dp1998
g2
I01
sg8
I5
sg9
g12
sa(dp1999
g1
S'default object formatter'
p2000
sg2
I01
sg8
I2
sg9
g15
sa(dp2001
g2
I01
sg8
I5
sg9
g17
sa(dp2002
g2
I01
sg8
I5
sg9
g19
sa(dp2003
g2
I01
sg8
I5
sg9
g21
sa(dp2004
g2
I01
sg8
I5
sg9
S'__module__'
p2005
sa(dp2006
g1
S'T.__new__(S, ...) -> a new object with type S, a subtype of T'
p2007
sg2
I01
sg8
I2
sg9
g24
sa(dp2008
g1
Nsg2
I01
sg8
I2
sg9
g26
sa(dp2009
g1
S'helper for pickle'
p2010
sg2
I01
sg8
I2
sg9
g29
sa(dp2011
g2
I01
sg8
I5
sg9
g31
sa(dp2012
g2
I01
sg8
I5
sg9
g33
sa(dp2013
g1
S'__sizeof__() -> int\nsize of object in memory, in bytes'
p2014
sg2
I01
sg8
I2
sg9
g36
sa(dp2015
g2
I01
sg8
I5
sg9
g38
sa(dp2016
g1
S'Abstract classes can override this to customize issubclass().\n\nThis is invoked early on by abc.ABCMeta.__subclasscheck__().\nIt should return True, False or NotImplemented.  If it returns\nNotImplemented, the normal algorithm is used.  Otherwise, it\noverrides the normal algorithm (and the outcome is cached).\n'
p2017
sg2
I01
sg8
I2
sg9
g41
sa(dp2018
g2
I01
sg8
I5
sg9
g73
sa(dp2019
g2
I01
sg8
I5
sg9
g43
sa(dp2020
g2
I01
sg8
I5
sg9
S'_fields'
p2021
sasg8
I3
sg9
S'RShift'
p2022
sa(dp2023
g1
Nsg2
I01
sg3
(lp2024
(dp2025
g2
I01
sg8
I5
sg9
g10
sa(dp2026
g2
I01
sg8
I5
sg9
g51
sa(dp2027
g2
I01
sg8
I5
sg9
g12
sa(dp2028
g1
S'default object formatter'
p2029
sg2
I01
sg8
I2
sg9
g15
sa(dp2030
g2
I01
sg8
I5
sg9
g17
sa(dp2031
g2
I01
sg8
I5
sg9
g19
sa(dp2032
g2
I01
sg8
I5
sg9
g21
sa(dp2033
g2
I01
sg8
I5
sg9
S'__module__'
p2034
sa(dp2035
g1
S'T.__new__(S, ...) -> a new object with type S, a subtype of T'
p2036
sg2
I01
sg8
I2
sg9
g24
sa(dp2037
g1
Nsg2
I01
sg8
I2
sg9
g26
sa(dp2038
g1
S'helper for pickle'
p2039
sg2
I01
sg8
I2
sg9
g29
sa(dp2040
g2
I01
sg8
I5
sg9
g31
sa(dp2041
g2
I01
sg8
I5
sg9
g33
sa(dp2042
g1
S'__sizeof__() -> int\nsize of object in memory, in bytes'
p2043
sg2
I01
sg8
I2
sg9
g36
sa(dp2044
g2
I01
sg8
I5
sg9
g38
sa(dp2045
g1
S'Abstract classes can override this to customize issubclass().\n\nThis is invoked early on by abc.ABCMeta.__subclasscheck__().\nIt should return True, False or NotImplemented.  If it returns\nNotImplemented, the normal algorithm is used.  Otherwise, it\noverrides the normal algorithm (and the outcome is cached).\n'
p2046
sg2
I01
sg8
I2
sg9
g41
sa(dp2047
g2
I01
sg8
I5
sg9
g73
sa(dp2048
g2
I01
sg8
I5
sg9
g43
sa(dp2049
g2
I01
sg8
I5
sg9
S'_fields'
p2050
sasg8
I3
sg9
S'Raise'
p2051
sa(dp2052
g1
Nsg2
I01
sg3
(lp2053
(dp2054
g2
I01
sg8
I5
sg9
g10
sa(dp2055
g2
I01
sg8
I5
sg9
g51
sa(dp2056
g2
I01
sg8
I5
sg9
g12
sa(dp2057
g1
S'default object formatter'
p2058
sg2
I01
sg8
I2
sg9
g15
sa(dp2059
g2
I01
sg8
I5
sg9
g17
sa(dp2060
g2
I01
sg8
I5
sg9
g19
sa(dp2061
g2
I01
sg8
I5
sg9
g21
sa(dp2062
g2
I01
sg8
I5
sg9
S'__module__'
p2063
sa(dp2064
g1
S'T.__new__(S, ...) -> a new object with type S, a subtype of T'
p2065
sg2
I01
sg8
I2
sg9
g24
sa(dp2066
g1
Nsg2
I01
sg8
I2
sg9
g26
sa(dp2067
g1
S'helper for pickle'
p2068
sg2
I01
sg8
I2
sg9
g29
sa(dp2069
g2
I01
sg8
I5
sg9
g31
sa(dp2070
g2
I01
sg8
I5
sg9
g33
sa(dp2071
g1
S'__sizeof__() -> int\nsize of object in memory, in bytes'
p2072
sg2
I01
sg8
I2
sg9
g36
sa(dp2073
g2
I01
sg8
I5
sg9
g38
sa(dp2074
g1
S'Abstract classes can override this to customize issubclass().\n\nThis is invoked early on by abc.ABCMeta.__subclasscheck__().\nIt should return True, False or NotImplemented.  If it returns\nNotImplemented, the normal algorithm is used.  Otherwise, it\noverrides the normal algorithm (and the outcome is cached).\n'
p2075
sg2
I01
sg8
I2
sg9
g41
sa(dp2076
g2
I01
sg8
I5
sg9
g73
sa(dp2077
g2
I01
sg8
I5
sg9
g43
sa(dp2078
g2
I01
sg8
I5
sg9
S'_fields'
p2079
sasg8
I3
sg9
S'Repr'
p2080
sa(dp2081
g1
Nsg2
I01
sg3
(lp2082
(dp2083
g2
I01
sg8
I5
sg9
g10
sa(dp2084
g2
I01
sg8
I5
sg9
g51
sa(dp2085
g2
I01
sg8
I5
sg9
g12
sa(dp2086
g1
S'default object formatter'
p2087
sg2
I01
sg8
I2
sg9
g15
sa(dp2088
g2
I01
sg8
I5
sg9
g17
sa(dp2089
g2
I01
sg8
I5
sg9
g19
sa(dp2090
g2
I01
sg8
I5
sg9
g21
sa(dp2091
g2
I01
sg8
I5
sg9
S'__module__'
p2092
sa(dp2093
g1
S'T.__new__(S, ...) -> a new object with type S, a subtype of T'
p2094
sg2
I01
sg8
I2
sg9
g24
sa(dp2095
g1
Nsg2
I01
sg8
I2
sg9
g26
sa(dp2096
g1
S'helper for pickle'
p2097
sg2
I01
sg8
I2
sg9
g29
sa(dp2098
g2
I01
sg8
I5
sg9
g31
sa(dp2099
g2
I01
sg8
I5
sg9
g33
sa(dp2100
g1
S'__sizeof__() -> int\nsize of object in memory, in bytes'
p2101
sg2
I01
sg8
I2
sg9
g36
sa(dp2102
g2
I01
sg8
I5
sg9
g38
sa(dp2103
g1
S'Abstract classes can override this to customize issubclass().\n\nThis is invoked early on by abc.ABCMeta.__subclasscheck__().\nIt should return True, False or NotImplemented.  If it returns\nNotImplemented, the normal algorithm is used.  Otherwise, it\noverrides the normal algorithm (and the outcome is cached).\n'
p2104
sg2
I01
sg8
I2
sg9
g41
sa(dp2105
g2
I01
sg8
I5
sg9
g73
sa(dp2106
g2
I01
sg8
I5
sg9
g43
sa(dp2107
g2
I01
sg8
I5
sg9
S'_fields'
p2108
sasg8
I3
sg9
S'Return'
p2109
sa(dp2110
g1
Nsg2
I01
sg3
(lp2111
(dp2112
g2
I01
sg8
I5
sg9
g10
sa(dp2113
g2
I01
sg8
I5
sg9
g51
sa(dp2114
g2
I01
sg8
I5
sg9
g12
sa(dp2115
g1
S'default object formatter'
p2116
sg2
I01
sg8
I2
sg9
g15
sa(dp2117
g2
I01
sg8
I5
sg9
g17
sa(dp2118
g2
I01
sg8
I5
sg9
g19
sa(dp2119
g2
I01
sg8
I5
sg9
g21
sa(dp2120
g2
I01
sg8
I5
sg9
S'__module__'
p2121
sa(dp2122
g1
S'T.__new__(S, ...) -> a new object with type S, a subtype of T'
p2123
sg2
I01
sg8
I2
sg9
g24
sa(dp2124
g1
Nsg2
I01
sg8
I2
sg9
g26
sa(dp2125
g1
S'helper for pickle'
p2126
sg2
I01
sg8
I2
sg9
g29
sa(dp2127
g2
I01
sg8
I5
sg9
g31
sa(dp2128
g2
I01
sg8
I5
sg9
g33
sa(dp2129
g1
S'__sizeof__() -> int\nsize of object in memory, in bytes'
p2130
sg2
I01
sg8
I2
sg9
g36
sa(dp2131
g2
I01
sg8
I5
sg9
g38
sa(dp2132
g1
S'Abstract classes can override this to customize issubclass().\n\nThis is invoked early on by abc.ABCMeta.__subclasscheck__().\nIt should return True, False or NotImplemented.  If it returns\nNotImplemented, the normal algorithm is used.  Otherwise, it\noverrides the normal algorithm (and the outcome is cached).\n'
p2133
sg2
I01
sg8
I2
sg9
g41
sa(dp2134
g2
I01
sg8
I5
sg9
g73
sa(dp2135
g2
I01
sg8
I5
sg9
g43
sa(dp2136
g2
I01
sg8
I5
sg9
S'_fields'
p2137
sasg8
I3
sg9
S'Set'
p2138
sa(dp2139
g1
Nsg2
I01
sg3
(lp2140
(dp2141
g2
I01
sg8
I5
sg9
g10
sa(dp2142
g2
I01
sg8
I5
sg9
g51
sa(dp2143
g2
I01
sg8
I5
sg9
g12
sa(dp2144
g1
S'default object formatter'
p2145
sg2
I01
sg8
I2
sg9
g15
sa(dp2146
g2
I01
sg8
I5
sg9
g17
sa(dp2147
g2
I01
sg8
I5
sg9
g19
sa(dp2148
g2
I01
sg8
I5
sg9
g21
sa(dp2149
g2
I01
sg8
I5
sg9
S'__module__'
p2150
sa(dp2151
g1
S'T.__new__(S, ...) -> a new object with type S, a subtype of T'
p2152
sg2
I01
sg8
I2
sg9
g24
sa(dp2153
g1
Nsg2
I01
sg8
I2
sg9
g26
sa(dp2154
g1
S'helper for pickle'
p2155
sg2
I01
sg8
I2
sg9
g29
sa(dp2156
g2
I01
sg8
I5
sg9
g31
sa(dp2157
g2
I01
sg8
I5
sg9
g33
sa(dp2158
g1
S'__sizeof__() -> int\nsize of object in memory, in bytes'
p2159
sg2
I01
sg8
I2
sg9
g36
sa(dp2160
g2
I01
sg8
I5
sg9
g38
sa(dp2161
g1
S'Abstract classes can override this to customize issubclass().\n\nThis is invoked early on by abc.ABCMeta.__subclasscheck__().\nIt should return True, False or NotImplemented.  If it returns\nNotImplemented, the normal algorithm is used.  Otherwise, it\noverrides the normal algorithm (and the outcome is cached).\n'
p2162
sg2
I01
sg8
I2
sg9
g41
sa(dp2163
g2
I01
sg8
I5
sg9
g73
sa(dp2164
g2
I01
sg8
I5
sg9
g43
sa(dp2165
g2
I01
sg8
I5
sg9
S'_fields'
p2166
sasg8
I3
sg9
S'SetComp'
p2167
sa(dp2168
g1
Nsg2
I01
sg3
(lp2169
(dp2170
g2
I01
sg8
I5
sg9
g10
sa(dp2171
g2
I01
sg8
I5
sg9
g51
sa(dp2172
g2
I01
sg8
I5
sg9
g12
sa(dp2173
g1
S'default object formatter'
p2174
sg2
I01
sg8
I2
sg9
g15
sa(dp2175
g2
I01
sg8
I5
sg9
g17
sa(dp2176
g2
I01
sg8
I5
sg9
g19
sa(dp2177
g2
I01
sg8
I5
sg9
g21
sa(dp2178
g2
I01
sg8
I5
sg9
S'__module__'
p2179
sa(dp2180
g1
S'T.__new__(S, ...) -> a new object with type S, a subtype of T'
p2181
sg2
I01
sg8
I2
sg9
g24
sa(dp2182
g1
Nsg2
I01
sg8
I2
sg9
g26
sa(dp2183
g1
S'helper for pickle'
p2184
sg2
I01
sg8
I2
sg9
g29
sa(dp2185
g2
I01
sg8
I5
sg9
g31
sa(dp2186
g2
I01
sg8
I5
sg9
g33
sa(dp2187
g1
S'__sizeof__() -> int\nsize of object in memory, in bytes'
p2188
sg2
I01
sg8
I2
sg9
g36
sa(dp2189
g2
I01
sg8
I5
sg9
g38
sa(dp2190
g1
S'Abstract classes can override this to customize issubclass().\n\nThis is invoked early on by abc.ABCMeta.__subclasscheck__().\nIt should return True, False or NotImplemented.  If it returns\nNotImplemented, the normal algorithm is used.  Otherwise, it\noverrides the normal algorithm (and the outcome is cached).\n'
p2191
sg2
I01
sg8
I2
sg9
g41
sa(dp2192
g2
I01
sg8
I5
sg9
g73
sa(dp2193
g2
I01
sg8
I5
sg9
g43
sa(dp2194
g2
I01
sg8
I5
sg9
S'_fields'
p2195
sasg8
I3
sg9
S'Slice'
p2196
sa(dp2197
g1
Nsg2
I01
sg3
(lp2198
(dp2199
g2
I01
sg8
I5
sg9
g10
sa(dp2200
g2
I01
sg8
I5
sg9
g51
sa(dp2201
g2
I01
sg8
I5
sg9
g12
sa(dp2202
g1
S'default object formatter'
p2203
sg2
I01
sg8
I2
sg9
g15
sa(dp2204
g2
I01
sg8
I5
sg9
g17
sa(dp2205
g2
I01
sg8
I5
sg9
g19
sa(dp2206
g2
I01
sg8
I5
sg9
g21
sa(dp2207
g2
I01
sg8
I5
sg9
S'__module__'
p2208
sa(dp2209
g1
S'T.__new__(S, ...) -> a new object with type S, a subtype of T'
p2210
sg2
I01
sg8
I2
sg9
g24
sa(dp2211
g1
Nsg2
I01
sg8
I2
sg9
g26
sa(dp2212
g1
S'helper for pickle'
p2213
sg2
I01
sg8
I2
sg9
g29
sa(dp2214
g2
I01
sg8
I5
sg9
g31
sa(dp2215
g2
I01
sg8
I5
sg9
g33
sa(dp2216
g1
S'__sizeof__() -> int\nsize of object in memory, in bytes'
p2217
sg2
I01
sg8
I2
sg9
g36
sa(dp2218
g2
I01
sg8
I5
sg9
g38
sa(dp2219
g1
S'Abstract classes can override this to customize issubclass().\n\nThis is invoked early on by abc.ABCMeta.__subclasscheck__().\nIt should return True, False or NotImplemented.  If it returns\nNotImplemented, the normal algorithm is used.  Otherwise, it\noverrides the normal algorithm (and the outcome is cached).\n'
p2220
sg2
I01
sg8
I2
sg9
g41
sa(dp2221
g2
I01
sg8
I5
sg9
g73
sa(dp2222
g2
I01
sg8
I5
sg9
g43
sa(dp2223
g2
I01
sg8
I5
sg9
S'_fields'
p2224
sasg8
I3
sg9
S'Store'
p2225
sa(dp2226
g1
Nsg2
I01
sg3
(lp2227
(dp2228
g2
I01
sg8
I5
sg9
g10
sa(dp2229
g2
I01
sg8
I5
sg9
g51
sa(dp2230
g2
I01
sg8
I5
sg9
g12
sa(dp2231
g1
S'default object formatter'
p2232
sg2
I01
sg8
I2
sg9
g15
sa(dp2233
g2
I01
sg8
I5
sg9
g17
sa(dp2234
g2
I01
sg8
I5
sg9
g19
sa(dp2235
g2
I01
sg8
I5
sg9
g21
sa(dp2236
g2
I01
sg8
I5
sg9
S'__module__'
p2237
sa(dp2238
g1
S'T.__new__(S, ...) -> a new object with type S, a subtype of T'
p2239
sg2
I01
sg8
I2
sg9
g24
sa(dp2240
g1
Nsg2
I01
sg8
I2
sg9
g26
sa(dp2241
g1
S'helper for pickle'
p2242
sg2
I01
sg8
I2
sg9
g29
sa(dp2243
g2
I01
sg8
I5
sg9
g31
sa(dp2244
g2
I01
sg8
I5
sg9
g33
sa(dp2245
g1
S'__sizeof__() -> int\nsize of object in memory, in bytes'
p2246
sg2
I01
sg8
I2
sg9
g36
sa(dp2247
g2
I01
sg8
I5
sg9
g38
sa(dp2248
g1
S'Abstract classes can override this to customize issubclass().\n\nThis is invoked early on by abc.ABCMeta.__subclasscheck__().\nIt should return True, False or NotImplemented.  If it returns\nNotImplemented, the normal algorithm is used.  Otherwise, it\noverrides the normal algorithm (and the outcome is cached).\n'
p2249
sg2
I01
sg8
I2
sg9
g41
sa(dp2250
g2
I01
sg8
I5
sg9
g73
sa(dp2251
g2
I01
sg8
I5
sg9
g43
sa(dp2252
g2
I01
sg8
I5
sg9
S'_fields'
p2253
sasg8
I3
sg9
S'Str'
p2254
sa(dp2255
g1
Nsg2
I01
sg3
(lp2256
(dp2257
g2
I01
sg8
I5
sg9
g10
sa(dp2258
g2
I01
sg8
I5
sg9
g51
sa(dp2259
g2
I01
sg8
I5
sg9
g12
sa(dp2260
g1
S'default object formatter'
p2261
sg2
I01
sg8
I2
sg9
g15
sa(dp2262
g2
I01
sg8
I5
sg9
g17
sa(dp2263
g2
I01
sg8
I5
sg9
g19
sa(dp2264
g2
I01
sg8
I5
sg9
g21
sa(dp2265
g2
I01
sg8
I5
sg9
S'__module__'
p2266
sa(dp2267
g1
S'T.__new__(S, ...) -> a new object with type S, a subtype of T'
p2268
sg2
I01
sg8
I2
sg9
g24
sa(dp2269
g1
Nsg2
I01
sg8
I2
sg9
g26
sa(dp2270
g1
S'helper for pickle'
p2271
sg2
I01
sg8
I2
sg9
g29
sa(dp2272
g2
I01
sg8
I5
sg9
g31
sa(dp2273
g2
I01
sg8
I5
sg9
g33
sa(dp2274
g1
S'__sizeof__() -> int\nsize of object in memory, in bytes'
p2275
sg2
I01
sg8
I2
sg9
g36
sa(dp2276
g2
I01
sg8
I5
sg9
g38
sa(dp2277
g1
S'Abstract classes can override this to customize issubclass().\n\nThis is invoked early on by abc.ABCMeta.__subclasscheck__().\nIt should return True, False or NotImplemented.  If it returns\nNotImplemented, the normal algorithm is used.  Otherwise, it\noverrides the normal algorithm (and the outcome is cached).\n'
p2278
sg2
I01
sg8
I2
sg9
g41
sa(dp2279
g2
I01
sg8
I5
sg9
g73
sa(dp2280
g2
I01
sg8
I5
sg9
g43
sa(dp2281
g2
I01
sg8
I5
sg9
S'_fields'
p2282
sasg8
I3
sg9
S'Sub'
p2283
sa(dp2284
g1
Nsg2
I01
sg3
(lp2285
(dp2286
g2
I01
sg8
I5
sg9
g10
sa(dp2287
g2
I01
sg8
I5
sg9
g51
sa(dp2288
g2
I01
sg8
I5
sg9
g12
sa(dp2289
g1
S'default object formatter'
p2290
sg2
I01
sg8
I2
sg9
g15
sa(dp2291
g2
I01
sg8
I5
sg9
g17
sa(dp2292
g2
I01
sg8
I5
sg9
g19
sa(dp2293
g2
I01
sg8
I5
sg9
g21
sa(dp2294
g2
I01
sg8
I5
sg9
S'__module__'
p2295
sa(dp2296
g1
S'T.__new__(S, ...) -> a new object with type S, a subtype of T'
p2297
sg2
I01
sg8
I2
sg9
g24
sa(dp2298
g1
Nsg2
I01
sg8
I2
sg9
g26
sa(dp2299
g1
S'helper for pickle'
p2300
sg2
I01
sg8
I2
sg9
g29
sa(dp2301
g2
I01
sg8
I5
sg9
g31
sa(dp2302
g2
I01
sg8
I5
sg9
g33
sa(dp2303
g1
S'__sizeof__() -> int\nsize of object in memory, in bytes'
p2304
sg2
I01
sg8
I2
sg9
g36
sa(dp2305
g2
I01
sg8
I5
sg9
g38
sa(dp2306
g1
S'Abstract classes can override this to customize issubclass().\n\nThis is invoked early on by abc.ABCMeta.__subclasscheck__().\nIt should return True, False or NotImplemented.  If it returns\nNotImplemented, the normal algorithm is used.  Otherwise, it\noverrides the normal algorithm (and the outcome is cached).\n'
p2307
sg2
I01
sg8
I2
sg9
g41
sa(dp2308
g2
I01
sg8
I5
sg9
g73
sa(dp2309
g2
I01
sg8
I5
sg9
g43
sa(dp2310
g2
I01
sg8
I5
sg9
S'_fields'
p2311
sasg8
I3
sg9
S'Subscript'
p2312
sa(dp2313
g1
Nsg2
I01
sg3
(lp2314
(dp2315
g2
I01
sg8
I5
sg9
g10
sa(dp2316
g2
I01
sg8
I5
sg9
g51
sa(dp2317
g2
I01
sg8
I5
sg9
g12
sa(dp2318
g1
S'default object formatter'
p2319
sg2
I01
sg8
I2
sg9
g15
sa(dp2320
g2
I01
sg8
I5
sg9
g17
sa(dp2321
g2
I01
sg8
I5
sg9
g19
sa(dp2322
g2
I01
sg8
I5
sg9
g21
sa(dp2323
g2
I01
sg8
I5
sg9
S'__module__'
p2324
sa(dp2325
g1
S'T.__new__(S, ...) -> a new object with type S, a subtype of T'
p2326
sg2
I01
sg8
I2
sg9
g24
sa(dp2327
g1
Nsg2
I01
sg8
I2
sg9
g26
sa(dp2328
g1
S'helper for pickle'
p2329
sg2
I01
sg8
I2
sg9
g29
sa(dp2330
g2
I01
sg8
I5
sg9
g31
sa(dp2331
g2
I01
sg8
I5
sg9
g33
sa(dp2332
g1
S'__sizeof__() -> int\nsize of object in memory, in bytes'
p2333
sg2
I01
sg8
I2
sg9
g36
sa(dp2334
g2
I01
sg8
I5
sg9
g38
sa(dp2335
g1
S'Abstract classes can override this to customize issubclass().\n\nThis is invoked early on by abc.ABCMeta.__subclasscheck__().\nIt should return True, False or NotImplemented.  If it returns\nNotImplemented, the normal algorithm is used.  Otherwise, it\noverrides the normal algorithm (and the outcome is cached).\n'
p2336
sg2
I01
sg8
I2
sg9
g41
sa(dp2337
g2
I01
sg8
I5
sg9
g73
sa(dp2338
g2
I01
sg8
I5
sg9
g43
sa(dp2339
g2
I01
sg8
I5
sg9
S'_fields'
p2340
sasg8
I3
sg9
S'Suite'
p2341
sa(dp2342
g1
Nsg2
I01
sg3
(lp2343
(dp2344
g2
I01
sg8
I5
sg9
g10
sa(dp2345
g2
I01
sg8
I5
sg9
g51
sa(dp2346
g2
I01
sg8
I5
sg9
g12
sa(dp2347
g1
S'default object formatter'
p2348
sg2
I01
sg8
I2
sg9
g15
sa(dp2349
g2
I01
sg8
I5
sg9
g17
sa(dp2350
g2
I01
sg8
I5
sg9
g19
sa(dp2351
g2
I01
sg8
I5
sg9
g21
sa(dp2352
g2
I01
sg8
I5
sg9
S'__module__'
p2353
sa(dp2354
g1
S'T.__new__(S, ...) -> a new object with type S, a subtype of T'
p2355
sg2
I01
sg8
I2
sg9
g24
sa(dp2356
g1
Nsg2
I01
sg8
I2
sg9
g26
sa(dp2357
g1
S'helper for pickle'
p2358
sg2
I01
sg8
I2
sg9
g29
sa(dp2359
g2
I01
sg8
I5
sg9
g31
sa(dp2360
g2
I01
sg8
I5
sg9
g33
sa(dp2361
g1
S'__sizeof__() -> int\nsize of object in memory, in bytes'
p2362
sg2
I01
sg8
I2
sg9
g36
sa(dp2363
g2
I01
sg8
I5
sg9
g38
sa(dp2364
g1
S'Abstract classes can override this to customize issubclass().\n\nThis is invoked early on by abc.ABCMeta.__subclasscheck__().\nIt should return True, False or NotImplemented.  If it returns\nNotImplemented, the normal algorithm is used.  Otherwise, it\noverrides the normal algorithm (and the outcome is cached).\n'
p2365
sg2
I01
sg8
I2
sg9
g41
sa(dp2366
g2
I01
sg8
I5
sg9
g73
sa(dp2367
g2
I01
sg8
I5
sg9
g43
sa(dp2368
g2
I01
sg8
I5
sg9
S'_fields'
p2369
sasg8
I3
sg9
S'TryExcept'
p2370
sa(dp2371
g1
Nsg2
I01
sg3
(lp2372
(dp2373
g2
I01
sg8
I5
sg9
g10
sa(dp2374
g2
I01
sg8
I5
sg9
g51
sa(dp2375
g2
I01
sg8
I5
sg9
g12
sa(dp2376
g1
S'default object formatter'
p2377
sg2
I01
sg8
I2
sg9
g15
sa(dp2378
g2
I01
sg8
I5
sg9
g17
sa(dp2379
g2
I01
sg8
I5
sg9
g19
sa(dp2380
g2
I01
sg8
I5
sg9
g21
sa(dp2381
g2
I01
sg8
I5
sg9
S'__module__'
p2382
sa(dp2383
g1
S'T.__new__(S, ...) -> a new object with type S, a subtype of T'
p2384
sg2
I01
sg8
I2
sg9
g24
sa(dp2385
g1
Nsg2
I01
sg8
I2
sg9
g26
sa(dp2386
g1
S'helper for pickle'
p2387
sg2
I01
sg8
I2
sg9
g29
sa(dp2388
g2
I01
sg8
I5
sg9
g31
sa(dp2389
g2
I01
sg8
I5
sg9
g33
sa(dp2390
g1
S'__sizeof__() -> int\nsize of object in memory, in bytes'
p2391
sg2
I01
sg8
I2
sg9
g36
sa(dp2392
g2
I01
sg8
I5
sg9
g38
sa(dp2393
g1
S'Abstract classes can override this to customize issubclass().\n\nThis is invoked early on by abc.ABCMeta.__subclasscheck__().\nIt should return True, False or NotImplemented.  If it returns\nNotImplemented, the normal algorithm is used.  Otherwise, it\noverrides the normal algorithm (and the outcome is cached).\n'
p2394
sg2
I01
sg8
I2
sg9
g41
sa(dp2395
g2
I01
sg8
I5
sg9
g73
sa(dp2396
g2
I01
sg8
I5
sg9
g43
sa(dp2397
g2
I01
sg8
I5
sg9
S'_fields'
p2398
sasg8
I3
sg9
S'TryFinally'
p2399
sa(dp2400
g1
Nsg2
I01
sg3
(lp2401
(dp2402
g2
I01
sg8
I5
sg9
g10
sa(dp2403
g2
I01
sg8
I5
sg9
g51
sa(dp2404
g2
I01
sg8
I5
sg9
g12
sa(dp2405
g1
S'default object formatter'
p2406
sg2
I01
sg8
I2
sg9
g15
sa(dp2407
g2
I01
sg8
I5
sg9
g17
sa(dp2408
g2
I01
sg8
I5
sg9
g19
sa(dp2409
g2
I01
sg8
I5
sg9
g21
sa(dp2410
g2
I01
sg8
I5
sg9
S'__module__'
p2411
sa(dp2412
g1
S'T.__new__(S, ...) -> a new object with type S, a subtype of T'
p2413
sg2
I01
sg8
I2
sg9
g24
sa(dp2414
g1
Nsg2
I01
sg8
I2
sg9
g26
sa(dp2415
g1
S'helper for pickle'
p2416
sg2
I01
sg8
I2
sg9
g29
sa(dp2417
g2
I01
sg8
I5
sg9
g31
sa(dp2418
g2
I01
sg8
I5
sg9
g33
sa(dp2419
g1
S'__sizeof__() -> int\nsize of object in memory, in bytes'
p2420
sg2
I01
sg8
I2
sg9
g36
sa(dp2421
g2
I01
sg8
I5
sg9
g38
sa(dp2422
g1
S'Abstract classes can override this to customize issubclass().\n\nThis is invoked early on by abc.ABCMeta.__subclasscheck__().\nIt should return True, False or NotImplemented.  If it returns\nNotImplemented, the normal algorithm is used.  Otherwise, it\noverrides the normal algorithm (and the outcome is cached).\n'
p2423
sg2
I01
sg8
I2
sg9
g41
sa(dp2424
g2
I01
sg8
I5
sg9
g73
sa(dp2425
g2
I01
sg8
I5
sg9
g43
sa(dp2426
g2
I01
sg8
I5
sg9
S'_fields'
p2427
sasg8
I3
sg9
S'Tuple'
p2428
sa(dp2429
g1
Nsg2
I01
sg3
(lp2430
(dp2431
g2
I01
sg8
I5
sg9
g10
sa(dp2432
g2
I01
sg8
I5
sg9
g51
sa(dp2433
g2
I01
sg8
I5
sg9
g12
sa(dp2434
g1
S'default object formatter'
p2435
sg2
I01
sg8
I2
sg9
g15
sa(dp2436
g2
I01
sg8
I5
sg9
g17
sa(dp2437
g2
I01
sg8
I5
sg9
g19
sa(dp2438
g2
I01
sg8
I5
sg9
g21
sa(dp2439
g2
I01
sg8
I5
sg9
S'__module__'
p2440
sa(dp2441
g1
S'T.__new__(S, ...) -> a new object with type S, a subtype of T'
p2442
sg2
I01
sg8
I2
sg9
g24
sa(dp2443
g1
Nsg2
I01
sg8
I2
sg9
g26
sa(dp2444
g1
S'helper for pickle'
p2445
sg2
I01
sg8
I2
sg9
g29
sa(dp2446
g2
I01
sg8
I5
sg9
g31
sa(dp2447
g2
I01
sg8
I5
sg9
g33
sa(dp2448
g1
S'__sizeof__() -> int\nsize of object in memory, in bytes'
p2449
sg2
I01
sg8
I2
sg9
g36
sa(dp2450
g2
I01
sg8
I5
sg9
g38
sa(dp2451
g1
S'Abstract classes can override this to customize issubclass().\n\nThis is invoked early on by abc.ABCMeta.__subclasscheck__().\nIt should return True, False or NotImplemented.  If it returns\nNotImplemented, the normal algorithm is used.  Otherwise, it\noverrides the normal algorithm (and the outcome is cached).\n'
p2452
sg2
I01
sg8
I2
sg9
g41
sa(dp2453
g2
I01
sg8
I5
sg9
g73
sa(dp2454
g2
I01
sg8
I5
sg9
g43
sa(dp2455
g2
I01
sg8
I5
sg9
S'_fields'
p2456
sasg8
I3
sg9
S'UAdd'
p2457
sa(dp2458
g1
Nsg2
I01
sg3
(lp2459
(dp2460
g2
I01
sg8
I5
sg9
g10
sa(dp2461
g2
I01
sg8
I5
sg9
g51
sa(dp2462
g2
I01
sg8
I5
sg9
g12
sa(dp2463
g1
S'default object formatter'
p2464
sg2
I01
sg8
I2
sg9
g15
sa(dp2465
g2
I01
sg8
I5
sg9
g17
sa(dp2466
g2
I01
sg8
I5
sg9
g19
sa(dp2467
g2
I01
sg8
I5
sg9
g21
sa(dp2468
g2
I01
sg8
I5
sg9
S'__module__'
p2469
sa(dp2470
g1
S'T.__new__(S, ...) -> a new object with type S, a subtype of T'
p2471
sg2
I01
sg8
I2
sg9
g24
sa(dp2472
g1
Nsg2
I01
sg8
I2
sg9
g26
sa(dp2473
g1
S'helper for pickle'
p2474
sg2
I01
sg8
I2
sg9
g29
sa(dp2475
g2
I01
sg8
I5
sg9
g31
sa(dp2476
g2
I01
sg8
I5
sg9
g33
sa(dp2477
g1
S'__sizeof__() -> int\nsize of object in memory, in bytes'
p2478
sg2
I01
sg8
I2
sg9
g36
sa(dp2479
g2
I01
sg8
I5
sg9
g38
sa(dp2480
g1
S'Abstract classes can override this to customize issubclass().\n\nThis is invoked early on by abc.ABCMeta.__subclasscheck__().\nIt should return True, False or NotImplemented.  If it returns\nNotImplemented, the normal algorithm is used.  Otherwise, it\noverrides the normal algorithm (and the outcome is cached).\n'
p2481
sg2
I01
sg8
I2
sg9
g41
sa(dp2482
g2
I01
sg8
I5
sg9
g73
sa(dp2483
g2
I01
sg8
I5
sg9
g43
sa(dp2484
g2
I01
sg8
I5
sg9
S'_fields'
p2485
sasg8
I3
sg9
S'USub'
p2486
sa(dp2487
g1
Nsg2
I01
sg3
(lp2488
(dp2489
g2
I01
sg8
I5
sg9
g10
sa(dp2490
g2
I01
sg8
I5
sg9
g51
sa(dp2491
g2
I01
sg8
I5
sg9
g12
sa(dp2492
g1
S'default object formatter'
p2493
sg2
I01
sg8
I2
sg9
g15
sa(dp2494
g2
I01
sg8
I5
sg9
g17
sa(dp2495
g2
I01
sg8
I5
sg9
g19
sa(dp2496
g2
I01
sg8
I5
sg9
g21
sa(dp2497
g2
I01
sg8
I5
sg9
S'__module__'
p2498
sa(dp2499
g1
S'T.__new__(S, ...) -> a new object with type S, a subtype of T'
p2500
sg2
I01
sg8
I2
sg9
g24
sa(dp2501
g1
Nsg2
I01
sg8
I2
sg9
g26
sa(dp2502
g1
S'helper for pickle'
p2503
sg2
I01
sg8
I2
sg9
g29
sa(dp2504
g2
I01
sg8
I5
sg9
g31
sa(dp2505
g2
I01
sg8
I5
sg9
g33
sa(dp2506
g1
S'__sizeof__() -> int\nsize of object in memory, in bytes'
p2507
sg2
I01
sg8
I2
sg9
g36
sa(dp2508
g2
I01
sg8
I5
sg9
g38
sa(dp2509
g1
S'Abstract classes can override this to customize issubclass().\n\nThis is invoked early on by abc.ABCMeta.__subclasscheck__().\nIt should return True, False or NotImplemented.  If it returns\nNotImplemented, the normal algorithm is used.  Otherwise, it\noverrides the normal algorithm (and the outcome is cached).\n'
p2510
sg2
I01
sg8
I2
sg9
g41
sa(dp2511
g2
I01
sg8
I5
sg9
g73
sa(dp2512
g2
I01
sg8
I5
sg9
g43
sa(dp2513
g2
I01
sg8
I5
sg9
S'_fields'
p2514
sasg8
I3
sg9
S'UnaryOp'
p2515
sa(dp2516
g1
Nsg2
I01
sg3
(lp2517
(dp2518
g2
I01
sg8
I5
sg9
g10
sa(dp2519
g2
I01
sg8
I5
sg9
g51
sa(dp2520
g2
I01
sg8
I5
sg9
g12
sa(dp2521
g1
S'default object formatter'
p2522
sg2
I01
sg8
I2
sg9
g15
sa(dp2523
g2
I01
sg8
I5
sg9
g17
sa(dp2524
g2
I01
sg8
I5
sg9
g19
sa(dp2525
g2
I01
sg8
I5
sg9
g21
sa(dp2526
g2
I01
sg8
I5
sg9
S'__module__'
p2527
sa(dp2528
g1
S'T.__new__(S, ...) -> a new object with type S, a subtype of T'
p2529
sg2
I01
sg8
I2
sg9
g24
sa(dp2530
g1
Nsg2
I01
sg8
I2
sg9
g26
sa(dp2531
g1
S'helper for pickle'
p2532
sg2
I01
sg8
I2
sg9
g29
sa(dp2533
g2
I01
sg8
I5
sg9
g31
sa(dp2534
g2
I01
sg8
I5
sg9
g33
sa(dp2535
g1
S'__sizeof__() -> int\nsize of object in memory, in bytes'
p2536
sg2
I01
sg8
I2
sg9
g36
sa(dp2537
g2
I01
sg8
I5
sg9
g38
sa(dp2538
g1
S'Abstract classes can override this to customize issubclass().\n\nThis is invoked early on by abc.ABCMeta.__subclasscheck__().\nIt should return True, False or NotImplemented.  If it returns\nNotImplemented, the normal algorithm is used.  Otherwise, it\noverrides the normal algorithm (and the outcome is cached).\n'
p2539
sg2
I01
sg8
I2
sg9
g41
sa(dp2540
g2
I01
sg8
I5
sg9
g73
sa(dp2541
g2
I01
sg8
I5
sg9
g43
sa(dp2542
g2
I01
sg8
I5
sg9
S'_fields'
p2543
sasg8
I3
sg9
S'While'
p2544
sa(dp2545
g1
Nsg2
I01
sg3
(lp2546
(dp2547
g2
I01
sg8
I5
sg9
g10
sa(dp2548
g2
I01
sg8
I5
sg9
g51
sa(dp2549
g2
I01
sg8
I5
sg9
g12
sa(dp2550
g1
S'default object formatter'
p2551
sg2
I01
sg8
I2
sg9
g15
sa(dp2552
g2
I01
sg8
I5
sg9
g17
sa(dp2553
g2
I01
sg8
I5
sg9
g19
sa(dp2554
g2
I01
sg8
I5
sg9
g21
sa(dp2555
g2
I01
sg8
I5
sg9
S'__module__'
p2556
sa(dp2557
g1
S'T.__new__(S, ...) -> a new object with type S, a subtype of T'
p2558
sg2
I01
sg8
I2
sg9
g24
sa(dp2559
g1
Nsg2
I01
sg8
I2
sg9
g26
sa(dp2560
g1
S'helper for pickle'
p2561
sg2
I01
sg8
I2
sg9
g29
sa(dp2562
g2
I01
sg8
I5
sg9
g31
sa(dp2563
g2
I01
sg8
I5
sg9
g33
sa(dp2564
g1
S'__sizeof__() -> int\nsize of object in memory, in bytes'
p2565
sg2
I01
sg8
I2
sg9
g36
sa(dp2566
g2
I01
sg8
I5
sg9
g38
sa(dp2567
g1
S'Abstract classes can override this to customize issubclass().\n\nThis is invoked early on by abc.ABCMeta.__subclasscheck__().\nIt should return True, False or NotImplemented.  If it returns\nNotImplemented, the normal algorithm is used.  Otherwise, it\noverrides the normal algorithm (and the outcome is cached).\n'
p2568
sg2
I01
sg8
I2
sg9
g41
sa(dp2569
g2
I01
sg8
I5
sg9
g73
sa(dp2570
g2
I01
sg8
I5
sg9
g43
sa(dp2571
g2
I01
sg8
I5
sg9
S'_fields'
p2572
sasg8
I3
sg9
S'With'
p2573
sa(dp2574
g1
Nsg2
I01
sg3
(lp2575
(dp2576
g2
I01
sg8
I5
sg9
g10
sa(dp2577
g2
I01
sg8
I5
sg9
g51
sa(dp2578
g2
I01
sg8
I5
sg9
g12
sa(dp2579
g1
S'default object formatter'
p2580
sg2
I01
sg8
I2
sg9
g15
sa(dp2581
g2
I01
sg8
I5
sg9
g17
sa(dp2582
g2
I01
sg8
I5
sg9
g19
sa(dp2583
g2
I01
sg8
I5
sg9
g21
sa(dp2584
g2
I01
sg8
I5
sg9
S'__module__'
p2585
sa(dp2586
g1
S'T.__new__(S, ...) -> a new object with type S, a subtype of T'
p2587
sg2
I01
sg8
I2
sg9
g24
sa(dp2588
g1
Nsg2
I01
sg8
I2
sg9
g26
sa(dp2589
g1
S'helper for pickle'
p2590
sg2
I01
sg8
I2
sg9
g29
sa(dp2591
g2
I01
sg8
I5
sg9
g31
sa(dp2592
g2
I01
sg8
I5
sg9
g33
sa(dp2593
g1
S'__sizeof__() -> int\nsize of object in memory, in bytes'
p2594
sg2
I01
sg8
I2
sg9
g36
sa(dp2595
g2
I01
sg8
I5
sg9
g38
sa(dp2596
g1
S'Abstract classes can override this to customize issubclass().\n\nThis is invoked early on by abc.ABCMeta.__subclasscheck__().\nIt should return True, False or NotImplemented.  If it returns\nNotImplemented, the normal algorithm is used.  Otherwise, it\noverrides the normal algorithm (and the outcome is cached).\n'
p2597
sg2
I01
sg8
I2
sg9
g41
sa(dp2598
g2
I01
sg8
I5
sg9
g73
sa(dp2599
g2
I01
sg8
I5
sg9
g43
sa(dp2600
g2
I01
sg8
I5
sg9
S'_fields'
p2601
sasg8
I3
sg9
S'Yield'
p2602
sa(dp2603
g2
I01
sg8
I5
sg9
g12
sa(dp2604
g2
I01
sg8
I5
sg9
S'__name__'
p2605
sa(dp2606
g2
I01
sg8
I5
sg9
S'__package__'
p2607
sa(dp2608
g2
I01
sg8
I5
sg9
S'__version__'
p2609
sa(dp2610
g1
Nsg2
I01
sg3
(lp2611
(dp2612
g2
I01
sg8
I5
sg9
g10
sa(dp2613
g2
I01
sg8
I5
sg9
g51
sa(dp2614
g2
I01
sg8
I5
sg9
g12
sa(dp2615
g1
S'default object formatter'
p2616
sg2
I01
sg8
I2
sg9
g15
sa(dp2617
g2
I01
sg8
I5
sg9
g17
sa(dp2618
g2
I01
sg8
I5
sg9
g19
sa(dp2619
g2
I01
sg8
I5
sg9
g21
sa(dp2620
g2
I01
sg8
I5
sg9
S'__module__'
p2621
sa(dp2622
g1
S'T.__new__(S, ...) -> a new object with type S, a subtype of T'
p2623
sg2
I01
sg8
I2
sg9
g24
sa(dp2624
g1
Nsg2
I01
sg8
I2
sg9
g26
sa(dp2625
g1
S'helper for pickle'
p2626
sg2
I01
sg8
I2
sg9
g29
sa(dp2627
g2
I01
sg8
I5
sg9
g31
sa(dp2628
g2
I01
sg8
I5
sg9
g33
sa(dp2629
g1
S'__sizeof__() -> int\nsize of object in memory, in bytes'
p2630
sg2
I01
sg8
I2
sg9
g36
sa(dp2631
g2
I01
sg8
I5
sg9
g38
sa(dp2632
g1
S'Abstract classes can override this to customize issubclass().\n\nThis is invoked early on by abc.ABCMeta.__subclasscheck__().\nIt should return True, False or NotImplemented.  If it returns\nNotImplemented, the normal algorithm is used.  Otherwise, it\noverrides the normal algorithm (and the outcome is cached).\n'
p2633
sg2
I01
sg8
I2
sg9
g41
sa(dp2634
g2
I01
sg8
I5
sg9
g73
sa(dp2635
g2
I01
sg8
I5
sg9
g43
sa(dp2636
g2
I01
sg8
I5
sg9
S'_fields'
p2637
sasg8
I3
sg9
S'alias'
p2638
sa(dp2639
g1
Nsg2
I01
sg3
(lp2640
(dp2641
g2
I01
sg8
I5
sg9
g10
sa(dp2642
g2
I01
sg8
I5
sg9
g51
sa(dp2643
g2
I01
sg8
I5
sg9
g12
sa(dp2644
g1
S'default object formatter'
p2645
sg2
I01
sg8
I2
sg9
g15
sa(dp2646
g2
I01
sg8
I5
sg9
g17
sa(dp2647
g2
I01
sg8
I5
sg9
g19
sa(dp2648
g2
I01
sg8
I5
sg9
g21
sa(dp2649
g2
I01
sg8
I5
sg9
S'__module__'
p2650
sa(dp2651
g1
S'T.__new__(S, ...) -> a new object with type S, a subtype of T'
p2652
sg2
I01
sg8
I2
sg9
g24
sa(dp2653
g1
Nsg2
I01
sg8
I2
sg9
g26
sa(dp2654
g1
S'helper for pickle'
p2655
sg2
I01
sg8
I2
sg9
g29
sa(dp2656
g2
I01
sg8
I5
sg9
g31
sa(dp2657
g2
I01
sg8
I5
sg9
g33
sa(dp2658
g1
S'__sizeof__() -> int\nsize of object in memory, in bytes'
p2659
sg2
I01
sg8
I2
sg9
g36
sa(dp2660
g2
I01
sg8
I5
sg9
g38
sa(dp2661
g1
S'Abstract classes can override this to customize issubclass().\n\nThis is invoked early on by abc.ABCMeta.__subclasscheck__().\nIt should return True, False or NotImplemented.  If it returns\nNotImplemented, the normal algorithm is used.  Otherwise, it\noverrides the normal algorithm (and the outcome is cached).\n'
p2662
sg2
I01
sg8
I2
sg9
g41
sa(dp2663
g2
I01
sg8
I5
sg9
g73
sa(dp2664
g2
I01
sg8
I5
sg9
g43
sa(dp2665
g2
I01
sg8
I5
sg9
S'_fields'
p2666
sasg8
I3
sg9
S'arguments'
p2667
sa(dp2668
g1
Nsg2
I01
sg3
(lp2669
(dp2670
g2
I01
sg8
I5
sg9
g10
sa(dp2671
g2
I01
sg8
I5
sg9
g51
sa(dp2672
g2
I01
sg8
I5
sg9
g12
sa(dp2673
g1
S'default object formatter'
p2674
sg2
I01
sg8
I2
sg9
g15
sa(dp2675
g2
I01
sg8
I5
sg9
g17
sa(dp2676
g2
I01
sg8
I5
sg9
g19
sa(dp2677
g2
I01
sg8
I5
sg9
g21
sa(dp2678
g2
I01
sg8
I5
sg9
S'__module__'
p2679
sa(dp2680
g1
S'T.__new__(S, ...) -> a new object with type S, a subtype of T'
p2681
sg2
I01
sg8
I2
sg9
g24
sa(dp2682
g1
Nsg2
I01
sg8
I2
sg9
g26
sa(dp2683
g1
S'helper for pickle'
p2684
sg2
I01
sg8
I2
sg9
g29
sa(dp2685
g2
I01
sg8
I5
sg9
g31
sa(dp2686
g2
I01
sg8
I5
sg9
g33
sa(dp2687
g1
S'__sizeof__() -> int\nsize of object in memory, in bytes'
p2688
sg2
I01
sg8
I2
sg9
g36
sa(dp2689
g2
I01
sg8
I5
sg9
g38
sa(dp2690
g1
S'Abstract classes can override this to customize issubclass().\n\nThis is invoked early on by abc.ABCMeta.__subclasscheck__().\nIt should return True, False or NotImplemented.  If it returns\nNotImplemented, the normal algorithm is used.  Otherwise, it\noverrides the normal algorithm (and the outcome is cached).\n'
p2691
sg2
I01
sg8
I2
sg9
g41
sa(dp2692
g2
I01
sg8
I5
sg9
g73
sa(dp2693
g2
I01
sg8
I5
sg9
g43
sa(dp2694
g2
I01
sg8
I5
sg9
S'_fields'
p2695
sasg8
I3
sg9
S'boolop'
p2696
sa(dp2697
g1
Nsg2
I01
sg3
(lp2698
(dp2699
g2
I01
sg8
I5
sg9
g10
sa(dp2700
g2
I01
sg8
I5
sg9
g51
sa(dp2701
g2
I01
sg8
I5
sg9
g12
sa(dp2702
g1
S'default object formatter'
p2703
sg2
I01
sg8
I2
sg9
g15
sa(dp2704
g2
I01
sg8
I5
sg9
g17
sa(dp2705
g2
I01
sg8
I5
sg9
g19
sa(dp2706
g2
I01
sg8
I5
sg9
g21
sa(dp2707
g2
I01
sg8
I5
sg9
S'__module__'
p2708
sa(dp2709
g1
S'T.__new__(S, ...) -> a new object with type S, a subtype of T'
p2710
sg2
I01
sg8
I2
sg9
g24
sa(dp2711
g1
Nsg2
I01
sg8
I2
sg9
g26
sa(dp2712
g1
S'helper for pickle'
p2713
sg2
I01
sg8
I2
sg9
g29
sa(dp2714
g2
I01
sg8
I5
sg9
g31
sa(dp2715
g2
I01
sg8
I5
sg9
g33
sa(dp2716
g1
S'__sizeof__() -> int\nsize of object in memory, in bytes'
p2717
sg2
I01
sg8
I2
sg9
g36
sa(dp2718
g2
I01
sg8
I5
sg9
g38
sa(dp2719
g1
S'Abstract classes can override this to customize issubclass().\n\nThis is invoked early on by abc.ABCMeta.__subclasscheck__().\nIt should return True, False or NotImplemented.  If it returns\nNotImplemented, the normal algorithm is used.  Otherwise, it\noverrides the normal algorithm (and the outcome is cached).\n'
p2720
sg2
I01
sg8
I2
sg9
g41
sa(dp2721
g2
I01
sg8
I5
sg9
g73
sa(dp2722
g2
I01
sg8
I5
sg9
g43
sa(dp2723
g2
I01
sg8
I5
sg9
S'_fields'
p2724
sasg8
I3
sg9
S'cmpop'
p2725
sa(dp2726
g1
Nsg2
I01
sg3
(lp2727
(dp2728
g2
I01
sg8
I5
sg9
g10
sa(dp2729
g2
I01
sg8
I5
sg9
g51
sa(dp2730
g2
I01
sg8
I5
sg9
g12
sa(dp2731
g1
S'default object formatter'
p2732
sg2
I01
sg8
I2
sg9
g15
sa(dp2733
g2
I01
sg8
I5
sg9
g17
sa(dp2734
g2
I01
sg8
I5
sg9
g19
sa(dp2735
g2
I01
sg8
I5
sg9
g21
sa(dp2736
g2
I01
sg8
I5
sg9
S'__module__'
p2737
sa(dp2738
g1
S'T.__new__(S, ...) -> a new object with type S, a subtype of T'
p2739
sg2
I01
sg8
I2
sg9
g24
sa(dp2740
g1
Nsg2
I01
sg8
I2
sg9
g26
sa(dp2741
g1
S'helper for pickle'
p2742
sg2
I01
sg8
I2
sg9
g29
sa(dp2743
g2
I01
sg8
I5
sg9
g31
sa(dp2744
g2
I01
sg8
I5
sg9
g33
sa(dp2745
g1
S'__sizeof__() -> int\nsize of object in memory, in bytes'
p2746
sg2
I01
sg8
I2
sg9
g36
sa(dp2747
g2
I01
sg8
I5
sg9
g38
sa(dp2748
g1
S'Abstract classes can override this to customize issubclass().\n\nThis is invoked early on by abc.ABCMeta.__subclasscheck__().\nIt should return True, False or NotImplemented.  If it returns\nNotImplemented, the normal algorithm is used.  Otherwise, it\noverrides the normal algorithm (and the outcome is cached).\n'
p2749
sg2
I01
sg8
I2
sg9
g41
sa(dp2750
g2
I01
sg8
I5
sg9
g73
sa(dp2751
g2
I01
sg8
I5
sg9
g43
sa(dp2752
g2
I01
sg8
I5
sg9
S'_fields'
p2753
sasg8
I3
sg9
S'comprehension'
p2754
sa(dp2755
g1
Nsg2
I01
sg3
(lp2756
(dp2757
g2
I01
sg8
I5
sg9
g10
sa(dp2758
g2
I01
sg8
I5
sg9
g51
sa(dp2759
g2
I01
sg8
I5
sg9
g12
sa(dp2760
g1
S'default object formatter'
p2761
sg2
I01
sg8
I2
sg9
g15
sa(dp2762
g2
I01
sg8
I5
sg9
g17
sa(dp2763
g2
I01
sg8
I5
sg9
g19
sa(dp2764
g2
I01
sg8
I5
sg9
g21
sa(dp2765
g2
I01
sg8
I5
sg9
S'__module__'
p2766
sa(dp2767
g1
S'T.__new__(S, ...) -> a new object with type S, a subtype of T'
p2768
sg2
I01
sg8
I2
sg9
g24
sa(dp2769
g1
Nsg2
I01
sg8
I2
sg9
g26
sa(dp2770
g1
S'helper for pickle'
p2771
sg2
I01
sg8
I2
sg9
g29
sa(dp2772
g2
I01
sg8
I5
sg9
g31
sa(dp2773
g2
I01
sg8
I5
sg9
g33
sa(dp2774
g1
S'__sizeof__() -> int\nsize of object in memory, in bytes'
p2775
sg2
I01
sg8
I2
sg9
g36
sa(dp2776
g2
I01
sg8
I5
sg9
g38
sa(dp2777
g1
S'Abstract classes can override this to customize issubclass().\n\nThis is invoked early on by abc.ABCMeta.__subclasscheck__().\nIt should return True, False or NotImplemented.  If it returns\nNotImplemented, the normal algorithm is used.  Otherwise, it\noverrides the normal algorithm (and the outcome is cached).\n'
p2778
sg2
I01
sg8
I2
sg9
g41
sa(dp2779
g2
I01
sg8
I5
sg9
g73
sa(dp2780
g2
I01
sg8
I5
sg9
g43
sa(dp2781
g2
I01
sg8
I5
sg9
S'_fields'
p2782
sasg8
I3
sg9
S'excepthandler'
p2783
sa(dp2784
g1
Nsg2
I01
sg3
(lp2785
(dp2786
g2
I01
sg8
I5
sg9
g10
sa(dp2787
g2
I01
sg8
I5
sg9
g51
sa(dp2788
g2
I01
sg8
I5
sg9
g12
sa(dp2789
g1
S'default object formatter'
p2790
sg2
I01
sg8
I2
sg9
g15
sa(dp2791
g2
I01
sg8
I5
sg9
g17
sa(dp2792
g2
I01
sg8
I5
sg9
g19
sa(dp2793
g2
I01
sg8
I5
sg9
g21
sa(dp2794
g2
I01
sg8
I5
sg9
S'__module__'
p2795
sa(dp2796
g1
S'T.__new__(S, ...) -> a new object with type S, a subtype of T'
p2797
sg2
I01
sg8
I2
sg9
g24
sa(dp2798
g1
Nsg2
I01
sg8
I2
sg9
g26
sa(dp2799
g1
S'helper for pickle'
p2800
sg2
I01
sg8
I2
sg9
g29
sa(dp2801
g2
I01
sg8
I5
sg9
g31
sa(dp2802
g2
I01
sg8
I5
sg9
g33
sa(dp2803
g1
S'__sizeof__() -> int\nsize of object in memory, in bytes'
p2804
sg2
I01
sg8
I2
sg9
g36
sa(dp2805
g2
I01
sg8
I5
sg9
g38
sa(dp2806
g1
S'Abstract classes can override this to customize issubclass().\n\nThis is invoked early on by abc.ABCMeta.__subclasscheck__().\nIt should return True, False or NotImplemented.  If it returns\nNotImplemented, the normal algorithm is used.  Otherwise, it\noverrides the normal algorithm (and the outcome is cached).\n'
p2807
sg2
I01
sg8
I2
sg9
g41
sa(dp2808
g2
I01
sg8
I5
sg9
g73
sa(dp2809
g2
I01
sg8
I5
sg9
g43
sa(dp2810
g2
I01
sg8
I5
sg9
S'_fields'
p2811
sasg8
I3
sg9
S'expr'
p2812
sa(dp2813
g1
Nsg2
I01
sg3
(lp2814
(dp2815
g2
I01
sg8
I5
sg9
g10
sa(dp2816
g2
I01
sg8
I5
sg9
g51
sa(dp2817
g2
I01
sg8
I5
sg9
g12
sa(dp2818
g1
S'default object formatter'
p2819
sg2
I01
sg8
I2
sg9
g15
sa(dp2820
g2
I01
sg8
I5
sg9
g17
sa(dp2821
g2
I01
sg8
I5
sg9
g19
sa(dp2822
g2
I01
sg8
I5
sg9
g21
sa(dp2823
g2
I01
sg8
I5
sg9
S'__module__'
p2824
sa(dp2825
g1
S'T.__new__(S, ...) -> a new object with type S, a subtype of T'
p2826
sg2
I01
sg8
I2
sg9
g24
sa(dp2827
g1
Nsg2
I01
sg8
I2
sg9
g26
sa(dp2828
g1
S'helper for pickle'
p2829
sg2
I01
sg8
I2
sg9
g29
sa(dp2830
g2
I01
sg8
I5
sg9
g31
sa(dp2831
g2
I01
sg8
I5
sg9
g33
sa(dp2832
g1
S'__sizeof__() -> int\nsize of object in memory, in bytes'
p2833
sg2
I01
sg8
I2
sg9
g36
sa(dp2834
g2
I01
sg8
I5
sg9
g38
sa(dp2835
g1
S'Abstract classes can override this to customize issubclass().\n\nThis is invoked early on by abc.ABCMeta.__subclasscheck__().\nIt should return True, False or NotImplemented.  If it returns\nNotImplemented, the normal algorithm is used.  Otherwise, it\noverrides the normal algorithm (and the outcome is cached).\n'
p2836
sg2
I01
sg8
I2
sg9
g41
sa(dp2837
g2
I01
sg8
I5
sg9
g73
sa(dp2838
g2
I01
sg8
I5
sg9
g43
sa(dp2839
g2
I01
sg8
I5
sg9
S'_fields'
p2840
sasg8
I3
sg9
S'expr_context'
p2841
sa(dp2842
g1
Nsg2
I01
sg3
(lp2843
(dp2844
g2
I01
sg8
I5
sg9
g10
sa(dp2845
g2
I01
sg8
I5
sg9
g51
sa(dp2846
g2
I01
sg8
I5
sg9
g12
sa(dp2847
g1
S'default object formatter'
p2848
sg2
I01
sg8
I2
sg9
g15
sa(dp2849
g2
I01
sg8
I5
sg9
g17
sa(dp2850
g2
I01
sg8
I5
sg9
g19
sa(dp2851
g2
I01
sg8
I5
sg9
g21
sa(dp2852
g2
I01
sg8
I5
sg9
S'__module__'
p2853
sa(dp2854
g1
S'T.__new__(S, ...) -> a new object with type S, a subtype of T'
p2855
sg2
I01
sg8
I2
sg9
g24
sa(dp2856
g1
Nsg2
I01
sg8
I2
sg9
g26
sa(dp2857
g1
S'helper for pickle'
p2858
sg2
I01
sg8
I2
sg9
g29
sa(dp2859
g2
I01
sg8
I5
sg9
g31
sa(dp2860
g2
I01
sg8
I5
sg9
g33
sa(dp2861
g1
S'__sizeof__() -> int\nsize of object in memory, in bytes'
p2862
sg2
I01
sg8
I2
sg9
g36
sa(dp2863
g2
I01
sg8
I5
sg9
g38
sa(dp2864
g1
S'Abstract classes can override this to customize issubclass().\n\nThis is invoked early on by abc.ABCMeta.__subclasscheck__().\nIt should return True, False or NotImplemented.  If it returns\nNotImplemented, the normal algorithm is used.  Otherwise, it\noverrides the normal algorithm (and the outcome is cached).\n'
p2865
sg2
I01
sg8
I2
sg9
g41
sa(dp2866
g2
I01
sg8
I5
sg9
g73
sa(dp2867
g2
I01
sg8
I5
sg9
g43
sa(dp2868
g2
I01
sg8
I5
sg9
S'_fields'
p2869
sasg8
I3
sg9
S'keyword'
p2870
sa(dp2871
g1
Nsg2
I01
sg3
(lp2872
(dp2873
g2
I01
sg8
I5
sg9
g10
sa(dp2874
g2
I01
sg8
I5
sg9
g51
sa(dp2875
g2
I01
sg8
I5
sg9
g12
sa(dp2876
g1
S'default object formatter'
p2877
sg2
I01
sg8
I2
sg9
g15
sa(dp2878
g2
I01
sg8
I5
sg9
g17
sa(dp2879
g2
I01
sg8
I5
sg9
g19
sa(dp2880
g2
I01
sg8
I5
sg9
g21
sa(dp2881
g2
I01
sg8
I5
sg9
S'__module__'
p2882
sa(dp2883
g1
S'T.__new__(S, ...) -> a new object with type S, a subtype of T'
p2884
sg2
I01
sg8
I2
sg9
g24
sa(dp2885
g1
Nsg2
I01
sg8
I2
sg9
g26
sa(dp2886
g1
S'helper for pickle'
p2887
sg2
I01
sg8
I2
sg9
g29
sa(dp2888
g2
I01
sg8
I5
sg9
g31
sa(dp2889
g2
I01
sg8
I5
sg9
g33
sa(dp2890
g1
S'__sizeof__() -> int\nsize of object in memory, in bytes'
p2891
sg2
I01
sg8
I2
sg9
g36
sa(dp2892
g2
I01
sg8
I5
sg9
g38
sa(dp2893
g1
S'Abstract classes can override this to customize issubclass().\n\nThis is invoked early on by abc.ABCMeta.__subclasscheck__().\nIt should return True, False or NotImplemented.  If it returns\nNotImplemented, the normal algorithm is used.  Otherwise, it\noverrides the normal algorithm (and the outcome is cached).\n'
p2894
sg2
I01
sg8
I2
sg9
g41
sa(dp2895
g2
I01
sg8
I5
sg9
g73
sa(dp2896
g2
I01
sg8
I5
sg9
g43
sa(dp2897
g2
I01
sg8
I5
sg9
S'_fields'
p2898
sasg8
I3
sg9
S'mod'
p2899
sa(dp2900
g1
Nsg2
I01
sg3
(lp2901
(dp2902
g2
I01
sg8
I5
sg9
g10
sa(dp2903
g2
I01
sg8
I5
sg9
g51
sa(dp2904
g2
I01
sg8
I5
sg9
g12
sa(dp2905
g1
S'default object formatter'
p2906
sg2
I01
sg8
I2
sg9
g15
sa(dp2907
g2
I01
sg8
I5
sg9
g17
sa(dp2908
g2
I01
sg8
I5
sg9
g19
sa(dp2909
g2
I01
sg8
I5
sg9
g21
sa(dp2910
g2
I01
sg8
I5
sg9
S'__module__'
p2911
sa(dp2912
g1
S'T.__new__(S, ...) -> a new object with type S, a subtype of T'
p2913
sg2
I01
sg8
I2
sg9
g24
sa(dp2914
g1
Nsg2
I01
sg8
I2
sg9
g26
sa(dp2915
g1
S'helper for pickle'
p2916
sg2
I01
sg8
I2
sg9
g29
sa(dp2917
g2
I01
sg8
I5
sg9
g31
sa(dp2918
g2
I01
sg8
I5
sg9
g33
sa(dp2919
g1
S'__sizeof__() -> int\nsize of object in memory, in bytes'
p2920
sg2
I01
sg8
I2
sg9
g36
sa(dp2921
g2
I01
sg8
I5
sg9
g38
sa(dp2922
g1
S'Abstract classes can override this to customize issubclass().\n\nThis is invoked early on by abc.ABCMeta.__subclasscheck__().\nIt should return True, False or NotImplemented.  If it returns\nNotImplemented, the normal algorithm is used.  Otherwise, it\noverrides the normal algorithm (and the outcome is cached).\n'
p2923
sg2
I01
sg8
I2
sg9
g41
sa(dp2924
g2
I01
sg8
I5
sg9
g73
sa(dp2925
g2
I01
sg8
I5
sg9
g43
sa(dp2926
g2
I01
sg8
I5
sg9
S'_fields'
p2927
sasg8
I3
sg9
S'operator'
p2928
sa(dp2929
g1
Nsg2
I01
sg3
(lp2930
(dp2931
g2
I01
sg8
I5
sg9
g10
sa(dp2932
g2
I01
sg8
I5
sg9
g51
sa(dp2933
g2
I01
sg8
I5
sg9
g12
sa(dp2934
g1
S'default object formatter'
p2935
sg2
I01
sg8
I2
sg9
g15
sa(dp2936
g2
I01
sg8
I5
sg9
g17
sa(dp2937
g2
I01
sg8
I5
sg9
g19
sa(dp2938
g2
I01
sg8
I5
sg9
g21
sa(dp2939
g2
I01
sg8
I5
sg9
S'__module__'
p2940
sa(dp2941
g1
S'T.__new__(S, ...) -> a new object with type S, a subtype of T'
p2942
sg2
I01
sg8
I2
sg9
g24
sa(dp2943
g1
Nsg2
I01
sg8
I2
sg9
g26
sa(dp2944
g1
S'helper for pickle'
p2945
sg2
I01
sg8
I2
sg9
g29
sa(dp2946
g2
I01
sg8
I5
sg9
g31
sa(dp2947
g2
I01
sg8
I5
sg9
g33
sa(dp2948
g1
S'__sizeof__() -> int\nsize of object in memory, in bytes'
p2949
sg2
I01
sg8
I2
sg9
g36
sa(dp2950
g2
I01
sg8
I5
sg9
g38
sa(dp2951
g1
S'Abstract classes can override this to customize issubclass().\n\nThis is invoked early on by abc.ABCMeta.__subclasscheck__().\nIt should return True, False or NotImplemented.  If it returns\nNotImplemented, the normal algorithm is used.  Otherwise, it\noverrides the normal algorithm (and the outcome is cached).\n'
p2952
sg2
I01
sg8
I2
sg9
g41
sa(dp2953
g2
I01
sg8
I5
sg9
g73
sa(dp2954
g2
I01
sg8
I5
sg9
g43
sa(dp2955
g2
I01
sg8
I5
sg9
S'_fields'
p2956
sasg8
I3
sg9
S'slice'
p2957
sa(dp2958
g1
Nsg2
I01
sg3
(lp2959
(dp2960
g2
I01
sg8
I5
sg9
g10
sa(dp2961
g2
I01
sg8
I5
sg9
g51
sa(dp2962
g2
I01
sg8
I5
sg9
g12
sa(dp2963
g1
S'default object formatter'
p2964
sg2
I01
sg8
I2
sg9
g15
sa(dp2965
g2
I01
sg8
I5
sg9
g17
sa(dp2966
g2
I01
sg8
I5
sg9
g19
sa(dp2967
g2
I01
sg8
I5
sg9
g21
sa(dp2968
g2
I01
sg8
I5
sg9
S'__module__'
p2969
sa(dp2970
g1
S'T.__new__(S, ...) -> a new object with type S, a subtype of T'
p2971
sg2
I01
sg8
I2
sg9
g24
sa(dp2972
g1
Nsg2
I01
sg8
I2
sg9
g26
sa(dp2973
g1
S'helper for pickle'
p2974
sg2
I01
sg8
I2
sg9
g29
sa(dp2975
g2
I01
sg8
I5
sg9
g31
sa(dp2976
g2
I01
sg8
I5
sg9
g33
sa(dp2977
g1
S'__sizeof__() -> int\nsize of object in memory, in bytes'
p2978
sg2
I01
sg8
I2
sg9
g36
sa(dp2979
g2
I01
sg8
I5
sg9
g38
sa(dp2980
g1
S'Abstract classes can override this to customize issubclass().\n\nThis is invoked early on by abc.ABCMeta.__subclasscheck__().\nIt should return True, False or NotImplemented.  If it returns\nNotImplemented, the normal algorithm is used.  Otherwise, it\noverrides the normal algorithm (and the outcome is cached).\n'
p2981
sg2
I01
sg8
I2
sg9
g41
sa(dp2982
g2
I01
sg8
I5
sg9
g73
sa(dp2983
g2
I01
sg8
I5
sg9
g43
sa(dp2984
g2
I01
sg8
I5
sg9
S'_fields'
p2985
sasg8
I3
sg9
S'stmt'
p2986
sa(dp2987
g1
Nsg2
I01
sg3
(lp2988
(dp2989
g2
I01
sg8
I5
sg9
g10
sa(dp2990
g2
I01
sg8
I5
sg9
g51
sa(dp2991
g2
I01
sg8
I5
sg9
g12
sa(dp2992
g1
S'default object formatter'
p2993
sg2
I01
sg8
I2
sg9
g15
sa(dp2994
g2
I01
sg8
I5
sg9
g17
sa(dp2995
g2
I01
sg8
I5
sg9
g19
sa(dp2996
g2
I01
sg8
I5
sg9
g21
sa(dp2997
g2
I01
sg8
I5
sg9
S'__module__'
p2998
sa(dp2999
g1
S'T.__new__(S, ...) -> a new object with type S, a subtype of T'
p3000
sg2
I01
sg8
I2
sg9
g24
sa(dp3001
g1
Nsg2
I01
sg8
I2
sg9
g26
sa(dp3002
g1
S'helper for pickle'
p3003
sg2
I01
sg8
I2
sg9
g29
sa(dp3004
g2
I01
sg8
I5
sg9
g31
sa(dp3005
g2
I01
sg8
I5
sg9
g33
sa(dp3006
g1
S'__sizeof__() -> int\nsize of object in memory, in bytes'
p3007
sg2
I01
sg8
I2
sg9
g36
sa(dp3008
g2
I01
sg8
I5
sg9
g38
sa(dp3009
g1
S'Abstract classes can override this to customize issubclass().\n\nThis is invoked early on by abc.ABCMeta.__subclasscheck__().\nIt should return True, False or NotImplemented.  If it returns\nNotImplemented, the normal algorithm is used.  Otherwise, it\noverrides the normal algorithm (and the outcome is cached).\n'
p3010
sg2
I01
sg8
I2
sg9
g41
sa(dp3011
g2
I01
sg8
I5
sg9
g73
sa(dp3012
g2
I01
sg8
I5
sg9
g43
sa(dp3013
g2
I01
sg8
I5
sg9
S'_fields'
p3014
sasg8
I3
sg9
S'unaryop'
p3015
sasg9
S'_ast'
p3016
s.