(dp0
S'is_builtin'
p1
I01
sS'childs'
p2
(lp3
(dp4
g1
I01
sg2
(lp5
(dp6
g1
I01
sS'type'
p7
I5
sS'name'
p8
S'__delattr__'
p9
sa(dp10
g1
I01
sg7
I5
sg8
S'__doc__'
p11
sa(dp12
g1
I01
sg7
I2
sg8
S'__format__'
p13
sa(dp14
g1
I01
sg7
I5
sg8
S'__getattribute__'
p15
sa(dp16
g1
I01
sg7
I5
sg8
S'__hash__'
p17
sa(dp18
g1
I01
sg7
I5
sg8
S'__init__'
p19
sa(dp20
g1
I01
sg7
I2
sg8
S'__new__'
p21
sa(dp22
g1
I01
sg7
I2
sg8
S'__reduce__'
p23
sa(dp24
g1
I01
sg7
I2
sg8
S'__reduce_ex__'
p25
sa(dp26
g1
I01
sg7
I5
sg8
S'__repr__'
p27
sa(dp28
g1
I01
sg7
I5
sg8
S'__setattr__'
p29
sa(dp30
g1
I01
sg7
I2
sg8
S'__sizeof__'
p31
sa(dp32
g1
I01
sg7
I5
sg8
S'__str__'
p33
sa(dp34
g1
I01
sg7
I2
sg8
S'__subclasshook__'
p35
sa(dp36
g1
I01
sg7
I5
sg8
S'_attributes'
p37
sa(dp38
g1
I01
sg7
I5
sg8
S'_fields'
p39
sasg7
I3
sg8
S'AST'
p40
sa(dp41
g1
I01
sg2
(lp42
(dp43
g1
I01
sg7
I5
sg8
g9
sa(dp44
g1
I01
sg7
I5
sg8
S'__dict__'
p45
sa(dp46
g1
I01
sg7
I5
sg8
g11
sa(dp47
g1
I01
sg7
I2
sg8
g13
sa(dp48
g1
I01
sg7
I5
sg8
g15
sa(dp49
g1
I01
sg7
I5
sg8
g17
sa(dp50
g1
I01
sg7
I5
sg8
g19
sa(dp51
g1
I01
sg7
I5
sg8
S'__module__'
p52
sa(dp53
g1
I01
sg7
I2
sg8
g21
sa(dp54
g1
I01
sg7
I2
sg8
g23
sa(dp55
g1
I01
sg7
I2
sg8
g25
sa(dp56
g1
I01
sg7
I5
sg8
g27
sa(dp57
g1
I01
sg7
I5
sg8
g29
sa(dp58
g1
I01
sg7
I2
sg8
g31
sa(dp59
g1
I01
sg7
I5
sg8
g33
sa(dp60
g1
I01
sg7
I2
sg8
g35
sa(dp61
g1
I01
sg7
I5
sg8
S'__weakref__'
p62
sa(dp63
g1
I01
sg7
I5
sg8
g37
sa(dp64
g1
I01
sg7
I5
sg8
S'_fields'
p65
sasg7
I3
sg8
S'Add'
p66
sa(dp67
g1
I01
sg2
(lp68
(dp69
g1
I01
sg7
I5
sg8
g9
sa(dp70
g1
I01
sg7
I5
sg8
g45
sa(dp71
g1
I01
sg7
I5
sg8
g11
sa(dp72
g1
I01
sg7
I2
sg8
g13
sa(dp73
g1
I01
sg7
I5
sg8
g15
sa(dp74
g1
I01
sg7
I5
sg8
g17
sa(dp75
g1
I01
sg7
I5
sg8
g19
sa(dp76
g1
I01
sg7
I5
sg8
S'__module__'
p77
sa(dp78
g1
I01
sg7
I2
sg8
g21
sa(dp79
g1
I01
sg7
I2
sg8
g23
sa(dp80
g1
I01
sg7
I2
sg8
g25
sa(dp81
g1
I01
sg7
I5
sg8
g27
sa(dp82
g1
I01
sg7
I5
sg8
g29
sa(dp83
g1
I01
sg7
I2
sg8
g31
sa(dp84
g1
I01
sg7
I5
sg8
g33
sa(dp85
g1
I01
sg7
I2
sg8
g35
sa(dp86
g1
I01
sg7
I5
sg8
g62
sa(dp87
g1
I01
sg7
I5
sg8
g37
sa(dp88
g1
I01
sg7
I5
sg8
S'_fields'
p89
sasg7
I3
sg8
S'And'
p90
sa(dp91
g1
I01
sg2
(lp92
(dp93
g1
I01
sg7
I5
sg8
g9
sa(dp94
g1
I01
sg7
I5
sg8
g45
sa(dp95
g1
I01
sg7
I5
sg8
g11
sa(dp96
g1
I01
sg7
I2
sg8
g13
sa(dp97
g1
I01
sg7
I5
sg8
g15
sa(dp98
g1
I01
sg7
I5
sg8
g17
sa(dp99
g1
I01
sg7
I5
sg8
g19
sa(dp100
g1
I01
sg7
I5
sg8
S'__module__'
p101
sa(dp102
g1
I01
sg7
I2
sg8
g21
sa(dp103
g1
I01
sg7
I2
sg8
g23
sa(dp104
g1
I01
sg7
I2
sg8
g25
sa(dp105
g1
I01
sg7
I5
sg8
g27
sa(dp106
g1
I01
sg7
I5
sg8
g29
sa(dp107
g1
I01
sg7
I2
sg8
g31
sa(dp108
g1
I01
sg7
I5
sg8
g33
sa(dp109
g1
I01
sg7
I2
sg8
g35
sa(dp110
g1
I01
sg7
I5
sg8
g62
sa(dp111
g1
I01
sg7
I5
sg8
g37
sa(dp112
g1
I01
sg7
I5
sg8
S'_fields'
p113
sasg7
I3
sg8
S'Assert'
p114
sa(dp115
g1
I01
sg2
(lp116
(dp117
g1
I01
sg7
I5
sg8
g9
sa(dp118
g1
I01
sg7
I5
sg8
g45
sa(dp119
g1
I01
sg7
I5
sg8
g11
sa(dp120
g1
I01
sg7
I2
sg8
g13
sa(dp121
g1
I01
sg7
I5
sg8
g15
sa(dp122
g1
I01
sg7
I5
sg8
g17
sa(dp123
g1
I01
sg7
I5
sg8
g19
sa(dp124
g1
I01
sg7
I5
sg8
S'__module__'
p125
sa(dp126
g1
I01
sg7
I2
sg8
g21
sa(dp127
g1
I01
sg7
I2
sg8
g23
sa(dp128
g1
I01
sg7
I2
sg8
g25
sa(dp129
g1
I01
sg7
I5
sg8
g27
sa(dp130
g1
I01
sg7
I5
sg8
g29
sa(dp131
g1
I01
sg7
I2
sg8
g31
sa(dp132
g1
I01
sg7
I5
sg8
g33
sa(dp133
g1
I01
sg7
I2
sg8
g35
sa(dp134
g1
I01
sg7
I5
sg8
g62
sa(dp135
g1
I01
sg7
I5
sg8
g37
sa(dp136
g1
I01
sg7
I5
sg8
S'_fields'
p137
sasg7
I3
sg8
S'Assign'
p138
sa(dp139
g1
I01
sg2
(lp140
(dp141
g1
I01
sg7
I5
sg8
g9
sa(dp142
g1
I01
sg7
I5
sg8
g45
sa(dp143
g1
I01
sg7
I5
sg8
g11
sa(dp144
g1
I01
sg7
I2
sg8
g13
sa(dp145
g1
I01
sg7
I5
sg8
g15
sa(dp146
g1
I01
sg7
I5
sg8
g17
sa(dp147
g1
I01
sg7
I5
sg8
g19
sa(dp148
g1
I01
sg7
I5
sg8
S'__module__'
p149
sa(dp150
g1
I01
sg7
I2
sg8
g21
sa(dp151
g1
I01
sg7
I2
sg8
g23
sa(dp152
g1
I01
sg7
I2
sg8
g25
sa(dp153
g1
I01
sg7
I5
sg8
g27
sa(dp154
g1
I01
sg7
I5
sg8
g29
sa(dp155
g1
I01
sg7
I2
sg8
g31
sa(dp156
g1
I01
sg7
I5
sg8
g33
sa(dp157
g1
I01
sg7
I2
sg8
g35
sa(dp158
g1
I01
sg7
I5
sg8
g62
sa(dp159
g1
I01
sg7
I5
sg8
g37
sa(dp160
g1
I01
sg7
I5
sg8
S'_fields'
p161
sasg7
I3
sg8
S'Attribute'
p162
sa(dp163
g1
I01
sg2
(lp164
(dp165
g1
I01
sg7
I5
sg8
g9
sa(dp166
g1
I01
sg7
I5
sg8
g45
sa(dp167
g1
I01
sg7
I5
sg8
g11
sa(dp168
g1
I01
sg7
I2
sg8
g13
sa(dp169
g1
I01
sg7
I5
sg8
g15
sa(dp170
g1
I01
sg7
I5
sg8
g17
sa(dp171
g1
I01
sg7
I5
sg8
g19
sa(dp172
g1
I01
sg7
I5
sg8
S'__module__'
p173
sa(dp174
g1
I01
sg7
I2
sg8
g21
sa(dp175
g1
I01
sg7
I2
sg8
g23
sa(dp176
g1
I01
sg7
I2
sg8
g25
sa(dp177
g1
I01
sg7
I5
sg8
g27
sa(dp178
g1
I01
sg7
I5
sg8
g29
sa(dp179
g1
I01
sg7
I2
sg8
g31
sa(dp180
g1
I01
sg7
I5
sg8
g33
sa(dp181
g1
I01
sg7
I2
sg8
g35
sa(dp182
g1
I01
sg7
I5
sg8
g62
sa(dp183
g1
I01
sg7
I5
sg8
g37
sa(dp184
g1
I01
sg7
I5
sg8
S'_fields'
p185
sasg7
I3
sg8
S'AugAssign'
p186
sa(dp187
g1
I01
sg2
(lp188
(dp189
g1
I01
sg7
I5
sg8
g9
sa(dp190
g1
I01
sg7
I5
sg8
g45
sa(dp191
g1
I01
sg7
I5
sg8
g11
sa(dp192
g1
I01
sg7
I2
sg8
g13
sa(dp193
g1
I01
sg7
I5
sg8
g15
sa(dp194
g1
I01
sg7
I5
sg8
g17
sa(dp195
g1
I01
sg7
I5
sg8
g19
sa(dp196
g1
I01
sg7
I5
sg8
S'__module__'
p197
sa(dp198
g1
I01
sg7
I2
sg8
g21
sa(dp199
g1
I01
sg7
I2
sg8
g23
sa(dp200
g1
I01
sg7
I2
sg8
g25
sa(dp201
g1
I01
sg7
I5
sg8
g27
sa(dp202
g1
I01
sg7
I5
sg8
g29
sa(dp203
g1
I01
sg7
I2
sg8
g31
sa(dp204
g1
I01
sg7
I5
sg8
g33
sa(dp205
g1
I01
sg7
I2
sg8
g35
sa(dp206
g1
I01
sg7
I5
sg8
g62
sa(dp207
g1
I01
sg7
I5
sg8
g37
sa(dp208
g1
I01
sg7
I5
sg8
S'_fields'
p209
sasg7
I3
sg8
S'AugLoad'
p210
sa(dp211
g1
I01
sg2
(lp212
(dp213
g1
I01
sg7
I5
sg8
g9
sa(dp214
g1
I01
sg7
I5
sg8
g45
sa(dp215
g1
I01
sg7
I5
sg8
g11
sa(dp216
g1
I01
sg7
I2
sg8
g13
sa(dp217
g1
I01
sg7
I5
sg8
g15
sa(dp218
g1
I01
sg7
I5
sg8
g17
sa(dp219
g1
I01
sg7
I5
sg8
g19
sa(dp220
g1
I01
sg7
I5
sg8
S'__module__'
p221
sa(dp222
g1
I01
sg7
I2
sg8
g21
sa(dp223
g1
I01
sg7
I2
sg8
g23
sa(dp224
g1
I01
sg7
I2
sg8
g25
sa(dp225
g1
I01
sg7
I5
sg8
g27
sa(dp226
g1
I01
sg7
I5
sg8
g29
sa(dp227
g1
I01
sg7
I2
sg8
g31
sa(dp228
g1
I01
sg7
I5
sg8
g33
sa(dp229
g1
I01
sg7
I2
sg8
g35
sa(dp230
g1
I01
sg7
I5
sg8
g62
sa(dp231
g1
I01
sg7
I5
sg8
g37
sa(dp232
g1
I01
sg7
I5
sg8
S'_fields'
p233
sasg7
I3
sg8
S'AugStore'
p234
sa(dp235
g1
I01
sg2
(lp236
(dp237
g1
I01
sg7
I5
sg8
g9
sa(dp238
g1
I01
sg7
I5
sg8
g45
sa(dp239
g1
I01
sg7
I5
sg8
g11
sa(dp240
g1
I01
sg7
I2
sg8
g13
sa(dp241
g1
I01
sg7
I5
sg8
g15
sa(dp242
g1
I01
sg7
I5
sg8
g17
sa(dp243
g1
I01
sg7
I5
sg8
g19
sa(dp244
g1
I01
sg7
I5
sg8
S'__module__'
p245
sa(dp246
g1
I01
sg7
I2
sg8
g21
sa(dp247
g1
I01
sg7
I2
sg8
g23
sa(dp248
g1
I01
sg7
I2
sg8
g25
sa(dp249
g1
I01
sg7
I5
sg8
g27
sa(dp250
g1
I01
sg7
I5
sg8
g29
sa(dp251
g1
I01
sg7
I2
sg8
g31
sa(dp252
g1
I01
sg7
I5
sg8
g33
sa(dp253
g1
I01
sg7
I2
sg8
g35
sa(dp254
g1
I01
sg7
I5
sg8
g62
sa(dp255
g1
I01
sg7
I5
sg8
g37
sa(dp256
g1
I01
sg7
I5
sg8
S'_fields'
p257
sasg7
I3
sg8
S'BinOp'
p258
sa(dp259
g1
I01
sg2
(lp260
(dp261
g1
I01
sg7
I5
sg8
g9
sa(dp262
g1
I01
sg7
I5
sg8
g45
sa(dp263
g1
I01
sg7
I5
sg8
g11
sa(dp264
g1
I01
sg7
I2
sg8
g13
sa(dp265
g1
I01
sg7
I5
sg8
g15
sa(dp266
g1
I01
sg7
I5
sg8
g17
sa(dp267
g1
I01
sg7
I5
sg8
g19
sa(dp268
g1
I01
sg7
I5
sg8
S'__module__'
p269
sa(dp270
g1
I01
sg7
I2
sg8
g21
sa(dp271
g1
I01
sg7
I2
sg8
g23
sa(dp272
g1
I01
sg7
I2
sg8
g25
sa(dp273
g1
I01
sg7
I5
sg8
g27
sa(dp274
g1
I01
sg7
I5
sg8
g29
sa(dp275
g1
I01
sg7
I2
sg8
g31
sa(dp276
g1
I01
sg7
I5
sg8
g33
sa(dp277
g1
I01
sg7
I2
sg8
g35
sa(dp278
g1
I01
sg7
I5
sg8
g62
sa(dp279
g1
I01
sg7
I5
sg8
g37
sa(dp280
g1
I01
sg7
I5
sg8
S'_fields'
p281
sasg7
I3
sg8
S'BitAnd'
p282
sa(dp283
g1
I01
sg2
(lp284
(dp285
g1
I01
sg7
I5
sg8
g9
sa(dp286
g1
I01
sg7
I5
sg8
g45
sa(dp287
g1
I01
sg7
I5
sg8
g11
sa(dp288
g1
I01
sg7
I2
sg8
g13
sa(dp289
g1
I01
sg7
I5
sg8
g15
sa(dp290
g1
I01
sg7
I5
sg8
g17
sa(dp291
g1
I01
sg7
I5
sg8
g19
sa(dp292
g1
I01
sg7
I5
sg8
S'__module__'
p293
sa(dp294
g1
I01
sg7
I2
sg8
g21
sa(dp295
g1
I01
sg7
I2
sg8
g23
sa(dp296
g1
I01
sg7
I2
sg8
g25
sa(dp297
g1
I01
sg7
I5
sg8
g27
sa(dp298
g1
I01
sg7
I5
sg8
g29
sa(dp299
g1
I01
sg7
I2
sg8
g31
sa(dp300
g1
I01
sg7
I5
sg8
g33
sa(dp301
g1
I01
sg7
I2
sg8
g35
sa(dp302
g1
I01
sg7
I5
sg8
g62
sa(dp303
g1
I01
sg7
I5
sg8
g37
sa(dp304
g1
I01
sg7
I5
sg8
S'_fields'
p305
sasg7
I3
sg8
S'BitOr'
p306
sa(dp307
g1
I01
sg2
(lp308
(dp309
g1
I01
sg7
I5
sg8
g9
sa(dp310
g1
I01
sg7
I5
sg8
g45
sa(dp311
g1
I01
sg7
I5
sg8
g11
sa(dp312
g1
I01
sg7
I2
sg8
g13
sa(dp313
g1
I01
sg7
I5
sg8
g15
sa(dp314
g1
I01
sg7
I5
sg8
g17
sa(dp315
g1
I01
sg7
I5
sg8
g19
sa(dp316
g1
I01
sg7
I5
sg8
S'__module__'
p317
sa(dp318
g1
I01
sg7
I2
sg8
g21
sa(dp319
g1
I01
sg7
I2
sg8
g23
sa(dp320
g1
I01
sg7
I2
sg8
g25
sa(dp321
g1
I01
sg7
I5
sg8
g27
sa(dp322
g1
I01
sg7
I5
sg8
g29
sa(dp323
g1
I01
sg7
I2
sg8
g31
sa(dp324
g1
I01
sg7
I5
sg8
g33
sa(dp325
g1
I01
sg7
I2
sg8
g35
sa(dp326
g1
I01
sg7
I5
sg8
g62
sa(dp327
g1
I01
sg7
I5
sg8
g37
sa(dp328
g1
I01
sg7
I5
sg8
S'_fields'
p329
sasg7
I3
sg8
S'BitXor'
p330
sa(dp331
g1
I01
sg2
(lp332
(dp333
g1
I01
sg7
I5
sg8
g9
sa(dp334
g1
I01
sg7
I5
sg8
g45
sa(dp335
g1
I01
sg7
I5
sg8
g11
sa(dp336
g1
I01
sg7
I2
sg8
g13
sa(dp337
g1
I01
sg7
I5
sg8
g15
sa(dp338
g1
I01
sg7
I5
sg8
g17
sa(dp339
g1
I01
sg7
I5
sg8
g19
sa(dp340
g1
I01
sg7
I5
sg8
S'__module__'
p341
sa(dp342
g1
I01
sg7
I2
sg8
g21
sa(dp343
g1
I01
sg7
I2
sg8
g23
sa(dp344
g1
I01
sg7
I2
sg8
g25
sa(dp345
g1
I01
sg7
I5
sg8
g27
sa(dp346
g1
I01
sg7
I5
sg8
g29
sa(dp347
g1
I01
sg7
I2
sg8
g31
sa(dp348
g1
I01
sg7
I5
sg8
g33
sa(dp349
g1
I01
sg7
I2
sg8
g35
sa(dp350
g1
I01
sg7
I5
sg8
g62
sa(dp351
g1
I01
sg7
I5
sg8
g37
sa(dp352
g1
I01
sg7
I5
sg8
S'_fields'
p353
sasg7
I3
sg8
S'BoolOp'
p354
sa(dp355
g1
I01
sg2
(lp356
(dp357
g1
I01
sg7
I5
sg8
g9
sa(dp358
g1
I01
sg7
I5
sg8
g45
sa(dp359
g1
I01
sg7
I5
sg8
g11
sa(dp360
g1
I01
sg7
I2
sg8
g13
sa(dp361
g1
I01
sg7
I5
sg8
g15
sa(dp362
g1
I01
sg7
I5
sg8
g17
sa(dp363
g1
I01
sg7
I5
sg8
g19
sa(dp364
g1
I01
sg7
I5
sg8
S'__module__'
p365
sa(dp366
g1
I01
sg7
I2
sg8
g21
sa(dp367
g1
I01
sg7
I2
sg8
g23
sa(dp368
g1
I01
sg7
I2
sg8
g25
sa(dp369
g1
I01
sg7
I5
sg8
g27
sa(dp370
g1
I01
sg7
I5
sg8
g29
sa(dp371
g1
I01
sg7
I2
sg8
g31
sa(dp372
g1
I01
sg7
I5
sg8
g33
sa(dp373
g1
I01
sg7
I2
sg8
g35
sa(dp374
g1
I01
sg7
I5
sg8
g62
sa(dp375
g1
I01
sg7
I5
sg8
g37
sa(dp376
g1
I01
sg7
I5
sg8
S'_fields'
p377
sasg7
I3
sg8
S'Break'
p378
sa(dp379
g1
I01
sg2
(lp380
(dp381
g1
I01
sg7
I5
sg8
g9
sa(dp382
g1
I01
sg7
I5
sg8
g45
sa(dp383
g1
I01
sg7
I5
sg8
g11
sa(dp384
g1
I01
sg7
I2
sg8
g13
sa(dp385
g1
I01
sg7
I5
sg8
g15
sa(dp386
g1
I01
sg7
I5
sg8
g17
sa(dp387
g1
I01
sg7
I5
sg8
g19
sa(dp388
g1
I01
sg7
I5
sg8
S'__module__'
p389
sa(dp390
g1
I01
sg7
I2
sg8
g21
sa(dp391
g1
I01
sg7
I2
sg8
g23
sa(dp392
g1
I01
sg7
I2
sg8
g25
sa(dp393
g1
I01
sg7
I5
sg8
g27
sa(dp394
g1
I01
sg7
I5
sg8
g29
sa(dp395
g1
I01
sg7
I2
sg8
g31
sa(dp396
g1
I01
sg7
I5
sg8
g33
sa(dp397
g1
I01
sg7
I2
sg8
g35
sa(dp398
g1
I01
sg7
I5
sg8
g62
sa(dp399
g1
I01
sg7
I5
sg8
g37
sa(dp400
g1
I01
sg7
I5
sg8
S'_fields'
p401
sasg7
I3
sg8
S'Call'
p402
sa(dp403
g1
I01
sg2
(lp404
(dp405
g1
I01
sg7
I5
sg8
g9
sa(dp406
g1
I01
sg7
I5
sg8
g45
sa(dp407
g1
I01
sg7
I5
sg8
g11
sa(dp408
g1
I01
sg7
I2
sg8
g13
sa(dp409
g1
I01
sg7
I5
sg8
g15
sa(dp410
g1
I01
sg7
I5
sg8
g17
sa(dp411
g1
I01
sg7
I5
sg8
g19
sa(dp412
g1
I01
sg7
I5
sg8
S'__module__'
p413
sa(dp414
g1
I01
sg7
I2
sg8
g21
sa(dp415
g1
I01
sg7
I2
sg8
g23
sa(dp416
g1
I01
sg7
I2
sg8
g25
sa(dp417
g1
I01
sg7
I5
sg8
g27
sa(dp418
g1
I01
sg7
I5
sg8
g29
sa(dp419
g1
I01
sg7
I2
sg8
g31
sa(dp420
g1
I01
sg7
I5
sg8
g33
sa(dp421
g1
I01
sg7
I2
sg8
g35
sa(dp422
g1
I01
sg7
I5
sg8
g62
sa(dp423
g1
I01
sg7
I5
sg8
g37
sa(dp424
g1
I01
sg7
I5
sg8
S'_fields'
p425
sasg7
I3
sg8
S'ClassDef'
p426
sa(dp427
g1
I01
sg2
(lp428
(dp429
g1
I01
sg7
I5
sg8
g9
sa(dp430
g1
I01
sg7
I5
sg8
g45
sa(dp431
g1
I01
sg7
I5
sg8
g11
sa(dp432
g1
I01
sg7
I2
sg8
g13
sa(dp433
g1
I01
sg7
I5
sg8
g15
sa(dp434
g1
I01
sg7
I5
sg8
g17
sa(dp435
g1
I01
sg7
I5
sg8
g19
sa(dp436
g1
I01
sg7
I5
sg8
S'__module__'
p437
sa(dp438
g1
I01
sg7
I2
sg8
g21
sa(dp439
g1
I01
sg7
I2
sg8
g23
sa(dp440
g1
I01
sg7
I2
sg8
g25
sa(dp441
g1
I01
sg7
I5
sg8
g27
sa(dp442
g1
I01
sg7
I5
sg8
g29
sa(dp443
g1
I01
sg7
I2
sg8
g31
sa(dp444
g1
I01
sg7
I5
sg8
g33
sa(dp445
g1
I01
sg7
I2
sg8
g35
sa(dp446
g1
I01
sg7
I5
sg8
g62
sa(dp447
g1
I01
sg7
I5
sg8
g37
sa(dp448
g1
I01
sg7
I5
sg8
S'_fields'
p449
sasg7
I3
sg8
S'Compare'
p450
sa(dp451
g1
I01
sg2
(lp452
(dp453
g1
I01
sg7
I5
sg8
g9
sa(dp454
g1
I01
sg7
I5
sg8
g45
sa(dp455
g1
I01
sg7
I5
sg8
g11
sa(dp456
g1
I01
sg7
I2
sg8
g13
sa(dp457
g1
I01
sg7
I5
sg8
g15
sa(dp458
g1
I01
sg7
I5
sg8
g17
sa(dp459
g1
I01
sg7
I5
sg8
g19
sa(dp460
g1
I01
sg7
I5
sg8
S'__module__'
p461
sa(dp462
g1
I01
sg7
I2
sg8
g21
sa(dp463
g1
I01
sg7
I2
sg8
g23
sa(dp464
g1
I01
sg7
I2
sg8
g25
sa(dp465
g1
I01
sg7
I5
sg8
g27
sa(dp466
g1
I01
sg7
I5
sg8
g29
sa(dp467
g1
I01
sg7
I2
sg8
g31
sa(dp468
g1
I01
sg7
I5
sg8
g33
sa(dp469
g1
I01
sg7
I2
sg8
g35
sa(dp470
g1
I01
sg7
I5
sg8
g62
sa(dp471
g1
I01
sg7
I5
sg8
g37
sa(dp472
g1
I01
sg7
I5
sg8
S'_fields'
p473
sasg7
I3
sg8
S'Continue'
p474
sa(dp475
g1
I01
sg2
(lp476
(dp477
g1
I01
sg7
I5
sg8
g9
sa(dp478
g1
I01
sg7
I5
sg8
g45
sa(dp479
g1
I01
sg7
I5
sg8
g11
sa(dp480
g1
I01
sg7
I2
sg8
g13
sa(dp481
g1
I01
sg7
I5
sg8
g15
sa(dp482
g1
I01
sg7
I5
sg8
g17
sa(dp483
g1
I01
sg7
I5
sg8
g19
sa(dp484
g1
I01
sg7
I5
sg8
S'__module__'
p485
sa(dp486
g1
I01
sg7
I2
sg8
g21
sa(dp487
g1
I01
sg7
I2
sg8
g23
sa(dp488
g1
I01
sg7
I2
sg8
g25
sa(dp489
g1
I01
sg7
I5
sg8
g27
sa(dp490
g1
I01
sg7
I5
sg8
g29
sa(dp491
g1
I01
sg7
I2
sg8
g31
sa(dp492
g1
I01
sg7
I5
sg8
g33
sa(dp493
g1
I01
sg7
I2
sg8
g35
sa(dp494
g1
I01
sg7
I5
sg8
g62
sa(dp495
g1
I01
sg7
I5
sg8
g37
sa(dp496
g1
I01
sg7
I5
sg8
S'_fields'
p497
sasg7
I3
sg8
S'Del'
p498
sa(dp499
g1
I01
sg2
(lp500
(dp501
g1
I01
sg7
I5
sg8
g9
sa(dp502
g1
I01
sg7
I5
sg8
g45
sa(dp503
g1
I01
sg7
I5
sg8
g11
sa(dp504
g1
I01
sg7
I2
sg8
g13
sa(dp505
g1
I01
sg7
I5
sg8
g15
sa(dp506
g1
I01
sg7
I5
sg8
g17
sa(dp507
g1
I01
sg7
I5
sg8
g19
sa(dp508
g1
I01
sg7
I5
sg8
S'__module__'
p509
sa(dp510
g1
I01
sg7
I2
sg8
g21
sa(dp511
g1
I01
sg7
I2
sg8
g23
sa(dp512
g1
I01
sg7
I2
sg8
g25
sa(dp513
g1
I01
sg7
I5
sg8
g27
sa(dp514
g1
I01
sg7
I5
sg8
g29
sa(dp515
g1
I01
sg7
I2
sg8
g31
sa(dp516
g1
I01
sg7
I5
sg8
g33
sa(dp517
g1
I01
sg7
I2
sg8
g35
sa(dp518
g1
I01
sg7
I5
sg8
g62
sa(dp519
g1
I01
sg7
I5
sg8
g37
sa(dp520
g1
I01
sg7
I5
sg8
S'_fields'
p521
sasg7
I3
sg8
S'Delete'
p522
sa(dp523
g1
I01
sg2
(lp524
(dp525
g1
I01
sg7
I5
sg8
g9
sa(dp526
g1
I01
sg7
I5
sg8
g45
sa(dp527
g1
I01
sg7
I5
sg8
g11
sa(dp528
g1
I01
sg7
I2
sg8
g13
sa(dp529
g1
I01
sg7
I5
sg8
g15
sa(dp530
g1
I01
sg7
I5
sg8
g17
sa(dp531
g1
I01
sg7
I5
sg8
g19
sa(dp532
g1
I01
sg7
I5
sg8
S'__module__'
p533
sa(dp534
g1
I01
sg7
I2
sg8
g21
sa(dp535
g1
I01
sg7
I2
sg8
g23
sa(dp536
g1
I01
sg7
I2
sg8
g25
sa(dp537
g1
I01
sg7
I5
sg8
g27
sa(dp538
g1
I01
sg7
I5
sg8
g29
sa(dp539
g1
I01
sg7
I2
sg8
g31
sa(dp540
g1
I01
sg7
I5
sg8
g33
sa(dp541
g1
I01
sg7
I2
sg8
g35
sa(dp542
g1
I01
sg7
I5
sg8
g62
sa(dp543
g1
I01
sg7
I5
sg8
g37
sa(dp544
g1
I01
sg7
I5
sg8
S'_fields'
p545
sasg7
I3
sg8
S'Dict'
p546
sa(dp547
g1
I01
sg2
(lp548
(dp549
g1
I01
sg7
I5
sg8
g9
sa(dp550
g1
I01
sg7
I5
sg8
g45
sa(dp551
g1
I01
sg7
I5
sg8
g11
sa(dp552
g1
I01
sg7
I2
sg8
g13
sa(dp553
g1
I01
sg7
I5
sg8
g15
sa(dp554
g1
I01
sg7
I5
sg8
g17
sa(dp555
g1
I01
sg7
I5
sg8
g19
sa(dp556
g1
I01
sg7
I5
sg8
S'__module__'
p557
sa(dp558
g1
I01
sg7
I2
sg8
g21
sa(dp559
g1
I01
sg7
I2
sg8
g23
sa(dp560
g1
I01
sg7
I2
sg8
g25
sa(dp561
g1
I01
sg7
I5
sg8
g27
sa(dp562
g1
I01
sg7
I5
sg8
g29
sa(dp563
g1
I01
sg7
I2
sg8
g31
sa(dp564
g1
I01
sg7
I5
sg8
g33
sa(dp565
g1
I01
sg7
I2
sg8
g35
sa(dp566
g1
I01
sg7
I5
sg8
g62
sa(dp567
g1
I01
sg7
I5
sg8
g37
sa(dp568
g1
I01
sg7
I5
sg8
S'_fields'
p569
sasg7
I3
sg8
S'DictComp'
p570
sa(dp571
g1
I01
sg2
(lp572
(dp573
g1
I01
sg7
I5
sg8
g9
sa(dp574
g1
I01
sg7
I5
sg8
g45
sa(dp575
g1
I01
sg7
I5
sg8
g11
sa(dp576
g1
I01
sg7
I2
sg8
g13
sa(dp577
g1
I01
sg7
I5
sg8
g15
sa(dp578
g1
I01
sg7
I5
sg8
g17
sa(dp579
g1
I01
sg7
I5
sg8
g19
sa(dp580
g1
I01
sg7
I5
sg8
S'__module__'
p581
sa(dp582
g1
I01
sg7
I2
sg8
g21
sa(dp583
g1
I01
sg7
I2
sg8
g23
sa(dp584
g1
I01
sg7
I2
sg8
g25
sa(dp585
g1
I01
sg7
I5
sg8
g27
sa(dp586
g1
I01
sg7
I5
sg8
g29
sa(dp587
g1
I01
sg7
I2
sg8
g31
sa(dp588
g1
I01
sg7
I5
sg8
g33
sa(dp589
g1
I01
sg7
I2
sg8
g35
sa(dp590
g1
I01
sg7
I5
sg8
g62
sa(dp591
g1
I01
sg7
I5
sg8
g37
sa(dp592
g1
I01
sg7
I5
sg8
S'_fields'
p593
sasg7
I3
sg8
S'Div'
p594
sa(dp595
g1
I01
sg2
(lp596
(dp597
g1
I01
sg7
I5
sg8
g9
sa(dp598
g1
I01
sg7
I5
sg8
g45
sa(dp599
g1
I01
sg7
I5
sg8
g11
sa(dp600
g1
I01
sg7
I2
sg8
g13
sa(dp601
g1
I01
sg7
I5
sg8
g15
sa(dp602
g1
I01
sg7
I5
sg8
g17
sa(dp603
g1
I01
sg7
I5
sg8
g19
sa(dp604
g1
I01
sg7
I5
sg8
S'__module__'
p605
sa(dp606
g1
I01
sg7
I2
sg8
g21
sa(dp607
g1
I01
sg7
I2
sg8
g23
sa(dp608
g1
I01
sg7
I2
sg8
g25
sa(dp609
g1
I01
sg7
I5
sg8
g27
sa(dp610
g1
I01
sg7
I5
sg8
g29
sa(dp611
g1
I01
sg7
I2
sg8
g31
sa(dp612
g1
I01
sg7
I5
sg8
g33
sa(dp613
g1
I01
sg7
I2
sg8
g35
sa(dp614
g1
I01
sg7
I5
sg8
g62
sa(dp615
g1
I01
sg7
I5
sg8
g37
sa(dp616
g1
I01
sg7
I5
sg8
S'_fields'
p617
sasg7
I3
sg8
S'Ellipsis'
p618
sa(dp619
g1
I01
sg2
(lp620
(dp621
g1
I01
sg7
I5
sg8
g9
sa(dp622
g1
I01
sg7
I5
sg8
g45
sa(dp623
g1
I01
sg7
I5
sg8
g11
sa(dp624
g1
I01
sg7
I2
sg8
g13
sa(dp625
g1
I01
sg7
I5
sg8
g15
sa(dp626
g1
I01
sg7
I5
sg8
g17
sa(dp627
g1
I01
sg7
I5
sg8
g19
sa(dp628
g1
I01
sg7
I5
sg8
S'__module__'
p629
sa(dp630
g1
I01
sg7
I2
sg8
g21
sa(dp631
g1
I01
sg7
I2
sg8
g23
sa(dp632
g1
I01
sg7
I2
sg8
g25
sa(dp633
g1
I01
sg7
I5
sg8
g27
sa(dp634
g1
I01
sg7
I5
sg8
g29
sa(dp635
g1
I01
sg7
I2
sg8
g31
sa(dp636
g1
I01
sg7
I5
sg8
g33
sa(dp637
g1
I01
sg7
I2
sg8
g35
sa(dp638
g1
I01
sg7
I5
sg8
g62
sa(dp639
g1
I01
sg7
I5
sg8
g37
sa(dp640
g1
I01
sg7
I5
sg8
S'_fields'
p641
sasg7
I3
sg8
S'Eq'
p642
sa(dp643
g1
I01
sg2
(lp644
(dp645
g1
I01
sg7
I5
sg8
g9
sa(dp646
g1
I01
sg7
I5
sg8
g45
sa(dp647
g1
I01
sg7
I5
sg8
g11
sa(dp648
g1
I01
sg7
I2
sg8
g13
sa(dp649
g1
I01
sg7
I5
sg8
g15
sa(dp650
g1
I01
sg7
I5
sg8
g17
sa(dp651
g1
I01
sg7
I5
sg8
g19
sa(dp652
g1
I01
sg7
I5
sg8
S'__module__'
p653
sa(dp654
g1
I01
sg7
I2
sg8
g21
sa(dp655
g1
I01
sg7
I2
sg8
g23
sa(dp656
g1
I01
sg7
I2
sg8
g25
sa(dp657
g1
I01
sg7
I5
sg8
g27
sa(dp658
g1
I01
sg7
I5
sg8
g29
sa(dp659
g1
I01
sg7
I2
sg8
g31
sa(dp660
g1
I01
sg7
I5
sg8
g33
sa(dp661
g1
I01
sg7
I2
sg8
g35
sa(dp662
g1
I01
sg7
I5
sg8
g62
sa(dp663
g1
I01
sg7
I5
sg8
g37
sa(dp664
g1
I01
sg7
I5
sg8
S'_fields'
p665
sasg7
I3
sg8
S'ExceptHandler'
p666
sa(dp667
g1
I01
sg2
(lp668
(dp669
g1
I01
sg7
I5
sg8
g9
sa(dp670
g1
I01
sg7
I5
sg8
g45
sa(dp671
g1
I01
sg7
I5
sg8
g11
sa(dp672
g1
I01
sg7
I2
sg8
g13
sa(dp673
g1
I01
sg7
I5
sg8
g15
sa(dp674
g1
I01
sg7
I5
sg8
g17
sa(dp675
g1
I01
sg7
I5
sg8
g19
sa(dp676
g1
I01
sg7
I5
sg8
S'__module__'
p677
sa(dp678
g1
I01
sg7
I2
sg8
g21
sa(dp679
g1
I01
sg7
I2
sg8
g23
sa(dp680
g1
I01
sg7
I2
sg8
g25
sa(dp681
g1
I01
sg7
I5
sg8
g27
sa(dp682
g1
I01
sg7
I5
sg8
g29
sa(dp683
g1
I01
sg7
I2
sg8
g31
sa(dp684
g1
I01
sg7
I5
sg8
g33
sa(dp685
g1
I01
sg7
I2
sg8
g35
sa(dp686
g1
I01
sg7
I5
sg8
g62
sa(dp687
g1
I01
sg7
I5
sg8
g37
sa(dp688
g1
I01
sg7
I5
sg8
S'_fields'
p689
sasg7
I3
sg8
S'Exec'
p690
sa(dp691
g1
I01
sg2
(lp692
(dp693
g1
I01
sg7
I5
sg8
g9
sa(dp694
g1
I01
sg7
I5
sg8
g45
sa(dp695
g1
I01
sg7
I5
sg8
g11
sa(dp696
g1
I01
sg7
I2
sg8
g13
sa(dp697
g1
I01
sg7
I5
sg8
g15
sa(dp698
g1
I01
sg7
I5
sg8
g17
sa(dp699
g1
I01
sg7
I5
sg8
g19
sa(dp700
g1
I01
sg7
I5
sg8
S'__module__'
p701
sa(dp702
g1
I01
sg7
I2
sg8
g21
sa(dp703
g1
I01
sg7
I2
sg8
g23
sa(dp704
g1
I01
sg7
I2
sg8
g25
sa(dp705
g1
I01
sg7
I5
sg8
g27
sa(dp706
g1
I01
sg7
I5
sg8
g29
sa(dp707
g1
I01
sg7
I2
sg8
g31
sa(dp708
g1
I01
sg7
I5
sg8
g33
sa(dp709
g1
I01
sg7
I2
sg8
g35
sa(dp710
g1
I01
sg7
I5
sg8
g62
sa(dp711
g1
I01
sg7
I5
sg8
g37
sa(dp712
g1
I01
sg7
I5
sg8
S'_fields'
p713
sasg7
I3
sg8
S'Expr'
p714
sa(dp715
g1
I01
sg2
(lp716
(dp717
g1
I01
sg7
I5
sg8
g9
sa(dp718
g1
I01
sg7
I5
sg8
g45
sa(dp719
g1
I01
sg7
I5
sg8
g11
sa(dp720
g1
I01
sg7
I2
sg8
g13
sa(dp721
g1
I01
sg7
I5
sg8
g15
sa(dp722
g1
I01
sg7
I5
sg8
g17
sa(dp723
g1
I01
sg7
I5
sg8
g19
sa(dp724
g1
I01
sg7
I5
sg8
S'__module__'
p725
sa(dp726
g1
I01
sg7
I2
sg8
g21
sa(dp727
g1
I01
sg7
I2
sg8
g23
sa(dp728
g1
I01
sg7
I2
sg8
g25
sa(dp729
g1
I01
sg7
I5
sg8
g27
sa(dp730
g1
I01
sg7
I5
sg8
g29
sa(dp731
g1
I01
sg7
I2
sg8
g31
sa(dp732
g1
I01
sg7
I5
sg8
g33
sa(dp733
g1
I01
sg7
I2
sg8
g35
sa(dp734
g1
I01
sg7
I5
sg8
g62
sa(dp735
g1
I01
sg7
I5
sg8
g37
sa(dp736
g1
I01
sg7
I5
sg8
S'_fields'
p737
sasg7
I3
sg8
S'Expression'
p738
sa(dp739
g1
I01
sg2
(lp740
(dp741
g1
I01
sg7
I5
sg8
g9
sa(dp742
g1
I01
sg7
I5
sg8
g45
sa(dp743
g1
I01
sg7
I5
sg8
g11
sa(dp744
g1
I01
sg7
I2
sg8
g13
sa(dp745
g1
I01
sg7
I5
sg8
g15
sa(dp746
g1
I01
sg7
I5
sg8
g17
sa(dp747
g1
I01
sg7
I5
sg8
g19
sa(dp748
g1
I01
sg7
I5
sg8
S'__module__'
p749
sa(dp750
g1
I01
sg7
I2
sg8
g21
sa(dp751
g1
I01
sg7
I2
sg8
g23
sa(dp752
g1
I01
sg7
I2
sg8
g25
sa(dp753
g1
I01
sg7
I5
sg8
g27
sa(dp754
g1
I01
sg7
I5
sg8
g29
sa(dp755
g1
I01
sg7
I2
sg8
g31
sa(dp756
g1
I01
sg7
I5
sg8
g33
sa(dp757
g1
I01
sg7
I2
sg8
g35
sa(dp758
g1
I01
sg7
I5
sg8
g62
sa(dp759
g1
I01
sg7
I5
sg8
g37
sa(dp760
g1
I01
sg7
I5
sg8
S'_fields'
p761
sasg7
I3
sg8
S'ExtSlice'
p762
sa(dp763
g1
I01
sg2
(lp764
(dp765
g1
I01
sg7
I5
sg8
g9
sa(dp766
g1
I01
sg7
I5
sg8
g45
sa(dp767
g1
I01
sg7
I5
sg8
g11
sa(dp768
g1
I01
sg7
I2
sg8
g13
sa(dp769
g1
I01
sg7
I5
sg8
g15
sa(dp770
g1
I01
sg7
I5
sg8
g17
sa(dp771
g1
I01
sg7
I5
sg8
g19
sa(dp772
g1
I01
sg7
I5
sg8
S'__module__'
p773
sa(dp774
g1
I01
sg7
I2
sg8
g21
sa(dp775
g1
I01
sg7
I2
sg8
g23
sa(dp776
g1
I01
sg7
I2
sg8
g25
sa(dp777
g1
I01
sg7
I5
sg8
g27
sa(dp778
g1
I01
sg7
I5
sg8
g29
sa(dp779
g1
I01
sg7
I2
sg8
g31
sa(dp780
g1
I01
sg7
I5
sg8
g33
sa(dp781
g1
I01
sg7
I2
sg8
g35
sa(dp782
g1
I01
sg7
I5
sg8
g62
sa(dp783
g1
I01
sg7
I5
sg8
g37
sa(dp784
g1
I01
sg7
I5
sg8
S'_fields'
p785
sasg7
I3
sg8
S'FloorDiv'
p786
sa(dp787
g1
I01
sg2
(lp788
(dp789
g1
I01
sg7
I5
sg8
g9
sa(dp790
g1
I01
sg7
I5
sg8
g45
sa(dp791
g1
I01
sg7
I5
sg8
g11
sa(dp792
g1
I01
sg7
I2
sg8
g13
sa(dp793
g1
I01
sg7
I5
sg8
g15
sa(dp794
g1
I01
sg7
I5
sg8
g17
sa(dp795
g1
I01
sg7
I5
sg8
g19
sa(dp796
g1
I01
sg7
I5
sg8
S'__module__'
p797
sa(dp798
g1
I01
sg7
I2
sg8
g21
sa(dp799
g1
I01
sg7
I2
sg8
g23
sa(dp800
g1
I01
sg7
I2
sg8
g25
sa(dp801
g1
I01
sg7
I5
sg8
g27
sa(dp802
g1
I01
sg7
I5
sg8
g29
sa(dp803
g1
I01
sg7
I2
sg8
g31
sa(dp804
g1
I01
sg7
I5
sg8
g33
sa(dp805
g1
I01
sg7
I2
sg8
g35
sa(dp806
g1
I01
sg7
I5
sg8
g62
sa(dp807
g1
I01
sg7
I5
sg8
g37
sa(dp808
g1
I01
sg7
I5
sg8
S'_fields'
p809
sasg7
I3
sg8
S'For'
p810
sa(dp811
g1
I01
sg2
(lp812
(dp813
g1
I01
sg7
I5
sg8
g9
sa(dp814
g1
I01
sg7
I5
sg8
g45
sa(dp815
g1
I01
sg7
I5
sg8
g11
sa(dp816
g1
I01
sg7
I2
sg8
g13
sa(dp817
g1
I01
sg7
I5
sg8
g15
sa(dp818
g1
I01
sg7
I5
sg8
g17
sa(dp819
g1
I01
sg7
I5
sg8
g19
sa(dp820
g1
I01
sg7
I5
sg8
S'__module__'
p821
sa(dp822
g1
I01
sg7
I2
sg8
g21
sa(dp823
g1
I01
sg7
I2
sg8
g23
sa(dp824
g1
I01
sg7
I2
sg8
g25
sa(dp825
g1
I01
sg7
I5
sg8
g27
sa(dp826
g1
I01
sg7
I5
sg8
g29
sa(dp827
g1
I01
sg7
I2
sg8
g31
sa(dp828
g1
I01
sg7
I5
sg8
g33
sa(dp829
g1
I01
sg7
I2
sg8
g35
sa(dp830
g1
I01
sg7
I5
sg8
g62
sa(dp831
g1
I01
sg7
I5
sg8
g37
sa(dp832
g1
I01
sg7
I5
sg8
S'_fields'
p833
sasg7
I3
sg8
S'FunctionDef'
p834
sa(dp835
g1
I01
sg2
(lp836
(dp837
g1
I01
sg7
I5
sg8
g9
sa(dp838
g1
I01
sg7
I5
sg8
g45
sa(dp839
g1
I01
sg7
I5
sg8
g11
sa(dp840
g1
I01
sg7
I2
sg8
g13
sa(dp841
g1
I01
sg7
I5
sg8
g15
sa(dp842
g1
I01
sg7
I5
sg8
g17
sa(dp843
g1
I01
sg7
I5
sg8
g19
sa(dp844
g1
I01
sg7
I5
sg8
S'__module__'
p845
sa(dp846
g1
I01
sg7
I2
sg8
g21
sa(dp847
g1
I01
sg7
I2
sg8
g23
sa(dp848
g1
I01
sg7
I2
sg8
g25
sa(dp849
g1
I01
sg7
I5
sg8
g27
sa(dp850
g1
I01
sg7
I5
sg8
g29
sa(dp851
g1
I01
sg7
I2
sg8
g31
sa(dp852
g1
I01
sg7
I5
sg8
g33
sa(dp853
g1
I01
sg7
I2
sg8
g35
sa(dp854
g1
I01
sg7
I5
sg8
g62
sa(dp855
g1
I01
sg7
I5
sg8
g37
sa(dp856
g1
I01
sg7
I5
sg8
S'_fields'
p857
sasg7
I3
sg8
S'GeneratorExp'
p858
sa(dp859
g1
I01
sg2
(lp860
(dp861
g1
I01
sg7
I5
sg8
g9
sa(dp862
g1
I01
sg7
I5
sg8
g45
sa(dp863
g1
I01
sg7
I5
sg8
g11
sa(dp864
g1
I01
sg7
I2
sg8
g13
sa(dp865
g1
I01
sg7
I5
sg8
g15
sa(dp866
g1
I01
sg7
I5
sg8
g17
sa(dp867
g1
I01
sg7
I5
sg8
g19
sa(dp868
g1
I01
sg7
I5
sg8
S'__module__'
p869
sa(dp870
g1
I01
sg7
I2
sg8
g21
sa(dp871
g1
I01
sg7
I2
sg8
g23
sa(dp872
g1
I01
sg7
I2
sg8
g25
sa(dp873
g1
I01
sg7
I5
sg8
g27
sa(dp874
g1
I01
sg7
I5
sg8
g29
sa(dp875
g1
I01
sg7
I2
sg8
g31
sa(dp876
g1
I01
sg7
I5
sg8
g33
sa(dp877
g1
I01
sg7
I2
sg8
g35
sa(dp878
g1
I01
sg7
I5
sg8
g62
sa(dp879
g1
I01
sg7
I5
sg8
g37
sa(dp880
g1
I01
sg7
I5
sg8
S'_fields'
p881
sasg7
I3
sg8
S'Global'
p882
sa(dp883
g1
I01
sg2
(lp884
(dp885
g1
I01
sg7
I5
sg8
g9
sa(dp886
g1
I01
sg7
I5
sg8
g45
sa(dp887
g1
I01
sg7
I5
sg8
g11
sa(dp888
g1
I01
sg7
I2
sg8
g13
sa(dp889
g1
I01
sg7
I5
sg8
g15
sa(dp890
g1
I01
sg7
I5
sg8
g17
sa(dp891
g1
I01
sg7
I5
sg8
g19
sa(dp892
g1
I01
sg7
I5
sg8
S'__module__'
p893
sa(dp894
g1
I01
sg7
I2
sg8
g21
sa(dp895
g1
I01
sg7
I2
sg8
g23
sa(dp896
g1
I01
sg7
I2
sg8
g25
sa(dp897
g1
I01
sg7
I5
sg8
g27
sa(dp898
g1
I01
sg7
I5
sg8
g29
sa(dp899
g1
I01
sg7
I2
sg8
g31
sa(dp900
g1
I01
sg7
I5
sg8
g33
sa(dp901
g1
I01
sg7
I2
sg8
g35
sa(dp902
g1
I01
sg7
I5
sg8
g62
sa(dp903
g1
I01
sg7
I5
sg8
g37
sa(dp904
g1
I01
sg7
I5
sg8
S'_fields'
p905
sasg7
I3
sg8
S'Gt'
p906
sa(dp907
g1
I01
sg2
(lp908
(dp909
g1
I01
sg7
I5
sg8
g9
sa(dp910
g1
I01
sg7
I5
sg8
g45
sa(dp911
g1
I01
sg7
I5
sg8
g11
sa(dp912
g1
I01
sg7
I2
sg8
g13
sa(dp913
g1
I01
sg7
I5
sg8
g15
sa(dp914
g1
I01
sg7
I5
sg8
g17
sa(dp915
g1
I01
sg7
I5
sg8
g19
sa(dp916
g1
I01
sg7
I5
sg8
S'__module__'
p917
sa(dp918
g1
I01
sg7
I2
sg8
g21
sa(dp919
g1
I01
sg7
I2
sg8
g23
sa(dp920
g1
I01
sg7
I2
sg8
g25
sa(dp921
g1
I01
sg7
I5
sg8
g27
sa(dp922
g1
I01
sg7
I5
sg8
g29
sa(dp923
g1
I01
sg7
I2
sg8
g31
sa(dp924
g1
I01
sg7
I5
sg8
g33
sa(dp925
g1
I01
sg7
I2
sg8
g35
sa(dp926
g1
I01
sg7
I5
sg8
g62
sa(dp927
g1
I01
sg7
I5
sg8
g37
sa(dp928
g1
I01
sg7
I5
sg8
S'_fields'
p929
sasg7
I3
sg8
S'GtE'
p930
sa(dp931
g1
I01
sg2
(lp932
(dp933
g1
I01
sg7
I5
sg8
g9
sa(dp934
g1
I01
sg7
I5
sg8
g45
sa(dp935
g1
I01
sg7
I5
sg8
g11
sa(dp936
g1
I01
sg7
I2
sg8
g13
sa(dp937
g1
I01
sg7
I5
sg8
g15
sa(dp938
g1
I01
sg7
I5
sg8
g17
sa(dp939
g1
I01
sg7
I5
sg8
g19
sa(dp940
g1
I01
sg7
I5
sg8
S'__module__'
p941
sa(dp942
g1
I01
sg7
I2
sg8
g21
sa(dp943
g1
I01
sg7
I2
sg8
g23
sa(dp944
g1
I01
sg7
I2
sg8
g25
sa(dp945
g1
I01
sg7
I5
sg8
g27
sa(dp946
g1
I01
sg7
I5
sg8
g29
sa(dp947
g1
I01
sg7
I2
sg8
g31
sa(dp948
g1
I01
sg7
I5
sg8
g33
sa(dp949
g1
I01
sg7
I2
sg8
g35
sa(dp950
g1
I01
sg7
I5
sg8
g62
sa(dp951
g1
I01
sg7
I5
sg8
g37
sa(dp952
g1
I01
sg7
I5
sg8
S'_fields'
p953
sasg7
I3
sg8
S'If'
p954
sa(dp955
g1
I01
sg2
(lp956
(dp957
g1
I01
sg7
I5
sg8
g9
sa(dp958
g1
I01
sg7
I5
sg8
g45
sa(dp959
g1
I01
sg7
I5
sg8
g11
sa(dp960
g1
I01
sg7
I2
sg8
g13
sa(dp961
g1
I01
sg7
I5
sg8
g15
sa(dp962
g1
I01
sg7
I5
sg8
g17
sa(dp963
g1
I01
sg7
I5
sg8
g19
sa(dp964
g1
I01
sg7
I5
sg8
S'__module__'
p965
sa(dp966
g1
I01
sg7
I2
sg8
g21
sa(dp967
g1
I01
sg7
I2
sg8
g23
sa(dp968
g1
I01
sg7
I2
sg8
g25
sa(dp969
g1
I01
sg7
I5
sg8
g27
sa(dp970
g1
I01
sg7
I5
sg8
g29
sa(dp971
g1
I01
sg7
I2
sg8
g31
sa(dp972
g1
I01
sg7
I5
sg8
g33
sa(dp973
g1
I01
sg7
I2
sg8
g35
sa(dp974
g1
I01
sg7
I5
sg8
g62
sa(dp975
g1
I01
sg7
I5
sg8
g37
sa(dp976
g1
I01
sg7
I5
sg8
S'_fields'
p977
sasg7
I3
sg8
S'IfExp'
p978
sa(dp979
g1
I01
sg2
(lp980
(dp981
g1
I01
sg7
I5
sg8
g9
sa(dp982
g1
I01
sg7
I5
sg8
g45
sa(dp983
g1
I01
sg7
I5
sg8
g11
sa(dp984
g1
I01
sg7
I2
sg8
g13
sa(dp985
g1
I01
sg7
I5
sg8
g15
sa(dp986
g1
I01
sg7
I5
sg8
g17
sa(dp987
g1
I01
sg7
I5
sg8
g19
sa(dp988
g1
I01
sg7
I5
sg8
S'__module__'
p989
sa(dp990
g1
I01
sg7
I2
sg8
g21
sa(dp991
g1
I01
sg7
I2
sg8
g23
sa(dp992
g1
I01
sg7
I2
sg8
g25
sa(dp993
g1
I01
sg7
I5
sg8
g27
sa(dp994
g1
I01
sg7
I5
sg8
g29
sa(dp995
g1
I01
sg7
I2
sg8
g31
sa(dp996
g1
I01
sg7
I5
sg8
g33
sa(dp997
g1
I01
sg7
I2
sg8
g35
sa(dp998
g1
I01
sg7
I5
sg8
g62
sa(dp999
g1
I01
sg7
I5
sg8
g37
sa(dp1000
g1
I01
sg7
I5
sg8
S'_fields'
p1001
sasg7
I3
sg8
S'Import'
p1002
sa(dp1003
g1
I01
sg2
(lp1004
(dp1005
g1
I01
sg7
I5
sg8
g9
sa(dp1006
g1
I01
sg7
I5
sg8
g45
sa(dp1007
g1
I01
sg7
I5
sg8
g11
sa(dp1008
g1
I01
sg7
I2
sg8
g13
sa(dp1009
g1
I01
sg7
I5
sg8
g15
sa(dp1010
g1
I01
sg7
I5
sg8
g17
sa(dp1011
g1
I01
sg7
I5
sg8
g19
sa(dp1012
g1
I01
sg7
I5
sg8
S'__module__'
p1013
sa(dp1014
g1
I01
sg7
I2
sg8
g21
sa(dp1015
g1
I01
sg7
I2
sg8
g23
sa(dp1016
g1
I01
sg7
I2
sg8
g25
sa(dp1017
g1
I01
sg7
I5
sg8
g27
sa(dp1018
g1
I01
sg7
I5
sg8
g29
sa(dp1019
g1
I01
sg7
I2
sg8
g31
sa(dp1020
g1
I01
sg7
I5
sg8
g33
sa(dp1021
g1
I01
sg7
I2
sg8
g35
sa(dp1022
g1
I01
sg7
I5
sg8
g62
sa(dp1023
g1
I01
sg7
I5
sg8
g37
sa(dp1024
g1
I01
sg7
I5
sg8
S'_fields'
p1025
sasg7
I3
sg8
S'ImportFrom'
p1026
sa(dp1027
g1
I01
sg2
(lp1028
(dp1029
g1
I01
sg7
I5
sg8
g9
sa(dp1030
g1
I01
sg7
I5
sg8
g45
sa(dp1031
g1
I01
sg7
I5
sg8
g11
sa(dp1032
g1
I01
sg7
I2
sg8
g13
sa(dp1033
g1
I01
sg7
I5
sg8
g15
sa(dp1034
g1
I01
sg7
I5
sg8
g17
sa(dp1035
g1
I01
sg7
I5
sg8
g19
sa(dp1036
g1
I01
sg7
I5
sg8
S'__module__'
p1037
sa(dp1038
g1
I01
sg7
I2
sg8
g21
sa(dp1039
g1
I01
sg7
I2
sg8
g23
sa(dp1040
g1
I01
sg7
I2
sg8
g25
sa(dp1041
g1
I01
sg7
I5
sg8
g27
sa(dp1042
g1
I01
sg7
I5
sg8
g29
sa(dp1043
g1
I01
sg7
I2
sg8
g31
sa(dp1044
g1
I01
sg7
I5
sg8
g33
sa(dp1045
g1
I01
sg7
I2
sg8
g35
sa(dp1046
g1
I01
sg7
I5
sg8
g62
sa(dp1047
g1
I01
sg7
I5
sg8
g37
sa(dp1048
g1
I01
sg7
I5
sg8
S'_fields'
p1049
sasg7
I3
sg8
S'In'
p1050
sa(dp1051
g1
I01
sg2
(lp1052
(dp1053
g1
I01
sg7
I5
sg8
g9
sa(dp1054
g1
I01
sg7
I5
sg8
g45
sa(dp1055
g1
I01
sg7
I5
sg8
g11
sa(dp1056
g1
I01
sg7
I2
sg8
g13
sa(dp1057
g1
I01
sg7
I5
sg8
g15
sa(dp1058
g1
I01
sg7
I5
sg8
g17
sa(dp1059
g1
I01
sg7
I5
sg8
g19
sa(dp1060
g1
I01
sg7
I5
sg8
S'__module__'
p1061
sa(dp1062
g1
I01
sg7
I2
sg8
g21
sa(dp1063
g1
I01
sg7
I2
sg8
g23
sa(dp1064
g1
I01
sg7
I2
sg8
g25
sa(dp1065
g1
I01
sg7
I5
sg8
g27
sa(dp1066
g1
I01
sg7
I5
sg8
g29
sa(dp1067
g1
I01
sg7
I2
sg8
g31
sa(dp1068
g1
I01
sg7
I5
sg8
g33
sa(dp1069
g1
I01
sg7
I2
sg8
g35
sa(dp1070
g1
I01
sg7
I5
sg8
g62
sa(dp1071
g1
I01
sg7
I5
sg8
g37
sa(dp1072
g1
I01
sg7
I5
sg8
S'_fields'
p1073
sasg7
I3
sg8
S'Index'
p1074
sa(dp1075
g1
I01
sg2
(lp1076
(dp1077
g1
I01
sg7
I5
sg8
g9
sa(dp1078
g1
I01
sg7
I5
sg8
g45
sa(dp1079
g1
I01
sg7
I5
sg8
g11
sa(dp1080
g1
I01
sg7
I2
sg8
g13
sa(dp1081
g1
I01
sg7
I5
sg8
g15
sa(dp1082
g1
I01
sg7
I5
sg8
g17
sa(dp1083
g1
I01
sg7
I5
sg8
g19
sa(dp1084
g1
I01
sg7
I5
sg8
S'__module__'
p1085
sa(dp1086
g1
I01
sg7
I2
sg8
g21
sa(dp1087
g1
I01
sg7
I2
sg8
g23
sa(dp1088
g1
I01
sg7
I2
sg8
g25
sa(dp1089
g1
I01
sg7
I5
sg8
g27
sa(dp1090
g1
I01
sg7
I5
sg8
g29
sa(dp1091
g1
I01
sg7
I2
sg8
g31
sa(dp1092
g1
I01
sg7
I5
sg8
g33
sa(dp1093
g1
I01
sg7
I2
sg8
g35
sa(dp1094
g1
I01
sg7
I5
sg8
g62
sa(dp1095
g1
I01
sg7
I5
sg8
g37
sa(dp1096
g1
I01
sg7
I5
sg8
S'_fields'
p1097
sasg7
I3
sg8
S'Interactive'
p1098
sa(dp1099
g1
I01
sg2
(lp1100
(dp1101
g1
I01
sg7
I5
sg8
g9
sa(dp1102
g1
I01
sg7
I5
sg8
g45
sa(dp1103
g1
I01
sg7
I5
sg8
g11
sa(dp1104
g1
I01
sg7
I2
sg8
g13
sa(dp1105
g1
I01
sg7
I5
sg8
g15
sa(dp1106
g1
I01
sg7
I5
sg8
g17
sa(dp1107
g1
I01
sg7
I5
sg8
g19
sa(dp1108
g1
I01
sg7
I5
sg8
S'__module__'
p1109
sa(dp1110
g1
I01
sg7
I2
sg8
g21
sa(dp1111
g1
I01
sg7
I2
sg8
g23
sa(dp1112
g1
I01
sg7
I2
sg8
g25
sa(dp1113
g1
I01
sg7
I5
sg8
g27
sa(dp1114
g1
I01
sg7
I5
sg8
g29
sa(dp1115
g1
I01
sg7
I2
sg8
g31
sa(dp1116
g1
I01
sg7
I5
sg8
g33
sa(dp1117
g1
I01
sg7
I2
sg8
g35
sa(dp1118
g1
I01
sg7
I5
sg8
g62
sa(dp1119
g1
I01
sg7
I5
sg8
g37
sa(dp1120
g1
I01
sg7
I5
sg8
S'_fields'
p1121
sasg7
I3
sg8
S'Invert'
p1122
sa(dp1123
g1
I01
sg2
(lp1124
(dp1125
g1
I01
sg7
I5
sg8
g9
sa(dp1126
g1
I01
sg7
I5
sg8
g45
sa(dp1127
g1
I01
sg7
I5
sg8
g11
sa(dp1128
g1
I01
sg7
I2
sg8
g13
sa(dp1129
g1
I01
sg7
I5
sg8
g15
sa(dp1130
g1
I01
sg7
I5
sg8
g17
sa(dp1131
g1
I01
sg7
I5
sg8
g19
sa(dp1132
g1
I01
sg7
I5
sg8
S'__module__'
p1133
sa(dp1134
g1
I01
sg7
I2
sg8
g21
sa(dp1135
g1
I01
sg7
I2
sg8
g23
sa(dp1136
g1
I01
sg7
I2
sg8
g25
sa(dp1137
g1
I01
sg7
I5
sg8
g27
sa(dp1138
g1
I01
sg7
I5
sg8
g29
sa(dp1139
g1
I01
sg7
I2
sg8
g31
sa(dp1140
g1
I01
sg7
I5
sg8
g33
sa(dp1141
g1
I01
sg7
I2
sg8
g35
sa(dp1142
g1
I01
sg7
I5
sg8
g62
sa(dp1143
g1
I01
sg7
I5
sg8
g37
sa(dp1144
g1
I01
sg7
I5
sg8
S'_fields'
p1145
sasg7
I3
sg8
S'Is'
p1146
sa(dp1147
g1
I01
sg2
(lp1148
(dp1149
g1
I01
sg7
I5
sg8
g9
sa(dp1150
g1
I01
sg7
I5
sg8
g45
sa(dp1151
g1
I01
sg7
I5
sg8
g11
sa(dp1152
g1
I01
sg7
I2
sg8
g13
sa(dp1153
g1
I01
sg7
I5
sg8
g15
sa(dp1154
g1
I01
sg7
I5
sg8
g17
sa(dp1155
g1
I01
sg7
I5
sg8
g19
sa(dp1156
g1
I01
sg7
I5
sg8
S'__module__'
p1157
sa(dp1158
g1
I01
sg7
I2
sg8
g21
sa(dp1159
g1
I01
sg7
I2
sg8
g23
sa(dp1160
g1
I01
sg7
I2
sg8
g25
sa(dp1161
g1
I01
sg7
I5
sg8
g27
sa(dp1162
g1
I01
sg7
I5
sg8
g29
sa(dp1163
g1
I01
sg7
I2
sg8
g31
sa(dp1164
g1
I01
sg7
I5
sg8
g33
sa(dp1165
g1
I01
sg7
I2
sg8
g35
sa(dp1166
g1
I01
sg7
I5
sg8
g62
sa(dp1167
g1
I01
sg7
I5
sg8
g37
sa(dp1168
g1
I01
sg7
I5
sg8
S'_fields'
p1169
sasg7
I3
sg8
S'IsNot'
p1170
sa(dp1171
g1
I01
sg2
(lp1172
(dp1173
g1
I01
sg7
I5
sg8
g9
sa(dp1174
g1
I01
sg7
I5
sg8
g45
sa(dp1175
g1
I01
sg7
I5
sg8
g11
sa(dp1176
g1
I01
sg7
I2
sg8
g13
sa(dp1177
g1
I01
sg7
I5
sg8
g15
sa(dp1178
g1
I01
sg7
I5
sg8
g17
sa(dp1179
g1
I01
sg7
I5
sg8
g19
sa(dp1180
g1
I01
sg7
I5
sg8
S'__module__'
p1181
sa(dp1182
g1
I01
sg7
I2
sg8
g21
sa(dp1183
g1
I01
sg7
I2
sg8
g23
sa(dp1184
g1
I01
sg7
I2
sg8
g25
sa(dp1185
g1
I01
sg7
I5
sg8
g27
sa(dp1186
g1
I01
sg7
I5
sg8
g29
sa(dp1187
g1
I01
sg7
I2
sg8
g31
sa(dp1188
g1
I01
sg7
I5
sg8
g33
sa(dp1189
g1
I01
sg7
I2
sg8
g35
sa(dp1190
g1
I01
sg7
I5
sg8
g62
sa(dp1191
g1
I01
sg7
I5
sg8
g37
sa(dp1192
g1
I01
sg7
I5
sg8
S'_fields'
p1193
sasg7
I3
sg8
S'LShift'
p1194
sa(dp1195
g1
I01
sg2
(lp1196
(dp1197
g1
I01
sg7
I5
sg8
g9
sa(dp1198
g1
I01
sg7
I5
sg8
g45
sa(dp1199
g1
I01
sg7
I5
sg8
g11
sa(dp1200
g1
I01
sg7
I2
sg8
g13
sa(dp1201
g1
I01
sg7
I5
sg8
g15
sa(dp1202
g1
I01
sg7
I5
sg8
g17
sa(dp1203
g1
I01
sg7
I5
sg8
g19
sa(dp1204
g1
I01
sg7
I5
sg8
S'__module__'
p1205
sa(dp1206
g1
I01
sg7
I2
sg8
g21
sa(dp1207
g1
I01
sg7
I2
sg8
g23
sa(dp1208
g1
I01
sg7
I2
sg8
g25
sa(dp1209
g1
I01
sg7
I5
sg8
g27
sa(dp1210
g1
I01
sg7
I5
sg8
g29
sa(dp1211
g1
I01
sg7
I2
sg8
g31
sa(dp1212
g1
I01
sg7
I5
sg8
g33
sa(dp1213
g1
I01
sg7
I2
sg8
g35
sa(dp1214
g1
I01
sg7
I5
sg8
g62
sa(dp1215
g1
I01
sg7
I5
sg8
g37
sa(dp1216
g1
I01
sg7
I5
sg8
S'_fields'
p1217
sasg7
I3
sg8
S'Lambda'
p1218
sa(dp1219
g1
I01
sg2
(lp1220
(dp1221
g1
I01
sg7
I5
sg8
g9
sa(dp1222
g1
I01
sg7
I5
sg8
g45
sa(dp1223
g1
I01
sg7
I5
sg8
g11
sa(dp1224
g1
I01
sg7
I2
sg8
g13
sa(dp1225
g1
I01
sg7
I5
sg8
g15
sa(dp1226
g1
I01
sg7
I5
sg8
g17
sa(dp1227
g1
I01
sg7
I5
sg8
g19
sa(dp1228
g1
I01
sg7
I5
sg8
S'__module__'
p1229
sa(dp1230
g1
I01
sg7
I2
sg8
g21
sa(dp1231
g1
I01
sg7
I2
sg8
g23
sa(dp1232
g1
I01
sg7
I2
sg8
g25
sa(dp1233
g1
I01
sg7
I5
sg8
g27
sa(dp1234
g1
I01
sg7
I5
sg8
g29
sa(dp1235
g1
I01
sg7
I2
sg8
g31
sa(dp1236
g1
I01
sg7
I5
sg8
g33
sa(dp1237
g1
I01
sg7
I2
sg8
g35
sa(dp1238
g1
I01
sg7
I5
sg8
g62
sa(dp1239
g1
I01
sg7
I5
sg8
g37
sa(dp1240
g1
I01
sg7
I5
sg8
S'_fields'
p1241
sasg7
I3
sg8
S'List'
p1242
sa(dp1243
g1
I01
sg2
(lp1244
(dp1245
g1
I01
sg7
I5
sg8
g9
sa(dp1246
g1
I01
sg7
I5
sg8
g45
sa(dp1247
g1
I01
sg7
I5
sg8
g11
sa(dp1248
g1
I01
sg7
I2
sg8
g13
sa(dp1249
g1
I01
sg7
I5
sg8
g15
sa(dp1250
g1
I01
sg7
I5
sg8
g17
sa(dp1251
g1
I01
sg7
I5
sg8
g19
sa(dp1252
g1
I01
sg7
I5
sg8
S'__module__'
p1253
sa(dp1254
g1
I01
sg7
I2
sg8
g21
sa(dp1255
g1
I01
sg7
I2
sg8
g23
sa(dp1256
g1
I01
sg7
I2
sg8
g25
sa(dp1257
g1
I01
sg7
I5
sg8
g27
sa(dp1258
g1
I01
sg7
I5
sg8
g29
sa(dp1259
g1
I01
sg7
I2
sg8
g31
sa(dp1260
g1
I01
sg7
I5
sg8
g33
sa(dp1261
g1
I01
sg7
I2
sg8
g35
sa(dp1262
g1
I01
sg7
I5
sg8
g62
sa(dp1263
g1
I01
sg7
I5
sg8
g37
sa(dp1264
g1
I01
sg7
I5
sg8
S'_fields'
p1265
sasg7
I3
sg8
S'ListComp'
p1266
sa(dp1267
g1
I01
sg2
(lp1268
(dp1269
g1
I01
sg7
I5
sg8
g9
sa(dp1270
g1
I01
sg7
I5
sg8
g45
sa(dp1271
g1
I01
sg7
I5
sg8
g11
sa(dp1272
g1
I01
sg7
I2
sg8
g13
sa(dp1273
g1
I01
sg7
I5
sg8
g15
sa(dp1274
g1
I01
sg7
I5
sg8
g17
sa(dp1275
g1
I01
sg7
I5
sg8
g19
sa(dp1276
g1
I01
sg7
I5
sg8
S'__module__'
p1277
sa(dp1278
g1
I01
sg7
I2
sg8
g21
sa(dp1279
g1
I01
sg7
I2
sg8
g23
sa(dp1280
g1
I01
sg7
I2
sg8
g25
sa(dp1281
g1
I01
sg7
I5
sg8
g27
sa(dp1282
g1
I01
sg7
I5
sg8
g29
sa(dp1283
g1
I01
sg7
I2
sg8
g31
sa(dp1284
g1
I01
sg7
I5
sg8
g33
sa(dp1285
g1
I01
sg7
I2
sg8
g35
sa(dp1286
g1
I01
sg7
I5
sg8
g62
sa(dp1287
g1
I01
sg7
I5
sg8
g37
sa(dp1288
g1
I01
sg7
I5
sg8
S'_fields'
p1289
sasg7
I3
sg8
S'Load'
p1290
sa(dp1291
g1
I01
sg2
(lp1292
(dp1293
g1
I01
sg7
I5
sg8
g9
sa(dp1294
g1
I01
sg7
I5
sg8
g45
sa(dp1295
g1
I01
sg7
I5
sg8
g11
sa(dp1296
g1
I01
sg7
I2
sg8
g13
sa(dp1297
g1
I01
sg7
I5
sg8
g15
sa(dp1298
g1
I01
sg7
I5
sg8
g17
sa(dp1299
g1
I01
sg7
I5
sg8
g19
sa(dp1300
g1
I01
sg7
I5
sg8
S'__module__'
p1301
sa(dp1302
g1
I01
sg7
I2
sg8
g21
sa(dp1303
g1
I01
sg7
I2
sg8
g23
sa(dp1304
g1
I01
sg7
I2
sg8
g25
sa(dp1305
g1
I01
sg7
I5
sg8
g27
sa(dp1306
g1
I01
sg7
I5
sg8
g29
sa(dp1307
g1
I01
sg7
I2
sg8
g31
sa(dp1308
g1
I01
sg7
I5
sg8
g33
sa(dp1309
g1
I01
sg7
I2
sg8
g35
sa(dp1310
g1
I01
sg7
I5
sg8
g62
sa(dp1311
g1
I01
sg7
I5
sg8
g37
sa(dp1312
g1
I01
sg7
I5
sg8
S'_fields'
p1313
sasg7
I3
sg8
S'Lt'
p1314
sa(dp1315
g1
I01
sg2
(lp1316
(dp1317
g1
I01
sg7
I5
sg8
g9
sa(dp1318
g1
I01
sg7
I5
sg8
g45
sa(dp1319
g1
I01
sg7
I5
sg8
g11
sa(dp1320
g1
I01
sg7
I2
sg8
g13
sa(dp1321
g1
I01
sg7
I5
sg8
g15
sa(dp1322
g1
I01
sg7
I5
sg8
g17
sa(dp1323
g1
I01
sg7
I5
sg8
g19
sa(dp1324
g1
I01
sg7
I5
sg8
S'__module__'
p1325
sa(dp1326
g1
I01
sg7
I2
sg8
g21
sa(dp1327
g1
I01
sg7
I2
sg8
g23
sa(dp1328
g1
I01
sg7
I2
sg8
g25
sa(dp1329
g1
I01
sg7
I5
sg8
g27
sa(dp1330
g1
I01
sg7
I5
sg8
g29
sa(dp1331
g1
I01
sg7
I2
sg8
g31
sa(dp1332
g1
I01
sg7
I5
sg8
g33
sa(dp1333
g1
I01
sg7
I2
sg8
g35
sa(dp1334
g1
I01
sg7
I5
sg8
g62
sa(dp1335
g1
I01
sg7
I5
sg8
g37
sa(dp1336
g1
I01
sg7
I5
sg8
S'_fields'
p1337
sasg7
I3
sg8
S'LtE'
p1338
sa(dp1339
g1
I01
sg2
(lp1340
(dp1341
g1
I01
sg7
I5
sg8
g9
sa(dp1342
g1
I01
sg7
I5
sg8
g45
sa(dp1343
g1
I01
sg7
I5
sg8
g11
sa(dp1344
g1
I01
sg7
I2
sg8
g13
sa(dp1345
g1
I01
sg7
I5
sg8
g15
sa(dp1346
g1
I01
sg7
I5
sg8
g17
sa(dp1347
g1
I01
sg7
I5
sg8
g19
sa(dp1348
g1
I01
sg7
I5
sg8
S'__module__'
p1349
sa(dp1350
g1
I01
sg7
I2
sg8
g21
sa(dp1351
g1
I01
sg7
I2
sg8
g23
sa(dp1352
g1
I01
sg7
I2
sg8
g25
sa(dp1353
g1
I01
sg7
I5
sg8
g27
sa(dp1354
g1
I01
sg7
I5
sg8
g29
sa(dp1355
g1
I01
sg7
I2
sg8
g31
sa(dp1356
g1
I01
sg7
I5
sg8
g33
sa(dp1357
g1
I01
sg7
I2
sg8
g35
sa(dp1358
g1
I01
sg7
I5
sg8
g62
sa(dp1359
g1
I01
sg7
I5
sg8
g37
sa(dp1360
g1
I01
sg7
I5
sg8
S'_fields'
p1361
sasg7
I3
sg8
S'Mod'
p1362
sa(dp1363
g1
I01
sg2
(lp1364
(dp1365
g1
I01
sg7
I5
sg8
g9
sa(dp1366
g1
I01
sg7
I5
sg8
g45
sa(dp1367
g1
I01
sg7
I5
sg8
g11
sa(dp1368
g1
I01
sg7
I2
sg8
g13
sa(dp1369
g1
I01
sg7
I5
sg8
g15
sa(dp1370
g1
I01
sg7
I5
sg8
g17
sa(dp1371
g1
I01
sg7
I5
sg8
g19
sa(dp1372
g1
I01
sg7
I5
sg8
S'__module__'
p1373
sa(dp1374
g1
I01
sg7
I2
sg8
g21
sa(dp1375
g1
I01
sg7
I2
sg8
g23
sa(dp1376
g1
I01
sg7
I2
sg8
g25
sa(dp1377
g1
I01
sg7
I5
sg8
g27
sa(dp1378
g1
I01
sg7
I5
sg8
g29
sa(dp1379
g1
I01
sg7
I2
sg8
g31
sa(dp1380
g1
I01
sg7
I5
sg8
g33
sa(dp1381
g1
I01
sg7
I2
sg8
g35
sa(dp1382
g1
I01
sg7
I5
sg8
g62
sa(dp1383
g1
I01
sg7
I5
sg8
g37
sa(dp1384
g1
I01
sg7
I5
sg8
S'_fields'
p1385
sasg7
I3
sg8
S'Module'
p1386
sa(dp1387
g1
I01
sg2
(lp1388
(dp1389
g1
I01
sg7
I5
sg8
g9
sa(dp1390
g1
I01
sg7
I5
sg8
g45
sa(dp1391
g1
I01
sg7
I5
sg8
g11
sa(dp1392
g1
I01
sg7
I2
sg8
g13
sa(dp1393
g1
I01
sg7
I5
sg8
g15
sa(dp1394
g1
I01
sg7
I5
sg8
g17
sa(dp1395
g1
I01
sg7
I5
sg8
g19
sa(dp1396
g1
I01
sg7
I5
sg8
S'__module__'
p1397
sa(dp1398
g1
I01
sg7
I2
sg8
g21
sa(dp1399
g1
I01
sg7
I2
sg8
g23
sa(dp1400
g1
I01
sg7
I2
sg8
g25
sa(dp1401
g1
I01
sg7
I5
sg8
g27
sa(dp1402
g1
I01
sg7
I5
sg8
g29
sa(dp1403
g1
I01
sg7
I2
sg8
g31
sa(dp1404
g1
I01
sg7
I5
sg8
g33
sa(dp1405
g1
I01
sg7
I2
sg8
g35
sa(dp1406
g1
I01
sg7
I5
sg8
g62
sa(dp1407
g1
I01
sg7
I5
sg8
g37
sa(dp1408
g1
I01
sg7
I5
sg8
S'_fields'
p1409
sasg7
I3
sg8
S'Mult'
p1410
sa(dp1411
g1
I01
sg2
(lp1412
(dp1413
g1
I01
sg7
I5
sg8
g9
sa(dp1414
g1
I01
sg7
I5
sg8
g45
sa(dp1415
g1
I01
sg7
I5
sg8
g11
sa(dp1416
g1
I01
sg7
I2
sg8
g13
sa(dp1417
g1
I01
sg7
I5
sg8
g15
sa(dp1418
g1
I01
sg7
I5
sg8
g17
sa(dp1419
g1
I01
sg7
I5
sg8
g19
sa(dp1420
g1
I01
sg7
I5
sg8
S'__module__'
p1421
sa(dp1422
g1
I01
sg7
I2
sg8
g21
sa(dp1423
g1
I01
sg7
I2
sg8
g23
sa(dp1424
g1
I01
sg7
I2
sg8
g25
sa(dp1425
g1
I01
sg7
I5
sg8
g27
sa(dp1426
g1
I01
sg7
I5
sg8
g29
sa(dp1427
g1
I01
sg7
I2
sg8
g31
sa(dp1428
g1
I01
sg7
I5
sg8
g33
sa(dp1429
g1
I01
sg7
I2
sg8
g35
sa(dp1430
g1
I01
sg7
I5
sg8
g62
sa(dp1431
g1
I01
sg7
I5
sg8
g37
sa(dp1432
g1
I01
sg7
I5
sg8
S'_fields'
p1433
sasg7
I3
sg8
S'Name'
p1434
sa(dp1435
g1
I01
sg2
(lp1436
(dp1437
g1
I01
sg7
I5
sg8
g9
sa(dp1438
g1
I01
sg7
I5
sg8
g45
sa(dp1439
g1
I01
sg7
I5
sg8
g11
sa(dp1440
g1
I01
sg7
I2
sg8
g13
sa(dp1441
g1
I01
sg7
I5
sg8
g15
sa(dp1442
g1
I01
sg7
I5
sg8
g17
sa(dp1443
g1
I01
sg7
I5
sg8
g19
sa(dp1444
g1
I01
sg7
I5
sg8
S'__module__'
p1445
sa(dp1446
g1
I01
sg7
I2
sg8
g21
sa(dp1447
g1
I01
sg7
I2
sg8
g23
sa(dp1448
g1
I01
sg7
I2
sg8
g25
sa(dp1449
g1
I01
sg7
I5
sg8
g27
sa(dp1450
g1
I01
sg7
I5
sg8
g29
sa(dp1451
g1
I01
sg7
I2
sg8
g31
sa(dp1452
g1
I01
sg7
I5
sg8
g33
sa(dp1453
g1
I01
sg7
I2
sg8
g35
sa(dp1454
g1
I01
sg7
I5
sg8
g62
sa(dp1455
g1
I01
sg7
I5
sg8
g37
sa(dp1456
g1
I01
sg7
I5
sg8
S'_fields'
p1457
sasg7
I3
sg8
S'Not'
p1458
sa(dp1459
g1
I01
sg2
(lp1460
(dp1461
g1
I01
sg7
I5
sg8
g9
sa(dp1462
g1
I01
sg7
I5
sg8
g45
sa(dp1463
g1
I01
sg7
I5
sg8
g11
sa(dp1464
g1
I01
sg7
I2
sg8
g13
sa(dp1465
g1
I01
sg7
I5
sg8
g15
sa(dp1466
g1
I01
sg7
I5
sg8
g17
sa(dp1467
g1
I01
sg7
I5
sg8
g19
sa(dp1468
g1
I01
sg7
I5
sg8
S'__module__'
p1469
sa(dp1470
g1
I01
sg7
I2
sg8
g21
sa(dp1471
g1
I01
sg7
I2
sg8
g23
sa(dp1472
g1
I01
sg7
I2
sg8
g25
sa(dp1473
g1
I01
sg7
I5
sg8
g27
sa(dp1474
g1
I01
sg7
I5
sg8
g29
sa(dp1475
g1
I01
sg7
I2
sg8
g31
sa(dp1476
g1
I01
sg7
I5
sg8
g33
sa(dp1477
g1
I01
sg7
I2
sg8
g35
sa(dp1478
g1
I01
sg7
I5
sg8
g62
sa(dp1479
g1
I01
sg7
I5
sg8
g37
sa(dp1480
g1
I01
sg7
I5
sg8
S'_fields'
p1481
sasg7
I3
sg8
S'NotEq'
p1482
sa(dp1483
g1
I01
sg2
(lp1484
(dp1485
g1
I01
sg7
I5
sg8
g9
sa(dp1486
g1
I01
sg7
I5
sg8
g45
sa(dp1487
g1
I01
sg7
I5
sg8
g11
sa(dp1488
g1
I01
sg7
I2
sg8
g13
sa(dp1489
g1
I01
sg7
I5
sg8
g15
sa(dp1490
g1
I01
sg7
I5
sg8
g17
sa(dp1491
g1
I01
sg7
I5
sg8
g19
sa(dp1492
g1
I01
sg7
I5
sg8
S'__module__'
p1493
sa(dp1494
g1
I01
sg7
I2
sg8
g21
sa(dp1495
g1
I01
sg7
I2
sg8
g23
sa(dp1496
g1
I01
sg7
I2
sg8
g25
sa(dp1497
g1
I01
sg7
I5
sg8
g27
sa(dp1498
g1
I01
sg7
I5
sg8
g29
sa(dp1499
g1
I01
sg7
I2
sg8
g31
sa(dp1500
g1
I01
sg7
I5
sg8
g33
sa(dp1501
g1
I01
sg7
I2
sg8
g35
sa(dp1502
g1
I01
sg7
I5
sg8
g62
sa(dp1503
g1
I01
sg7
I5
sg8
g37
sa(dp1504
g1
I01
sg7
I5
sg8
S'_fields'
p1505
sasg7
I3
sg8
S'NotIn'
p1506
sa(dp1507
g1
I01
sg2
(lp1508
(dp1509
g1
I01
sg7
I5
sg8
g9
sa(dp1510
g1
I01
sg7
I5
sg8
g45
sa(dp1511
g1
I01
sg7
I5
sg8
g11
sa(dp1512
g1
I01
sg7
I2
sg8
g13
sa(dp1513
g1
I01
sg7
I5
sg8
g15
sa(dp1514
g1
I01
sg7
I5
sg8
g17
sa(dp1515
g1
I01
sg7
I5
sg8
g19
sa(dp1516
g1
I01
sg7
I5
sg8
S'__module__'
p1517
sa(dp1518
g1
I01
sg7
I2
sg8
g21
sa(dp1519
g1
I01
sg7
I2
sg8
g23
sa(dp1520
g1
I01
sg7
I2
sg8
g25
sa(dp1521
g1
I01
sg7
I5
sg8
g27
sa(dp1522
g1
I01
sg7
I5
sg8
g29
sa(dp1523
g1
I01
sg7
I2
sg8
g31
sa(dp1524
g1
I01
sg7
I5
sg8
g33
sa(dp1525
g1
I01
sg7
I2
sg8
g35
sa(dp1526
g1
I01
sg7
I5
sg8
g62
sa(dp1527
g1
I01
sg7
I5
sg8
g37
sa(dp1528
g1
I01
sg7
I5
sg8
S'_fields'
p1529
sasg7
I3
sg8
S'Num'
p1530
sa(dp1531
g1
I01
sg2
(lp1532
(dp1533
g1
I01
sg7
I5
sg8
g9
sa(dp1534
g1
I01
sg7
I5
sg8
g45
sa(dp1535
g1
I01
sg7
I5
sg8
g11
sa(dp1536
g1
I01
sg7
I2
sg8
g13
sa(dp1537
g1
I01
sg7
I5
sg8
g15
sa(dp1538
g1
I01
sg7
I5
sg8
g17
sa(dp1539
g1
I01
sg7
I5
sg8
g19
sa(dp1540
g1
I01
sg7
I5
sg8
S'__module__'
p1541
sa(dp1542
g1
I01
sg7
I2
sg8
g21
sa(dp1543
g1
I01
sg7
I2
sg8
g23
sa(dp1544
g1
I01
sg7
I2
sg8
g25
sa(dp1545
g1
I01
sg7
I5
sg8
g27
sa(dp1546
g1
I01
sg7
I5
sg8
g29
sa(dp1547
g1
I01
sg7
I2
sg8
g31
sa(dp1548
g1
I01
sg7
I5
sg8
g33
sa(dp1549
g1
I01
sg7
I2
sg8
g35
sa(dp1550
g1
I01
sg7
I5
sg8
g62
sa(dp1551
g1
I01
sg7
I5
sg8
g37
sa(dp1552
g1
I01
sg7
I5
sg8
S'_fields'
p1553
sasg7
I3
sg8
S'Or'
p1554
sa(dp1555
g1
I01
sg2
(lp1556
(dp1557
g1
I01
sg7
I5
sg8
g9
sa(dp1558
g1
I01
sg7
I5
sg8
g45
sa(dp1559
g1
I01
sg7
I5
sg8
g11
sa(dp1560
g1
I01
sg7
I2
sg8
g13
sa(dp1561
g1
I01
sg7
I5
sg8
g15
sa(dp1562
g1
I01
sg7
I5
sg8
g17
sa(dp1563
g1
I01
sg7
I5
sg8
g19
sa(dp1564
g1
I01
sg7
I5
sg8
S'__module__'
p1565
sa(dp1566
g1
I01
sg7
I2
sg8
g21
sa(dp1567
g1
I01
sg7
I2
sg8
g23
sa(dp1568
g1
I01
sg7
I2
sg8
g25
sa(dp1569
g1
I01
sg7
I5
sg8
g27
sa(dp1570
g1
I01
sg7
I5
sg8
g29
sa(dp1571
g1
I01
sg7
I2
sg8
g31
sa(dp1572
g1
I01
sg7
I5
sg8
g33
sa(dp1573
g1
I01
sg7
I2
sg8
g35
sa(dp1574
g1
I01
sg7
I5
sg8
g62
sa(dp1575
g1
I01
sg7
I5
sg8
g37
sa(dp1576
g1
I01
sg7
I5
sg8
S'_fields'
p1577
sasg7
I3
sg8
S'Param'
p1578
sa(dp1579
g1
I01
sg2
(lp1580
(dp1581
g1
I01
sg7
I5
sg8
g9
sa(dp1582
g1
I01
sg7
I5
sg8
g45
sa(dp1583
g1
I01
sg7
I5
sg8
g11
sa(dp1584
g1
I01
sg7
I2
sg8
g13
sa(dp1585
g1
I01
sg7
I5
sg8
g15
sa(dp1586
g1
I01
sg7
I5
sg8
g17
sa(dp1587
g1
I01
sg7
I5
sg8
g19
sa(dp1588
g1
I01
sg7
I5
sg8
S'__module__'
p1589
sa(dp1590
g1
I01
sg7
I2
sg8
g21
sa(dp1591
g1
I01
sg7
I2
sg8
g23
sa(dp1592
g1
I01
sg7
I2
sg8
g25
sa(dp1593
g1
I01
sg7
I5
sg8
g27
sa(dp1594
g1
I01
sg7
I5
sg8
g29
sa(dp1595
g1
I01
sg7
I2
sg8
g31
sa(dp1596
g1
I01
sg7
I5
sg8
g33
sa(dp1597
g1
I01
sg7
I2
sg8
g35
sa(dp1598
g1
I01
sg7
I5
sg8
g62
sa(dp1599
g1
I01
sg7
I5
sg8
g37
sa(dp1600
g1
I01
sg7
I5
sg8
S'_fields'
p1601
sasg7
I3
sg8
S'Pass'
p1602
sa(dp1603
g1
I01
sg2
(lp1604
(dp1605
g1
I01
sg7
I5
sg8
g9
sa(dp1606
g1
I01
sg7
I5
sg8
g45
sa(dp1607
g1
I01
sg7
I5
sg8
g11
sa(dp1608
g1
I01
sg7
I2
sg8
g13
sa(dp1609
g1
I01
sg7
I5
sg8
g15
sa(dp1610
g1
I01
sg7
I5
sg8
g17
sa(dp1611
g1
I01
sg7
I5
sg8
g19
sa(dp1612
g1
I01
sg7
I5
sg8
S'__module__'
p1613
sa(dp1614
g1
I01
sg7
I2
sg8
g21
sa(dp1615
g1
I01
sg7
I2
sg8
g23
sa(dp1616
g1
I01
sg7
I2
sg8
g25
sa(dp1617
g1
I01
sg7
I5
sg8
g27
sa(dp1618
g1
I01
sg7
I5
sg8
g29
sa(dp1619
g1
I01
sg7
I2
sg8
g31
sa(dp1620
g1
I01
sg7
I5
sg8
g33
sa(dp1621
g1
I01
sg7
I2
sg8
g35
sa(dp1622
g1
I01
sg7
I5
sg8
g62
sa(dp1623
g1
I01
sg7
I5
sg8
g37
sa(dp1624
g1
I01
sg7
I5
sg8
S'_fields'
p1625
sasg7
I3
sg8
S'Pow'
p1626
sa(dp1627
g1
I01
sg2
(lp1628
(dp1629
g1
I01
sg7
I5
sg8
g9
sa(dp1630
g1
I01
sg7
I5
sg8
g45
sa(dp1631
g1
I01
sg7
I5
sg8
g11
sa(dp1632
g1
I01
sg7
I2
sg8
g13
sa(dp1633
g1
I01
sg7
I5
sg8
g15
sa(dp1634
g1
I01
sg7
I5
sg8
g17
sa(dp1635
g1
I01
sg7
I5
sg8
g19
sa(dp1636
g1
I01
sg7
I5
sg8
S'__module__'
p1637
sa(dp1638
g1
I01
sg7
I2
sg8
g21
sa(dp1639
g1
I01
sg7
I2
sg8
g23
sa(dp1640
g1
I01
sg7
I2
sg8
g25
sa(dp1641
g1
I01
sg7
I5
sg8
g27
sa(dp1642
g1
I01
sg7
I5
sg8
g29
sa(dp1643
g1
I01
sg7
I2
sg8
g31
sa(dp1644
g1
I01
sg7
I5
sg8
g33
sa(dp1645
g1
I01
sg7
I2
sg8
g35
sa(dp1646
g1
I01
sg7
I5
sg8
g62
sa(dp1647
g1
I01
sg7
I5
sg8
g37
sa(dp1648
g1
I01
sg7
I5
sg8
S'_fields'
p1649
sasg7
I3
sg8
S'Print'
p1650
sa(dp1651
g1
I01
sg7
I5
sg8
S'PyCF_ONLY_AST'
p1652
sa(dp1653
g1
I01
sg2
(lp1654
(dp1655
g1
I01
sg7
I5
sg8
g9
sa(dp1656
g1
I01
sg7
I5
sg8
g45
sa(dp1657
g1
I01
sg7
I5
sg8
g11
sa(dp1658
g1
I01
sg7
I2
sg8
g13
sa(dp1659
g1
I01
sg7
I5
sg8
g15
sa(dp1660
g1
I01
sg7
I5
sg8
g17
sa(dp1661
g1
I01
sg7
I5
sg8
g19
sa(dp1662
g1
I01
sg7
I5
sg8
S'__module__'
p1663
sa(dp1664
g1
I01
sg7
I2
sg8
g21
sa(dp1665
g1
I01
sg7
I2
sg8
g23
sa(dp1666
g1
I01
sg7
I2
sg8
g25
sa(dp1667
g1
I01
sg7
I5
sg8
g27
sa(dp1668
g1
I01
sg7
I5
sg8
g29
sa(dp1669
g1
I01
sg7
I2
sg8
g31
sa(dp1670
g1
I01
sg7
I5
sg8
g33
sa(dp1671
g1
I01
sg7
I2
sg8
g35
sa(dp1672
g1
I01
sg7
I5
sg8
g62
sa(dp1673
g1
I01
sg7
I5
sg8
g37
sa(dp1674
g1
I01
sg7
I5
sg8
S'_fields'
p1675
sasg7
I3
sg8
S'RShift'
p1676
sa(dp1677
g1
I01
sg2
(lp1678
(dp1679
g1
I01
sg7
I5
sg8
g9
sa(dp1680
g1
I01
sg7
I5
sg8
g45
sa(dp1681
g1
I01
sg7
I5
sg8
g11
sa(dp1682
g1
I01
sg7
I2
sg8
g13
sa(dp1683
g1
I01
sg7
I5
sg8
g15
sa(dp1684
g1
I01
sg7
I5
sg8
g17
sa(dp1685
g1
I01
sg7
I5
sg8
g19
sa(dp1686
g1
I01
sg7
I5
sg8
S'__module__'
p1687
sa(dp1688
g1
I01
sg7
I2
sg8
g21
sa(dp1689
g1
I01
sg7
I2
sg8
g23
sa(dp1690
g1
I01
sg7
I2
sg8
g25
sa(dp1691
g1
I01
sg7
I5
sg8
g27
sa(dp1692
g1
I01
sg7
I5
sg8
g29
sa(dp1693
g1
I01
sg7
I2
sg8
g31
sa(dp1694
g1
I01
sg7
I5
sg8
g33
sa(dp1695
g1
I01
sg7
I2
sg8
g35
sa(dp1696
g1
I01
sg7
I5
sg8
g62
sa(dp1697
g1
I01
sg7
I5
sg8
g37
sa(dp1698
g1
I01
sg7
I5
sg8
S'_fields'
p1699
sasg7
I3
sg8
S'Raise'
p1700
sa(dp1701
g1
I01
sg2
(lp1702
(dp1703
g1
I01
sg7
I5
sg8
g9
sa(dp1704
g1
I01
sg7
I5
sg8
g45
sa(dp1705
g1
I01
sg7
I5
sg8
g11
sa(dp1706
g1
I01
sg7
I2
sg8
g13
sa(dp1707
g1
I01
sg7
I5
sg8
g15
sa(dp1708
g1
I01
sg7
I5
sg8
g17
sa(dp1709
g1
I01
sg7
I5
sg8
g19
sa(dp1710
g1
I01
sg7
I5
sg8
S'__module__'
p1711
sa(dp1712
g1
I01
sg7
I2
sg8
g21
sa(dp1713
g1
I01
sg7
I2
sg8
g23
sa(dp1714
g1
I01
sg7
I2
sg8
g25
sa(dp1715
g1
I01
sg7
I5
sg8
g27
sa(dp1716
g1
I01
sg7
I5
sg8
g29
sa(dp1717
g1
I01
sg7
I2
sg8
g31
sa(dp1718
g1
I01
sg7
I5
sg8
g33
sa(dp1719
g1
I01
sg7
I2
sg8
g35
sa(dp1720
g1
I01
sg7
I5
sg8
g62
sa(dp1721
g1
I01
sg7
I5
sg8
g37
sa(dp1722
g1
I01
sg7
I5
sg8
S'_fields'
p1723
sasg7
I3
sg8
S'Repr'
p1724
sa(dp1725
g1
I01
sg2
(lp1726
(dp1727
g1
I01
sg7
I5
sg8
g9
sa(dp1728
g1
I01
sg7
I5
sg8
g45
sa(dp1729
g1
I01
sg7
I5
sg8
g11
sa(dp1730
g1
I01
sg7
I2
sg8
g13
sa(dp1731
g1
I01
sg7
I5
sg8
g15
sa(dp1732
g1
I01
sg7
I5
sg8
g17
sa(dp1733
g1
I01
sg7
I5
sg8
g19
sa(dp1734
g1
I01
sg7
I5
sg8
S'__module__'
p1735
sa(dp1736
g1
I01
sg7
I2
sg8
g21
sa(dp1737
g1
I01
sg7
I2
sg8
g23
sa(dp1738
g1
I01
sg7
I2
sg8
g25
sa(dp1739
g1
I01
sg7
I5
sg8
g27
sa(dp1740
g1
I01
sg7
I5
sg8
g29
sa(dp1741
g1
I01
sg7
I2
sg8
g31
sa(dp1742
g1
I01
sg7
I5
sg8
g33
sa(dp1743
g1
I01
sg7
I2
sg8
g35
sa(dp1744
g1
I01
sg7
I5
sg8
g62
sa(dp1745
g1
I01
sg7
I5
sg8
g37
sa(dp1746
g1
I01
sg7
I5
sg8
S'_fields'
p1747
sasg7
I3
sg8
S'Return'
p1748
sa(dp1749
g1
I01
sg2
(lp1750
(dp1751
g1
I01
sg7
I5
sg8
g9
sa(dp1752
g1
I01
sg7
I5
sg8
g45
sa(dp1753
g1
I01
sg7
I5
sg8
g11
sa(dp1754
g1
I01
sg7
I2
sg8
g13
sa(dp1755
g1
I01
sg7
I5
sg8
g15
sa(dp1756
g1
I01
sg7
I5
sg8
g17
sa(dp1757
g1
I01
sg7
I5
sg8
g19
sa(dp1758
g1
I01
sg7
I5
sg8
S'__module__'
p1759
sa(dp1760
g1
I01
sg7
I2
sg8
g21
sa(dp1761
g1
I01
sg7
I2
sg8
g23
sa(dp1762
g1
I01
sg7
I2
sg8
g25
sa(dp1763
g1
I01
sg7
I5
sg8
g27
sa(dp1764
g1
I01
sg7
I5
sg8
g29
sa(dp1765
g1
I01
sg7
I2
sg8
g31
sa(dp1766
g1
I01
sg7
I5
sg8
g33
sa(dp1767
g1
I01
sg7
I2
sg8
g35
sa(dp1768
g1
I01
sg7
I5
sg8
g62
sa(dp1769
g1
I01
sg7
I5
sg8
g37
sa(dp1770
g1
I01
sg7
I5
sg8
S'_fields'
p1771
sasg7
I3
sg8
S'Set'
p1772
sa(dp1773
g1
I01
sg2
(lp1774
(dp1775
g1
I01
sg7
I5
sg8
g9
sa(dp1776
g1
I01
sg7
I5
sg8
g45
sa(dp1777
g1
I01
sg7
I5
sg8
g11
sa(dp1778
g1
I01
sg7
I2
sg8
g13
sa(dp1779
g1
I01
sg7
I5
sg8
g15
sa(dp1780
g1
I01
sg7
I5
sg8
g17
sa(dp1781
g1
I01
sg7
I5
sg8
g19
sa(dp1782
g1
I01
sg7
I5
sg8
S'__module__'
p1783
sa(dp1784
g1
I01
sg7
I2
sg8
g21
sa(dp1785
g1
I01
sg7
I2
sg8
g23
sa(dp1786
g1
I01
sg7
I2
sg8
g25
sa(dp1787
g1
I01
sg7
I5
sg8
g27
sa(dp1788
g1
I01
sg7
I5
sg8
g29
sa(dp1789
g1
I01
sg7
I2
sg8
g31
sa(dp1790
g1
I01
sg7
I5
sg8
g33
sa(dp1791
g1
I01
sg7
I2
sg8
g35
sa(dp1792
g1
I01
sg7
I5
sg8
g62
sa(dp1793
g1
I01
sg7
I5
sg8
g37
sa(dp1794
g1
I01
sg7
I5
sg8
S'_fields'
p1795
sasg7
I3
sg8
S'SetComp'
p1796
sa(dp1797
g1
I01
sg2
(lp1798
(dp1799
g1
I01
sg7
I5
sg8
g9
sa(dp1800
g1
I01
sg7
I5
sg8
g45
sa(dp1801
g1
I01
sg7
I5
sg8
g11
sa(dp1802
g1
I01
sg7
I2
sg8
g13
sa(dp1803
g1
I01
sg7
I5
sg8
g15
sa(dp1804
g1
I01
sg7
I5
sg8
g17
sa(dp1805
g1
I01
sg7
I5
sg8
g19
sa(dp1806
g1
I01
sg7
I5
sg8
S'__module__'
p1807
sa(dp1808
g1
I01
sg7
I2
sg8
g21
sa(dp1809
g1
I01
sg7
I2
sg8
g23
sa(dp1810
g1
I01
sg7
I2
sg8
g25
sa(dp1811
g1
I01
sg7
I5
sg8
g27
sa(dp1812
g1
I01
sg7
I5
sg8
g29
sa(dp1813
g1
I01
sg7
I2
sg8
g31
sa(dp1814
g1
I01
sg7
I5
sg8
g33
sa(dp1815
g1
I01
sg7
I2
sg8
g35
sa(dp1816
g1
I01
sg7
I5
sg8
g62
sa(dp1817
g1
I01
sg7
I5
sg8
g37
sa(dp1818
g1
I01
sg7
I5
sg8
S'_fields'
p1819
sasg7
I3
sg8
S'Slice'
p1820
sa(dp1821
g1
I01
sg2
(lp1822
(dp1823
g1
I01
sg7
I5
sg8
g9
sa(dp1824
g1
I01
sg7
I5
sg8
g45
sa(dp1825
g1
I01
sg7
I5
sg8
g11
sa(dp1826
g1
I01
sg7
I2
sg8
g13
sa(dp1827
g1
I01
sg7
I5
sg8
g15
sa(dp1828
g1
I01
sg7
I5
sg8
g17
sa(dp1829
g1
I01
sg7
I5
sg8
g19
sa(dp1830
g1
I01
sg7
I5
sg8
S'__module__'
p1831
sa(dp1832
g1
I01
sg7
I2
sg8
g21
sa(dp1833
g1
I01
sg7
I2
sg8
g23
sa(dp1834
g1
I01
sg7
I2
sg8
g25
sa(dp1835
g1
I01
sg7
I5
sg8
g27
sa(dp1836
g1
I01
sg7
I5
sg8
g29
sa(dp1837
g1
I01
sg7
I2
sg8
g31
sa(dp1838
g1
I01
sg7
I5
sg8
g33
sa(dp1839
g1
I01
sg7
I2
sg8
g35
sa(dp1840
g1
I01
sg7
I5
sg8
g62
sa(dp1841
g1
I01
sg7
I5
sg8
g37
sa(dp1842
g1
I01
sg7
I5
sg8
S'_fields'
p1843
sasg7
I3
sg8
S'Store'
p1844
sa(dp1845
g1
I01
sg2
(lp1846
(dp1847
g1
I01
sg7
I5
sg8
g9
sa(dp1848
g1
I01
sg7
I5
sg8
g45
sa(dp1849
g1
I01
sg7
I5
sg8
g11
sa(dp1850
g1
I01
sg7
I2
sg8
g13
sa(dp1851
g1
I01
sg7
I5
sg8
g15
sa(dp1852
g1
I01
sg7
I5
sg8
g17
sa(dp1853
g1
I01
sg7
I5
sg8
g19
sa(dp1854
g1
I01
sg7
I5
sg8
S'__module__'
p1855
sa(dp1856
g1
I01
sg7
I2
sg8
g21
sa(dp1857
g1
I01
sg7
I2
sg8
g23
sa(dp1858
g1
I01
sg7
I2
sg8
g25
sa(dp1859
g1
I01
sg7
I5
sg8
g27
sa(dp1860
g1
I01
sg7
I5
sg8
g29
sa(dp1861
g1
I01
sg7
I2
sg8
g31
sa(dp1862
g1
I01
sg7
I5
sg8
g33
sa(dp1863
g1
I01
sg7
I2
sg8
g35
sa(dp1864
g1
I01
sg7
I5
sg8
g62
sa(dp1865
g1
I01
sg7
I5
sg8
g37
sa(dp1866
g1
I01
sg7
I5
sg8
S'_fields'
p1867
sasg7
I3
sg8
S'Str'
p1868
sa(dp1869
g1
I01
sg2
(lp1870
(dp1871
g1
I01
sg7
I5
sg8
g9
sa(dp1872
g1
I01
sg7
I5
sg8
g45
sa(dp1873
g1
I01
sg7
I5
sg8
g11
sa(dp1874
g1
I01
sg7
I2
sg8
g13
sa(dp1875
g1
I01
sg7
I5
sg8
g15
sa(dp1876
g1
I01
sg7
I5
sg8
g17
sa(dp1877
g1
I01
sg7
I5
sg8
g19
sa(dp1878
g1
I01
sg7
I5
sg8
S'__module__'
p1879
sa(dp1880
g1
I01
sg7
I2
sg8
g21
sa(dp1881
g1
I01
sg7
I2
sg8
g23
sa(dp1882
g1
I01
sg7
I2
sg8
g25
sa(dp1883
g1
I01
sg7
I5
sg8
g27
sa(dp1884
g1
I01
sg7
I5
sg8
g29
sa(dp1885
g1
I01
sg7
I2
sg8
g31
sa(dp1886
g1
I01
sg7
I5
sg8
g33
sa(dp1887
g1
I01
sg7
I2
sg8
g35
sa(dp1888
g1
I01
sg7
I5
sg8
g62
sa(dp1889
g1
I01
sg7
I5
sg8
g37
sa(dp1890
g1
I01
sg7
I5
sg8
S'_fields'
p1891
sasg7
I3
sg8
S'Sub'
p1892
sa(dp1893
g1
I01
sg2
(lp1894
(dp1895
g1
I01
sg7
I5
sg8
g9
sa(dp1896
g1
I01
sg7
I5
sg8
g45
sa(dp1897
g1
I01
sg7
I5
sg8
g11
sa(dp1898
g1
I01
sg7
I2
sg8
g13
sa(dp1899
g1
I01
sg7
I5
sg8
g15
sa(dp1900
g1
I01
sg7
I5
sg8
g17
sa(dp1901
g1
I01
sg7
I5
sg8
g19
sa(dp1902
g1
I01
sg7
I5
sg8
S'__module__'
p1903
sa(dp1904
g1
I01
sg7
I2
sg8
g21
sa(dp1905
g1
I01
sg7
I2
sg8
g23
sa(dp1906
g1
I01
sg7
I2
sg8
g25
sa(dp1907
g1
I01
sg7
I5
sg8
g27
sa(dp1908
g1
I01
sg7
I5
sg8
g29
sa(dp1909
g1
I01
sg7
I2
sg8
g31
sa(dp1910
g1
I01
sg7
I5
sg8
g33
sa(dp1911
g1
I01
sg7
I2
sg8
g35
sa(dp1912
g1
I01
sg7
I5
sg8
g62
sa(dp1913
g1
I01
sg7
I5
sg8
g37
sa(dp1914
g1
I01
sg7
I5
sg8
S'_fields'
p1915
sasg7
I3
sg8
S'Subscript'
p1916
sa(dp1917
g1
I01
sg2
(lp1918
(dp1919
g1
I01
sg7
I5
sg8
g9
sa(dp1920
g1
I01
sg7
I5
sg8
g45
sa(dp1921
g1
I01
sg7
I5
sg8
g11
sa(dp1922
g1
I01
sg7
I2
sg8
g13
sa(dp1923
g1
I01
sg7
I5
sg8
g15
sa(dp1924
g1
I01
sg7
I5
sg8
g17
sa(dp1925
g1
I01
sg7
I5
sg8
g19
sa(dp1926
g1
I01
sg7
I5
sg8
S'__module__'
p1927
sa(dp1928
g1
I01
sg7
I2
sg8
g21
sa(dp1929
g1
I01
sg7
I2
sg8
g23
sa(dp1930
g1
I01
sg7
I2
sg8
g25
sa(dp1931
g1
I01
sg7
I5
sg8
g27
sa(dp1932
g1
I01
sg7
I5
sg8
g29
sa(dp1933
g1
I01
sg7
I2
sg8
g31
sa(dp1934
g1
I01
sg7
I5
sg8
g33
sa(dp1935
g1
I01
sg7
I2
sg8
g35
sa(dp1936
g1
I01
sg7
I5
sg8
g62
sa(dp1937
g1
I01
sg7
I5
sg8
g37
sa(dp1938
g1
I01
sg7
I5
sg8
S'_fields'
p1939
sasg7
I3
sg8
S'Suite'
p1940
sa(dp1941
g1
I01
sg2
(lp1942
(dp1943
g1
I01
sg7
I5
sg8
g9
sa(dp1944
g1
I01
sg7
I5
sg8
g45
sa(dp1945
g1
I01
sg7
I5
sg8
g11
sa(dp1946
g1
I01
sg7
I2
sg8
g13
sa(dp1947
g1
I01
sg7
I5
sg8
g15
sa(dp1948
g1
I01
sg7
I5
sg8
g17
sa(dp1949
g1
I01
sg7
I5
sg8
g19
sa(dp1950
g1
I01
sg7
I5
sg8
S'__module__'
p1951
sa(dp1952
g1
I01
sg7
I2
sg8
g21
sa(dp1953
g1
I01
sg7
I2
sg8
g23
sa(dp1954
g1
I01
sg7
I2
sg8
g25
sa(dp1955
g1
I01
sg7
I5
sg8
g27
sa(dp1956
g1
I01
sg7
I5
sg8
g29
sa(dp1957
g1
I01
sg7
I2
sg8
g31
sa(dp1958
g1
I01
sg7
I5
sg8
g33
sa(dp1959
g1
I01
sg7
I2
sg8
g35
sa(dp1960
g1
I01
sg7
I5
sg8
g62
sa(dp1961
g1
I01
sg7
I5
sg8
g37
sa(dp1962
g1
I01
sg7
I5
sg8
S'_fields'
p1963
sasg7
I3
sg8
S'TryExcept'
p1964
sa(dp1965
g1
I01
sg2
(lp1966
(dp1967
g1
I01
sg7
I5
sg8
g9
sa(dp1968
g1
I01
sg7
I5
sg8
g45
sa(dp1969
g1
I01
sg7
I5
sg8
g11
sa(dp1970
g1
I01
sg7
I2
sg8
g13
sa(dp1971
g1
I01
sg7
I5
sg8
g15
sa(dp1972
g1
I01
sg7
I5
sg8
g17
sa(dp1973
g1
I01
sg7
I5
sg8
g19
sa(dp1974
g1
I01
sg7
I5
sg8
S'__module__'
p1975
sa(dp1976
g1
I01
sg7
I2
sg8
g21
sa(dp1977
g1
I01
sg7
I2
sg8
g23
sa(dp1978
g1
I01
sg7
I2
sg8
g25
sa(dp1979
g1
I01
sg7
I5
sg8
g27
sa(dp1980
g1
I01
sg7
I5
sg8
g29
sa(dp1981
g1
I01
sg7
I2
sg8
g31
sa(dp1982
g1
I01
sg7
I5
sg8
g33
sa(dp1983
g1
I01
sg7
I2
sg8
g35
sa(dp1984
g1
I01
sg7
I5
sg8
g62
sa(dp1985
g1
I01
sg7
I5
sg8
g37
sa(dp1986
g1
I01
sg7
I5
sg8
S'_fields'
p1987
sasg7
I3
sg8
S'TryFinally'
p1988
sa(dp1989
g1
I01
sg2
(lp1990
(dp1991
g1
I01
sg7
I5
sg8
g9
sa(dp1992
g1
I01
sg7
I5
sg8
g45
sa(dp1993
g1
I01
sg7
I5
sg8
g11
sa(dp1994
g1
I01
sg7
I2
sg8
g13
sa(dp1995
g1
I01
sg7
I5
sg8
g15
sa(dp1996
g1
I01
sg7
I5
sg8
g17
sa(dp1997
g1
I01
sg7
I5
sg8
g19
sa(dp1998
g1
I01
sg7
I5
sg8
S'__module__'
p1999
sa(dp2000
g1
I01
sg7
I2
sg8
g21
sa(dp2001
g1
I01
sg7
I2
sg8
g23
sa(dp2002
g1
I01
sg7
I2
sg8
g25
sa(dp2003
g1
I01
sg7
I5
sg8
g27
sa(dp2004
g1
I01
sg7
I5
sg8
g29
sa(dp2005
g1
I01
sg7
I2
sg8
g31
sa(dp2006
g1
I01
sg7
I5
sg8
g33
sa(dp2007
g1
I01
sg7
I2
sg8
g35
sa(dp2008
g1
I01
sg7
I5
sg8
g62
sa(dp2009
g1
I01
sg7
I5
sg8
g37
sa(dp2010
g1
I01
sg7
I5
sg8
S'_fields'
p2011
sasg7
I3
sg8
S'Tuple'
p2012
sa(dp2013
g1
I01
sg2
(lp2014
(dp2015
g1
I01
sg7
I5
sg8
g9
sa(dp2016
g1
I01
sg7
I5
sg8
g45
sa(dp2017
g1
I01
sg7
I5
sg8
g11
sa(dp2018
g1
I01
sg7
I2
sg8
g13
sa(dp2019
g1
I01
sg7
I5
sg8
g15
sa(dp2020
g1
I01
sg7
I5
sg8
g17
sa(dp2021
g1
I01
sg7
I5
sg8
g19
sa(dp2022
g1
I01
sg7
I5
sg8
S'__module__'
p2023
sa(dp2024
g1
I01
sg7
I2
sg8
g21
sa(dp2025
g1
I01
sg7
I2
sg8
g23
sa(dp2026
g1
I01
sg7
I2
sg8
g25
sa(dp2027
g1
I01
sg7
I5
sg8
g27
sa(dp2028
g1
I01
sg7
I5
sg8
g29
sa(dp2029
g1
I01
sg7
I2
sg8
g31
sa(dp2030
g1
I01
sg7
I5
sg8
g33
sa(dp2031
g1
I01
sg7
I2
sg8
g35
sa(dp2032
g1
I01
sg7
I5
sg8
g62
sa(dp2033
g1
I01
sg7
I5
sg8
g37
sa(dp2034
g1
I01
sg7
I5
sg8
S'_fields'
p2035
sasg7
I3
sg8
S'UAdd'
p2036
sa(dp2037
g1
I01
sg2
(lp2038
(dp2039
g1
I01
sg7
I5
sg8
g9
sa(dp2040
g1
I01
sg7
I5
sg8
g45
sa(dp2041
g1
I01
sg7
I5
sg8
g11
sa(dp2042
g1
I01
sg7
I2
sg8
g13
sa(dp2043
g1
I01
sg7
I5
sg8
g15
sa(dp2044
g1
I01
sg7
I5
sg8
g17
sa(dp2045
g1
I01
sg7
I5
sg8
g19
sa(dp2046
g1
I01
sg7
I5
sg8
S'__module__'
p2047
sa(dp2048
g1
I01
sg7
I2
sg8
g21
sa(dp2049
g1
I01
sg7
I2
sg8
g23
sa(dp2050
g1
I01
sg7
I2
sg8
g25
sa(dp2051
g1
I01
sg7
I5
sg8
g27
sa(dp2052
g1
I01
sg7
I5
sg8
g29
sa(dp2053
g1
I01
sg7
I2
sg8
g31
sa(dp2054
g1
I01
sg7
I5
sg8
g33
sa(dp2055
g1
I01
sg7
I2
sg8
g35
sa(dp2056
g1
I01
sg7
I5
sg8
g62
sa(dp2057
g1
I01
sg7
I5
sg8
g37
sa(dp2058
g1
I01
sg7
I5
sg8
S'_fields'
p2059
sasg7
I3
sg8
S'USub'
p2060
sa(dp2061
g1
I01
sg2
(lp2062
(dp2063
g1
I01
sg7
I5
sg8
g9
sa(dp2064
g1
I01
sg7
I5
sg8
g45
sa(dp2065
g1
I01
sg7
I5
sg8
g11
sa(dp2066
g1
I01
sg7
I2
sg8
g13
sa(dp2067
g1
I01
sg7
I5
sg8
g15
sa(dp2068
g1
I01
sg7
I5
sg8
g17
sa(dp2069
g1
I01
sg7
I5
sg8
g19
sa(dp2070
g1
I01
sg7
I5
sg8
S'__module__'
p2071
sa(dp2072
g1
I01
sg7
I2
sg8
g21
sa(dp2073
g1
I01
sg7
I2
sg8
g23
sa(dp2074
g1
I01
sg7
I2
sg8
g25
sa(dp2075
g1
I01
sg7
I5
sg8
g27
sa(dp2076
g1
I01
sg7
I5
sg8
g29
sa(dp2077
g1
I01
sg7
I2
sg8
g31
sa(dp2078
g1
I01
sg7
I5
sg8
g33
sa(dp2079
g1
I01
sg7
I2
sg8
g35
sa(dp2080
g1
I01
sg7
I5
sg8
g62
sa(dp2081
g1
I01
sg7
I5
sg8
g37
sa(dp2082
g1
I01
sg7
I5
sg8
S'_fields'
p2083
sasg7
I3
sg8
S'UnaryOp'
p2084
sa(dp2085
g1
I01
sg2
(lp2086
(dp2087
g1
I01
sg7
I5
sg8
g9
sa(dp2088
g1
I01
sg7
I5
sg8
g45
sa(dp2089
g1
I01
sg7
I5
sg8
g11
sa(dp2090
g1
I01
sg7
I2
sg8
g13
sa(dp2091
g1
I01
sg7
I5
sg8
g15
sa(dp2092
g1
I01
sg7
I5
sg8
g17
sa(dp2093
g1
I01
sg7
I5
sg8
g19
sa(dp2094
g1
I01
sg7
I5
sg8
S'__module__'
p2095
sa(dp2096
g1
I01
sg7
I2
sg8
g21
sa(dp2097
g1
I01
sg7
I2
sg8
g23
sa(dp2098
g1
I01
sg7
I2
sg8
g25
sa(dp2099
g1
I01
sg7
I5
sg8
g27
sa(dp2100
g1
I01
sg7
I5
sg8
g29
sa(dp2101
g1
I01
sg7
I2
sg8
g31
sa(dp2102
g1
I01
sg7
I5
sg8
g33
sa(dp2103
g1
I01
sg7
I2
sg8
g35
sa(dp2104
g1
I01
sg7
I5
sg8
g62
sa(dp2105
g1
I01
sg7
I5
sg8
g37
sa(dp2106
g1
I01
sg7
I5
sg8
S'_fields'
p2107
sasg7
I3
sg8
S'While'
p2108
sa(dp2109
g1
I01
sg2
(lp2110
(dp2111
g1
I01
sg7
I5
sg8
g9
sa(dp2112
g1
I01
sg7
I5
sg8
g45
sa(dp2113
g1
I01
sg7
I5
sg8
g11
sa(dp2114
g1
I01
sg7
I2
sg8
g13
sa(dp2115
g1
I01
sg7
I5
sg8
g15
sa(dp2116
g1
I01
sg7
I5
sg8
g17
sa(dp2117
g1
I01
sg7
I5
sg8
g19
sa(dp2118
g1
I01
sg7
I5
sg8
S'__module__'
p2119
sa(dp2120
g1
I01
sg7
I2
sg8
g21
sa(dp2121
g1
I01
sg7
I2
sg8
g23
sa(dp2122
g1
I01
sg7
I2
sg8
g25
sa(dp2123
g1
I01
sg7
I5
sg8
g27
sa(dp2124
g1
I01
sg7
I5
sg8
g29
sa(dp2125
g1
I01
sg7
I2
sg8
g31
sa(dp2126
g1
I01
sg7
I5
sg8
g33
sa(dp2127
g1
I01
sg7
I2
sg8
g35
sa(dp2128
g1
I01
sg7
I5
sg8
g62
sa(dp2129
g1
I01
sg7
I5
sg8
g37
sa(dp2130
g1
I01
sg7
I5
sg8
S'_fields'
p2131
sasg7
I3
sg8
S'With'
p2132
sa(dp2133
g1
I01
sg2
(lp2134
(dp2135
g1
I01
sg7
I5
sg8
g9
sa(dp2136
g1
I01
sg7
I5
sg8
g45
sa(dp2137
g1
I01
sg7
I5
sg8
g11
sa(dp2138
g1
I01
sg7
I2
sg8
g13
sa(dp2139
g1
I01
sg7
I5
sg8
g15
sa(dp2140
g1
I01
sg7
I5
sg8
g17
sa(dp2141
g1
I01
sg7
I5
sg8
g19
sa(dp2142
g1
I01
sg7
I5
sg8
S'__module__'
p2143
sa(dp2144
g1
I01
sg7
I2
sg8
g21
sa(dp2145
g1
I01
sg7
I2
sg8
g23
sa(dp2146
g1
I01
sg7
I2
sg8
g25
sa(dp2147
g1
I01
sg7
I5
sg8
g27
sa(dp2148
g1
I01
sg7
I5
sg8
g29
sa(dp2149
g1
I01
sg7
I2
sg8
g31
sa(dp2150
g1
I01
sg7
I5
sg8
g33
sa(dp2151
g1
I01
sg7
I2
sg8
g35
sa(dp2152
g1
I01
sg7
I5
sg8
g62
sa(dp2153
g1
I01
sg7
I5
sg8
g37
sa(dp2154
g1
I01
sg7
I5
sg8
S'_fields'
p2155
sasg7
I3
sg8
S'Yield'
p2156
sa(dp2157
g1
I01
sg7
I5
sg8
g11
sa(dp2158
g1
I01
sg7
I5
sg8
S'__name__'
p2159
sa(dp2160
g1
I01
sg7
I5
sg8
S'__package__'
p2161
sa(dp2162
g1
I01
sg7
I5
sg8
S'__version__'
p2163
sa(dp2164
g1
I01
sg2
(lp2165
(dp2166
g1
I01
sg7
I5
sg8
g9
sa(dp2167
g1
I01
sg7
I5
sg8
g45
sa(dp2168
g1
I01
sg7
I5
sg8
g11
sa(dp2169
g1
I01
sg7
I2
sg8
g13
sa(dp2170
g1
I01
sg7
I5
sg8
g15
sa(dp2171
g1
I01
sg7
I5
sg8
g17
sa(dp2172
g1
I01
sg7
I5
sg8
g19
sa(dp2173
g1
I01
sg7
I5
sg8
S'__module__'
p2174
sa(dp2175
g1
I01
sg7
I2
sg8
g21
sa(dp2176
g1
I01
sg7
I2
sg8
g23
sa(dp2177
g1
I01
sg7
I2
sg8
g25
sa(dp2178
g1
I01
sg7
I5
sg8
g27
sa(dp2179
g1
I01
sg7
I5
sg8
g29
sa(dp2180
g1
I01
sg7
I2
sg8
g31
sa(dp2181
g1
I01
sg7
I5
sg8
g33
sa(dp2182
g1
I01
sg7
I2
sg8
g35
sa(dp2183
g1
I01
sg7
I5
sg8
g62
sa(dp2184
g1
I01
sg7
I5
sg8
g37
sa(dp2185
g1
I01
sg7
I5
sg8
S'_fields'
p2186
sasg7
I3
sg8
S'alias'
p2187
sa(dp2188
g1
I01
sg2
(lp2189
(dp2190
g1
I01
sg7
I5
sg8
g9
sa(dp2191
g1
I01
sg7
I5
sg8
g45
sa(dp2192
g1
I01
sg7
I5
sg8
g11
sa(dp2193
g1
I01
sg7
I2
sg8
g13
sa(dp2194
g1
I01
sg7
I5
sg8
g15
sa(dp2195
g1
I01
sg7
I5
sg8
g17
sa(dp2196
g1
I01
sg7
I5
sg8
g19
sa(dp2197
g1
I01
sg7
I5
sg8
S'__module__'
p2198
sa(dp2199
g1
I01
sg7
I2
sg8
g21
sa(dp2200
g1
I01
sg7
I2
sg8
g23
sa(dp2201
g1
I01
sg7
I2
sg8
g25
sa(dp2202
g1
I01
sg7
I5
sg8
g27
sa(dp2203
g1
I01
sg7
I5
sg8
g29
sa(dp2204
g1
I01
sg7
I2
sg8
g31
sa(dp2205
g1
I01
sg7
I5
sg8
g33
sa(dp2206
g1
I01
sg7
I2
sg8
g35
sa(dp2207
g1
I01
sg7
I5
sg8
g62
sa(dp2208
g1
I01
sg7
I5
sg8
g37
sa(dp2209
g1
I01
sg7
I5
sg8
S'_fields'
p2210
sasg7
I3
sg8
S'arguments'
p2211
sa(dp2212
g1
I01
sg2
(lp2213
(dp2214
g1
I01
sg7
I5
sg8
g9
sa(dp2215
g1
I01
sg7
I5
sg8
g45
sa(dp2216
g1
I01
sg7
I5
sg8
g11
sa(dp2217
g1
I01
sg7
I2
sg8
g13
sa(dp2218
g1
I01
sg7
I5
sg8
g15
sa(dp2219
g1
I01
sg7
I5
sg8
g17
sa(dp2220
g1
I01
sg7
I5
sg8
g19
sa(dp2221
g1
I01
sg7
I5
sg8
S'__module__'
p2222
sa(dp2223
g1
I01
sg7
I2
sg8
g21
sa(dp2224
g1
I01
sg7
I2
sg8
g23
sa(dp2225
g1
I01
sg7
I2
sg8
g25
sa(dp2226
g1
I01
sg7
I5
sg8
g27
sa(dp2227
g1
I01
sg7
I5
sg8
g29
sa(dp2228
g1
I01
sg7
I2
sg8
g31
sa(dp2229
g1
I01
sg7
I5
sg8
g33
sa(dp2230
g1
I01
sg7
I2
sg8
g35
sa(dp2231
g1
I01
sg7
I5
sg8
g62
sa(dp2232
g1
I01
sg7
I5
sg8
g37
sa(dp2233
g1
I01
sg7
I5
sg8
S'_fields'
p2234
sasg7
I3
sg8
S'boolop'
p2235
sa(dp2236
g1
I01
sg2
(lp2237
(dp2238
g1
I01
sg7
I5
sg8
g9
sa(dp2239
g1
I01
sg7
I5
sg8
g45
sa(dp2240
g1
I01
sg7
I5
sg8
g11
sa(dp2241
g1
I01
sg7
I2
sg8
g13
sa(dp2242
g1
I01
sg7
I5
sg8
g15
sa(dp2243
g1
I01
sg7
I5
sg8
g17
sa(dp2244
g1
I01
sg7
I5
sg8
g19
sa(dp2245
g1
I01
sg7
I5
sg8
S'__module__'
p2246
sa(dp2247
g1
I01
sg7
I2
sg8
g21
sa(dp2248
g1
I01
sg7
I2
sg8
g23
sa(dp2249
g1
I01
sg7
I2
sg8
g25
sa(dp2250
g1
I01
sg7
I5
sg8
g27
sa(dp2251
g1
I01
sg7
I5
sg8
g29
sa(dp2252
g1
I01
sg7
I2
sg8
g31
sa(dp2253
g1
I01
sg7
I5
sg8
g33
sa(dp2254
g1
I01
sg7
I2
sg8
g35
sa(dp2255
g1
I01
sg7
I5
sg8
g62
sa(dp2256
g1
I01
sg7
I5
sg8
g37
sa(dp2257
g1
I01
sg7
I5
sg8
S'_fields'
p2258
sasg7
I3
sg8
S'cmpop'
p2259
sa(dp2260
g1
I01
sg2
(lp2261
(dp2262
g1
I01
sg7
I5
sg8
g9
sa(dp2263
g1
I01
sg7
I5
sg8
g45
sa(dp2264
g1
I01
sg7
I5
sg8
g11
sa(dp2265
g1
I01
sg7
I2
sg8
g13
sa(dp2266
g1
I01
sg7
I5
sg8
g15
sa(dp2267
g1
I01
sg7
I5
sg8
g17
sa(dp2268
g1
I01
sg7
I5
sg8
g19
sa(dp2269
g1
I01
sg7
I5
sg8
S'__module__'
p2270
sa(dp2271
g1
I01
sg7
I2
sg8
g21
sa(dp2272
g1
I01
sg7
I2
sg8
g23
sa(dp2273
g1
I01
sg7
I2
sg8
g25
sa(dp2274
g1
I01
sg7
I5
sg8
g27
sa(dp2275
g1
I01
sg7
I5
sg8
g29
sa(dp2276
g1
I01
sg7
I2
sg8
g31
sa(dp2277
g1
I01
sg7
I5
sg8
g33
sa(dp2278
g1
I01
sg7
I2
sg8
g35
sa(dp2279
g1
I01
sg7
I5
sg8
g62
sa(dp2280
g1
I01
sg7
I5
sg8
g37
sa(dp2281
g1
I01
sg7
I5
sg8
S'_fields'
p2282
sasg7
I3
sg8
S'comprehension'
p2283
sa(dp2284
g1
I01
sg2
(lp2285
(dp2286
g1
I01
sg7
I5
sg8
g9
sa(dp2287
g1
I01
sg7
I5
sg8
g45
sa(dp2288
g1
I01
sg7
I5
sg8
g11
sa(dp2289
g1
I01
sg7
I2
sg8
g13
sa(dp2290
g1
I01
sg7
I5
sg8
g15
sa(dp2291
g1
I01
sg7
I5
sg8
g17
sa(dp2292
g1
I01
sg7
I5
sg8
g19
sa(dp2293
g1
I01
sg7
I5
sg8
S'__module__'
p2294
sa(dp2295
g1
I01
sg7
I2
sg8
g21
sa(dp2296
g1
I01
sg7
I2
sg8
g23
sa(dp2297
g1
I01
sg7
I2
sg8
g25
sa(dp2298
g1
I01
sg7
I5
sg8
g27
sa(dp2299
g1
I01
sg7
I5
sg8
g29
sa(dp2300
g1
I01
sg7
I2
sg8
g31
sa(dp2301
g1
I01
sg7
I5
sg8
g33
sa(dp2302
g1
I01
sg7
I2
sg8
g35
sa(dp2303
g1
I01
sg7
I5
sg8
g62
sa(dp2304
g1
I01
sg7
I5
sg8
g37
sa(dp2305
g1
I01
sg7
I5
sg8
S'_fields'
p2306
sasg7
I3
sg8
S'excepthandler'
p2307
sa(dp2308
g1
I01
sg2
(lp2309
(dp2310
g1
I01
sg7
I5
sg8
g9
sa(dp2311
g1
I01
sg7
I5
sg8
g45
sa(dp2312
g1
I01
sg7
I5
sg8
g11
sa(dp2313
g1
I01
sg7
I2
sg8
g13
sa(dp2314
g1
I01
sg7
I5
sg8
g15
sa(dp2315
g1
I01
sg7
I5
sg8
g17
sa(dp2316
g1
I01
sg7
I5
sg8
g19
sa(dp2317
g1
I01
sg7
I5
sg8
S'__module__'
p2318
sa(dp2319
g1
I01
sg7
I2
sg8
g21
sa(dp2320
g1
I01
sg7
I2
sg8
g23
sa(dp2321
g1
I01
sg7
I2
sg8
g25
sa(dp2322
g1
I01
sg7
I5
sg8
g27
sa(dp2323
g1
I01
sg7
I5
sg8
g29
sa(dp2324
g1
I01
sg7
I2
sg8
g31
sa(dp2325
g1
I01
sg7
I5
sg8
g33
sa(dp2326
g1
I01
sg7
I2
sg8
g35
sa(dp2327
g1
I01
sg7
I5
sg8
g62
sa(dp2328
g1
I01
sg7
I5
sg8
g37
sa(dp2329
g1
I01
sg7
I5
sg8
S'_fields'
p2330
sasg7
I3
sg8
S'expr'
p2331
sa(dp2332
g1
I01
sg2
(lp2333
(dp2334
g1
I01
sg7
I5
sg8
g9
sa(dp2335
g1
I01
sg7
I5
sg8
g45
sa(dp2336
g1
I01
sg7
I5
sg8
g11
sa(dp2337
g1
I01
sg7
I2
sg8
g13
sa(dp2338
g1
I01
sg7
I5
sg8
g15
sa(dp2339
g1
I01
sg7
I5
sg8
g17
sa(dp2340
g1
I01
sg7
I5
sg8
g19
sa(dp2341
g1
I01
sg7
I5
sg8
S'__module__'
p2342
sa(dp2343
g1
I01
sg7
I2
sg8
g21
sa(dp2344
g1
I01
sg7
I2
sg8
g23
sa(dp2345
g1
I01
sg7
I2
sg8
g25
sa(dp2346
g1
I01
sg7
I5
sg8
g27
sa(dp2347
g1
I01
sg7
I5
sg8
g29
sa(dp2348
g1
I01
sg7
I2
sg8
g31
sa(dp2349
g1
I01
sg7
I5
sg8
g33
sa(dp2350
g1
I01
sg7
I2
sg8
g35
sa(dp2351
g1
I01
sg7
I5
sg8
g62
sa(dp2352
g1
I01
sg7
I5
sg8
g37
sa(dp2353
g1
I01
sg7
I5
sg8
S'_fields'
p2354
sasg7
I3
sg8
S'expr_context'
p2355
sa(dp2356
g1
I01
sg2
(lp2357
(dp2358
g1
I01
sg7
I5
sg8
g9
sa(dp2359
g1
I01
sg7
I5
sg8
g45
sa(dp2360
g1
I01
sg7
I5
sg8
g11
sa(dp2361
g1
I01
sg7
I2
sg8
g13
sa(dp2362
g1
I01
sg7
I5
sg8
g15
sa(dp2363
g1
I01
sg7
I5
sg8
g17
sa(dp2364
g1
I01
sg7
I5
sg8
g19
sa(dp2365
g1
I01
sg7
I5
sg8
S'__module__'
p2366
sa(dp2367
g1
I01
sg7
I2
sg8
g21
sa(dp2368
g1
I01
sg7
I2
sg8
g23
sa(dp2369
g1
I01
sg7
I2
sg8
g25
sa(dp2370
g1
I01
sg7
I5
sg8
g27
sa(dp2371
g1
I01
sg7
I5
sg8
g29
sa(dp2372
g1
I01
sg7
I2
sg8
g31
sa(dp2373
g1
I01
sg7
I5
sg8
g33
sa(dp2374
g1
I01
sg7
I2
sg8
g35
sa(dp2375
g1
I01
sg7
I5
sg8
g62
sa(dp2376
g1
I01
sg7
I5
sg8
g37
sa(dp2377
g1
I01
sg7
I5
sg8
S'_fields'
p2378
sasg7
I3
sg8
S'keyword'
p2379
sa(dp2380
g1
I01
sg2
(lp2381
(dp2382
g1
I01
sg7
I5
sg8
g9
sa(dp2383
g1
I01
sg7
I5
sg8
g45
sa(dp2384
g1
I01
sg7
I5
sg8
g11
sa(dp2385
g1
I01
sg7
I2
sg8
g13
sa(dp2386
g1
I01
sg7
I5
sg8
g15
sa(dp2387
g1
I01
sg7
I5
sg8
g17
sa(dp2388
g1
I01
sg7
I5
sg8
g19
sa(dp2389
g1
I01
sg7
I5
sg8
S'__module__'
p2390
sa(dp2391
g1
I01
sg7
I2
sg8
g21
sa(dp2392
g1
I01
sg7
I2
sg8
g23
sa(dp2393
g1
I01
sg7
I2
sg8
g25
sa(dp2394
g1
I01
sg7
I5
sg8
g27
sa(dp2395
g1
I01
sg7
I5
sg8
g29
sa(dp2396
g1
I01
sg7
I2
sg8
g31
sa(dp2397
g1
I01
sg7
I5
sg8
g33
sa(dp2398
g1
I01
sg7
I2
sg8
g35
sa(dp2399
g1
I01
sg7
I5
sg8
g62
sa(dp2400
g1
I01
sg7
I5
sg8
g37
sa(dp2401
g1
I01
sg7
I5
sg8
S'_fields'
p2402
sasg7
I3
sg8
S'mod'
p2403
sa(dp2404
g1
I01
sg2
(lp2405
(dp2406
g1
I01
sg7
I5
sg8
g9
sa(dp2407
g1
I01
sg7
I5
sg8
g45
sa(dp2408
g1
I01
sg7
I5
sg8
g11
sa(dp2409
g1
I01
sg7
I2
sg8
g13
sa(dp2410
g1
I01
sg7
I5
sg8
g15
sa(dp2411
g1
I01
sg7
I5
sg8
g17
sa(dp2412
g1
I01
sg7
I5
sg8
g19
sa(dp2413
g1
I01
sg7
I5
sg8
S'__module__'
p2414
sa(dp2415
g1
I01
sg7
I2
sg8
g21
sa(dp2416
g1
I01
sg7
I2
sg8
g23
sa(dp2417
g1
I01
sg7
I2
sg8
g25
sa(dp2418
g1
I01
sg7
I5
sg8
g27
sa(dp2419
g1
I01
sg7
I5
sg8
g29
sa(dp2420
g1
I01
sg7
I2
sg8
g31
sa(dp2421
g1
I01
sg7
I5
sg8
g33
sa(dp2422
g1
I01
sg7
I2
sg8
g35
sa(dp2423
g1
I01
sg7
I5
sg8
g62
sa(dp2424
g1
I01
sg7
I5
sg8
g37
sa(dp2425
g1
I01
sg7
I5
sg8
S'_fields'
p2426
sasg7
I3
sg8
S'operator'
p2427
sa(dp2428
g1
I01
sg2
(lp2429
(dp2430
g1
I01
sg7
I5
sg8
g9
sa(dp2431
g1
I01
sg7
I5
sg8
g45
sa(dp2432
g1
I01
sg7
I5
sg8
g11
sa(dp2433
g1
I01
sg7
I2
sg8
g13
sa(dp2434
g1
I01
sg7
I5
sg8
g15
sa(dp2435
g1
I01
sg7
I5
sg8
g17
sa(dp2436
g1
I01
sg7
I5
sg8
g19
sa(dp2437
g1
I01
sg7
I5
sg8
S'__module__'
p2438
sa(dp2439
g1
I01
sg7
I2
sg8
g21
sa(dp2440
g1
I01
sg7
I2
sg8
g23
sa(dp2441
g1
I01
sg7
I2
sg8
g25
sa(dp2442
g1
I01
sg7
I5
sg8
g27
sa(dp2443
g1
I01
sg7
I5
sg8
g29
sa(dp2444
g1
I01
sg7
I2
sg8
g31
sa(dp2445
g1
I01
sg7
I5
sg8
g33
sa(dp2446
g1
I01
sg7
I2
sg8
g35
sa(dp2447
g1
I01
sg7
I5
sg8
g62
sa(dp2448
g1
I01
sg7
I5
sg8
g37
sa(dp2449
g1
I01
sg7
I5
sg8
S'_fields'
p2450
sasg7
I3
sg8
S'slice'
p2451
sa(dp2452
g1
I01
sg2
(lp2453
(dp2454
g1
I01
sg7
I5
sg8
g9
sa(dp2455
g1
I01
sg7
I5
sg8
g45
sa(dp2456
g1
I01
sg7
I5
sg8
g11
sa(dp2457
g1
I01
sg7
I2
sg8
g13
sa(dp2458
g1
I01
sg7
I5
sg8
g15
sa(dp2459
g1
I01
sg7
I5
sg8
g17
sa(dp2460
g1
I01
sg7
I5
sg8
g19
sa(dp2461
g1
I01
sg7
I5
sg8
S'__module__'
p2462
sa(dp2463
g1
I01
sg7
I2
sg8
g21
sa(dp2464
g1
I01
sg7
I2
sg8
g23
sa(dp2465
g1
I01
sg7
I2
sg8
g25
sa(dp2466
g1
I01
sg7
I5
sg8
g27
sa(dp2467
g1
I01
sg7
I5
sg8
g29
sa(dp2468
g1
I01
sg7
I2
sg8
g31
sa(dp2469
g1
I01
sg7
I5
sg8
g33
sa(dp2470
g1
I01
sg7
I2
sg8
g35
sa(dp2471
g1
I01
sg7
I5
sg8
g62
sa(dp2472
g1
I01
sg7
I5
sg8
g37
sa(dp2473
g1
I01
sg7
I5
sg8
S'_fields'
p2474
sasg7
I3
sg8
S'stmt'
p2475
sa(dp2476
g1
I01
sg2
(lp2477
(dp2478
g1
I01
sg7
I5
sg8
g9
sa(dp2479
g1
I01
sg7
I5
sg8
g45
sa(dp2480
g1
I01
sg7
I5
sg8
g11
sa(dp2481
g1
I01
sg7
I2
sg8
g13
sa(dp2482
g1
I01
sg7
I5
sg8
g15
sa(dp2483
g1
I01
sg7
I5
sg8
g17
sa(dp2484
g1
I01
sg7
I5
sg8
g19
sa(dp2485
g1
I01
sg7
I5
sg8
S'__module__'
p2486
sa(dp2487
g1
I01
sg7
I2
sg8
g21
sa(dp2488
g1
I01
sg7
I2
sg8
g23
sa(dp2489
g1
I01
sg7
I2
sg8
g25
sa(dp2490
g1
I01
sg7
I5
sg8
g27
sa(dp2491
g1
I01
sg7
I5
sg8
g29
sa(dp2492
g1
I01
sg7
I2
sg8
g31
sa(dp2493
g1
I01
sg7
I5
sg8
g33
sa(dp2494
g1
I01
sg7
I2
sg8
g35
sa(dp2495
g1
I01
sg7
I5
sg8
g62
sa(dp2496
g1
I01
sg7
I5
sg8
g37
sa(dp2497
g1
I01
sg7
I5
sg8
S'_fields'
p2498
sasg7
I3
sg8
S'unaryop'
p2499
sasg8
S'_ast'
p2500
s.