(dp0
S'is_builtin'
p1
I01
sS'childs'
p2
(lp3
(dp4
g1
I01
sS'type'
p5
I5
sS'name'
p6
S'__doc__'
p7
sa(dp8
g1
I01
sg5
I5
sg6
S'__name__'
p9
sa(dp10
g1
I01
sg5
I5
sg6
S'__package__'
p11
sa(dp12
g1
I01
sg5
I2
sg6
S'ascii_decode'
p13
sa(dp14
g1
I01
sg5
I2
sg6
S'ascii_encode'
p15
sa(dp16
g1
I01
sg5
I2
sg6
S'charbuffer_encode'
p17
sa(dp18
g1
I01
sg5
I2
sg6
S'charmap_build'
p19
sa(dp20
g1
I01
sg5
I2
sg6
S'charmap_decode'
p21
sa(dp22
g1
I01
sg5
I2
sg6
S'charmap_encode'
p23
sa(dp24
g1
I01
sg5
I2
sg6
S'decode'
p25
sa(dp26
g1
I01
sg5
I2
sg6
S'encode'
p27
sa(dp28
g1
I01
sg5
I2
sg6
S'escape_decode'
p29
sa(dp30
g1
I01
sg5
I2
sg6
S'escape_encode'
p31
sa(dp32
g1
I01
sg5
I2
sg6
S'latin_1_decode'
p33
sa(dp34
g1
I01
sg5
I2
sg6
S'latin_1_encode'
p35
sa(dp36
g1
I01
sg5
I2
sg6
S'lookup'
p37
sa(dp38
g1
I01
sg5
I2
sg6
S'lookup_error'
p39
sa(dp40
g1
I01
sg5
I2
sg6
S'raw_unicode_escape_decode'
p41
sa(dp42
g1
I01
sg5
I2
sg6
S'raw_unicode_escape_encode'
p43
sa(dp44
g1
I01
sg5
I2
sg6
S'readbuffer_encode'
p45
sa(dp46
g1
I01
sg5
I2
sg6
S'register'
p47
sa(dp48
g1
I01
sg5
I2
sg6
S'register_error'
p49
sa(dp50
g1
I01
sg5
I2
sg6
S'unicode_escape_decode'
p51
sa(dp52
g1
I01
sg5
I2
sg6
S'unicode_escape_encode'
p53
sa(dp54
g1
I01
sg5
I2
sg6
S'unicode_internal_decode'
p55
sa(dp56
g1
I01
sg5
I2
sg6
S'unicode_internal_encode'
p57
sa(dp58
g1
I01
sg5
I2
sg6
S'utf_16_be_decode'
p59
sa(dp60
g1
I01
sg5
I2
sg6
S'utf_16_be_encode'
p61
sa(dp62
g1
I01
sg5
I2
sg6
S'utf_16_decode'
p63
sa(dp64
g1
I01
sg5
I2
sg6
S'utf_16_encode'
p65
sa(dp66
g1
I01
sg5
I2
sg6
S'utf_16_ex_decode'
p67
sa(dp68
g1
I01
sg5
I2
sg6
S'utf_16_le_decode'
p69
sa(dp70
g1
I01
sg5
I2
sg6
S'utf_16_le_encode'
p71
sa(dp72
g1
I01
sg5
I2
sg6
S'utf_32_be_decode'
p73
sa(dp74
g1
I01
sg5
I2
sg6
S'utf_32_be_encode'
p75
sa(dp76
g1
I01
sg5
I2
sg6
S'utf_32_decode'
p77
sa(dp78
g1
I01
sg5
I2
sg6
S'utf_32_encode'
p79
sa(dp80
g1
I01
sg5
I2
sg6
S'utf_32_ex_decode'
p81
sa(dp82
g1
I01
sg5
I2
sg6
S'utf_32_le_decode'
p83
sa(dp84
g1
I01
sg5
I2
sg6
S'utf_32_le_encode'
p85
sa(dp86
g1
I01
sg5
I2
sg6
S'utf_7_decode'
p87
sa(dp88
g1
I01
sg5
I2
sg6
S'utf_7_encode'
p89
sa(dp90
g1
I01
sg5
I2
sg6
S'utf_8_decode'
p91
sa(dp92
g1
I01
sg5
I2
sg6
S'utf_8_encode'
p93
sasg6
S'_codecs'
p94
s.