(dp0
S'is_builtin'
p1
I01
sS'childs'
p2
(lp3
(dp4
g1
I01
sS'type'
p5
I5
sS'name'
p6
S'__doc__'
p7
sa(dp8
g1
I01
sg5
I5
sg6
S'__name__'
p9
sa(dp10
g1
I01
sg5
I5
sg6
S'__package__'
p11
sa(dp12
g1
I01
sg2
(lp13
(dp14
g1
I01
sg5
I5
sg6
S'__cmp__'
p15
sa(dp16
g1
I01
sg5
I2
sg6
S'__contains__'
p17
sa(dp18
g1
I01
sg5
I2
sg6
S'__copy__'
p19
sa(dp20
g1
I01
sg5
I5
sg6
S'__delattr__'
p21
sa(dp22
g1
I01
sg5
I5
sg6
S'__delitem__'
p23
sa(dp24
g1
I01
sg5
I5
sg6
g7
sa(dp25
g1
I01
sg5
I5
sg6
S'__eq__'
p26
sa(dp27
g1
I01
sg5
I2
sg6
S'__format__'
p28
sa(dp29
g1
I01
sg5
I5
sg6
S'__ge__'
p30
sa(dp31
g1
I01
sg5
I5
sg6
S'__getattribute__'
p32
sa(dp33
g1
I01
sg5
I2
sg6
S'__getitem__'
p34
sa(dp35
g1
I01
sg5
I5
sg6
S'__gt__'
p36
sa(dp37
g1
I01
sg5
I5
sg6
S'__hash__'
p38
sa(dp39
g1
I01
sg5
I5
sg6
S'__init__'
p40
sa(dp41
g1
I01
sg5
I5
sg6
S'__iter__'
p42
sa(dp43
g1
I01
sg5
I5
sg6
S'__le__'
p44
sa(dp45
g1
I01
sg5
I5
sg6
S'__len__'
p46
sa(dp47
g1
I01
sg5
I5
sg6
S'__lt__'
p48
sa(dp49
g1
I01
sg5
I2
sg6
S'__missing__'
p50
sa(dp51
g1
I01
sg5
I5
sg6
S'__ne__'
p52
sa(dp53
g1
I01
sg5
I2
sg6
S'__new__'
p54
sa(dp55
g1
I01
sg5
I2
sg6
S'__reduce__'
p56
sa(dp57
g1
I01
sg5
I2
sg6
S'__reduce_ex__'
p58
sa(dp59
g1
I01
sg5
I5
sg6
S'__repr__'
p60
sa(dp61
g1
I01
sg5
I5
sg6
S'__setattr__'
p62
sa(dp63
g1
I01
sg5
I5
sg6
S'__setitem__'
p64
sa(dp65
g1
I01
sg5
I2
sg6
S'__sizeof__'
p66
sa(dp67
g1
I01
sg5
I5
sg6
S'__str__'
p68
sa(dp69
g1
I01
sg5
I2
sg6
S'__subclasshook__'
p70
sa(dp71
g1
I01
sg5
I2
sg6
S'clear'
p72
sa(dp73
g1
I01
sg5
I2
sg6
S'copy'
p74
sa(dp75
g1
I01
sg5
I5
sg6
S'default_factory'
p76
sa(dp77
g1
I01
sg5
I2
sg6
S'fromkeys'
p78
sa(dp79
g1
I01
sg5
I2
sg6
S'get'
p80
sa(dp81
g1
I01
sg5
I2
sg6
S'has_key'
p82
sa(dp83
g1
I01
sg5
I2
sg6
S'items'
p84
sa(dp85
g1
I01
sg5
I2
sg6
S'iteritems'
p86
sa(dp87
g1
I01
sg5
I2
sg6
S'iterkeys'
p88
sa(dp89
g1
I01
sg5
I2
sg6
S'itervalues'
p90
sa(dp91
g1
I01
sg5
I2
sg6
S'keys'
p92
sa(dp93
g1
I01
sg5
I2
sg6
S'pop'
p94
sa(dp95
g1
I01
sg5
I2
sg6
S'popitem'
p96
sa(dp97
g1
I01
sg5
I2
sg6
S'setdefault'
p98
sa(dp99
g1
I01
sg5
I2
sg6
S'update'
p100
sa(dp101
g1
I01
sg5
I2
sg6
S'values'
p102
sa(dp103
g1
I01
sg5
I2
sg6
S'viewitems'
p104
sa(dp105
g1
I01
sg5
I2
sg6
S'viewkeys'
p106
sa(dp107
g1
I01
sg5
I2
sg6
S'viewvalues'
p108
sasg5
I3
sg6
S'defaultdict'
p109
sa(dp110
g1
I01
sg2
(lp111
(dp112
g1
I01
sg5
I2
sg6
g19
sa(dp113
g1
I01
sg5
I5
sg6
g21
sa(dp114
g1
I01
sg5
I5
sg6
g23
sa(dp115
g1
I01
sg5
I5
sg6
g7
sa(dp116
g1
I01
sg5
I5
sg6
g26
sa(dp117
g1
I01
sg5
I2
sg6
g28
sa(dp118
g1
I01
sg5
I5
sg6
g30
sa(dp119
g1
I01
sg5
I5
sg6
g32
sa(dp120
g1
I01
sg5
I5
sg6
g34
sa(dp121
g1
I01
sg5
I5
sg6
g36
sa(dp122
g1
I01
sg5
I5
sg6
g38
sa(dp123
g1
I01
sg5
I5
sg6
S'__iadd__'
p124
sa(dp125
g1
I01
sg5
I5
sg6
g40
sa(dp126
g1
I01
sg5
I5
sg6
g42
sa(dp127
g1
I01
sg5
I5
sg6
g44
sa(dp128
g1
I01
sg5
I5
sg6
g46
sa(dp129
g1
I01
sg5
I5
sg6
g48
sa(dp130
g1
I01
sg5
I5
sg6
g52
sa(dp131
g1
I01
sg5
I2
sg6
g54
sa(dp132
g1
I01
sg5
I2
sg6
g56
sa(dp133
g1
I01
sg5
I2
sg6
g58
sa(dp134
g1
I01
sg5
I5
sg6
g60
sa(dp135
g1
I01
sg5
I2
sg6
S'__reversed__'
p136
sa(dp137
g1
I01
sg5
I5
sg6
g62
sa(dp138
g1
I01
sg5
I5
sg6
g64
sa(dp139
g1
I01
sg5
I2
sg6
g66
sa(dp140
g1
I01
sg5
I5
sg6
g68
sa(dp141
g1
I01
sg5
I2
sg6
g70
sa(dp142
g1
I01
sg5
I2
sg6
S'append'
p143
sa(dp144
g1
I01
sg5
I2
sg6
S'appendleft'
p145
sa(dp146
g1
I01
sg5
I2
sg6
g72
sa(dp147
g1
I01
sg5
I2
sg6
S'count'
p148
sa(dp149
g1
I01
sg5
I2
sg6
S'extend'
p150
sa(dp151
g1
I01
sg5
I2
sg6
S'extendleft'
p152
sa(dp153
g1
I01
sg5
I5
sg6
S'maxlen'
p154
sa(dp155
g1
I01
sg5
I2
sg6
g94
sa(dp156
g1
I01
sg5
I2
sg6
S'popleft'
p157
sa(dp158
g1
I01
sg5
I2
sg6
S'remove'
p159
sa(dp160
g1
I01
sg5
I2
sg6
S'reverse'
p161
sa(dp162
g1
I01
sg5
I2
sg6
S'rotate'
p163
sasg5
I3
sg6
S'deque'
p164
sasg6
S'_collections'
p165
s.