(dp0
S'doc'
p1
S'Tools that operate on functions.'
p2
sS'is_builtin'
p3
I01
sS'childs'
p4
(lp5
(dp6
g3
I01
sS'type'
p7
I5
sS'name'
p8
S'__doc__'
p9
sa(dp10
g3
I01
sg7
I5
sg8
S'__name__'
p11
sa(dp12
g3
I01
sg7
I5
sg8
S'__package__'
p13
sa(dp14
g1
S'partial(func, *args, **keywords) - new function with partial application\n    of the given arguments and keywords.\n'
p15
sg3
I01
sg4
(lp16
(dp17
g3
I01
sg7
I5
sg8
S'__call__'
p18
sa(dp19
g3
I01
sg7
I5
sg8
S'__delattr__'
p20
sa(dp21
g3
I01
sg7
I5
sg8
S'__dict__'
p22
sa(dp23
g3
I01
sg7
I5
sg8
g9
sa(dp24
g1
S'default object formatter'
p25
sg3
I01
sg7
I2
sg8
S'__format__'
p26
sa(dp27
g3
I01
sg7
I5
sg8
S'__getattribute__'
p28
sa(dp29
g3
I01
sg7
I5
sg8
S'__hash__'
p30
sa(dp31
g3
I01
sg7
I5
sg8
S'__init__'
p32
sa(dp33
g1
S'T.__new__(S, ...) -> a new object with type S, a subtype of T'
p34
sg3
I01
sg7
I2
sg8
S'__new__'
p35
sa(dp36
g1
Nsg3
I01
sg7
I2
sg8
S'__reduce__'
p37
sa(dp38
g1
S'helper for pickle'
p39
sg3
I01
sg7
I2
sg8
S'__reduce_ex__'
p40
sa(dp41
g3
I01
sg7
I5
sg8
S'__repr__'
p42
sa(dp43
g3
I01
sg7
I5
sg8
S'__setattr__'
p44
sa(dp45
g1
Nsg3
I01
sg7
I2
sg8
S'__setstate__'
p46
sa(dp47
g1
S'__sizeof__() -> int\nsize of object in memory, in bytes'
p48
sg3
I01
sg7
I2
sg8
S'__sizeof__'
p49
sa(dp50
g3
I01
sg7
I5
sg8
S'__str__'
p51
sa(dp52
g1
S'Abstract classes can override this to customize issubclass().\n\nThis is invoked early on by abc.ABCMeta.__subclasscheck__().\nIt should return True, False or NotImplemented.  If it returns\nNotImplemented, the normal algorithm is used.  Otherwise, it\noverrides the normal algorithm (and the outcome is cached).\n'
p53
sg3
I01
sg7
I2
sg8
S'__subclasshook__'
p54
sa(dp55
g3
I01
sg7
I5
sg8
S'args'
p56
sa(dp57
g3
I01
sg7
I5
sg8
S'func'
p58
sa(dp59
g3
I01
sg7
I5
sg8
S'keywords'
p60
sasg7
I3
sg8
S'partial'
p61
sa(dp62
g1
S'reduce(function, sequence[, initial]) -> value\n\nApply a function of two arguments cumulatively to the items of a sequence,\nfrom left to right, so as to reduce the sequence to a single value.\nFor example, reduce(lambda x, y: x+y, [1, 2, 3, 4, 5]) calculates\n((((1+2)+3)+4)+5).  If initial is present, it is placed before the items\nof the sequence in the calculation, and serves as a default when the\nsequence is empty.'
p63
sg3
I01
sg7
I2
sg8
S'reduce'
p64
sasg8
S'_functools'
p65
s.