(dp0
S'is_builtin'
p1
I01
sS'childs'
p2
(lp3
(dp4
g1
I01
sS'type'
p5
I5
sS'name'
p6
S'__doc__'
p7
sa(dp8
g1
I01
sg5
I5
sg6
S'__name__'
p9
sa(dp10
g1
I01
sg5
I5
sg6
S'__package__'
p11
sa(dp12
g1
I01
sg2
(lp13
(dp14
g1
I01
sg5
I5
sg6
S'__call__'
p15
sa(dp16
g1
I01
sg5
I5
sg6
S'__delattr__'
p17
sa(dp18
g1
I01
sg5
I5
sg6
S'__dict__'
p19
sa(dp20
g1
I01
sg5
I5
sg6
g7
sa(dp21
g1
I01
sg5
I2
sg6
S'__format__'
p22
sa(dp23
g1
I01
sg5
I5
sg6
S'__getattribute__'
p24
sa(dp25
g1
I01
sg5
I5
sg6
S'__hash__'
p26
sa(dp27
g1
I01
sg5
I5
sg6
S'__init__'
p28
sa(dp29
g1
I01
sg5
I2
sg6
S'__new__'
p30
sa(dp31
g1
I01
sg5
I2
sg6
S'__reduce__'
p32
sa(dp33
g1
I01
sg5
I2
sg6
S'__reduce_ex__'
p34
sa(dp35
g1
I01
sg5
I5
sg6
S'__repr__'
p36
sa(dp37
g1
I01
sg5
I5
sg6
S'__setattr__'
p38
sa(dp39
g1
I01
sg5
I2
sg6
S'__setstate__'
p40
sa(dp41
g1
I01
sg5
I2
sg6
S'__sizeof__'
p42
sa(dp43
g1
I01
sg5
I5
sg6
S'__str__'
p44
sa(dp45
g1
I01
sg5
I2
sg6
S'__subclasshook__'
p46
sa(dp47
g1
I01
sg5
I5
sg6
S'args'
p48
sa(dp49
g1
I01
sg5
I5
sg6
S'func'
p50
sa(dp51
g1
I01
sg5
I5
sg6
S'keywords'
p52
sasg5
I3
sg6
S'partial'
p53
sa(dp54
g1
I01
sg5
I2
sg6
S'reduce'
p55
sasg6
S'_functools'
p56
s.