(dp0
S'is_builtin'
p1
I01
sS'childs'
p2
(lp3
(dp4
g1
I01
sS'type'
p5
I5
sS'name'
p6
S'__about__'
p7
sa(dp8
g1
I01
sg5
I5
sg6
S'__doc__'
p9
sa(dp10
g1
I01
sg5
I5
sg6
S'__name__'
p11
sa(dp12
g1
I01
sg5
I5
sg6
S'__package__'
p13
sa(dp14
g1
I01
sg5
I2
sg6
S'heapify'
p15
sa(dp16
g1
I01
sg5
I2
sg6
S'heappop'
p17
sa(dp18
g1
I01
sg5
I2
sg6
S'heappush'
p19
sa(dp20
g1
I01
sg5
I2
sg6
S'heappushpop'
p21
sa(dp22
g1
I01
sg5
I2
sg6
S'heapreplace'
p23
sa(dp24
g1
I01
sg5
I2
sg6
S'nlargest'
p25
sa(dp26
g1
I01
sg5
I2
sg6
S'nsmallest'
p27
sasg6
S'_heapq'
p28
s.