(dp0
S'is_builtin'
p1
I01
sS'childs'
p2
(lp3
(dp4
g1
I01
sg2
(lp5
(dp6
g1
I01
sS'type'
p7
I5
sS'name'
p8
S'__delattr__'
p9
sa(dp10
g1
I01
sg7
I5
sg8
S'__dict__'
p11
sa(dp12
g1
I01
sg7
I5
sg8
S'__doc__'
p13
sa(dp14
g1
I01
sg7
I2
sg8
S'__format__'
p15
sa(dp16
g1
I01
sg7
I5
sg8
S'__getattribute__'
p17
sa(dp18
g1
I01
sg7
I5
sg8
S'__getitem__'
p19
sa(dp20
g1
I01
sg7
I5
sg8
S'__getslice__'
p21
sa(dp22
g1
I01
sg7
I5
sg8
S'__hash__'
p23
sa(dp24
g1
I01
sg7
I5
sg8
S'__init__'
p25
sa(dp26
g1
I01
sg7
I2
sg8
S'__new__'
p27
sa(dp28
g1
I01
sg7
I2
sg8
S'__reduce__'
p29
sa(dp30
g1
I01
sg7
I2
sg8
S'__reduce_ex__'
p31
sa(dp32
g1
I01
sg7
I5
sg8
S'__repr__'
p33
sa(dp34
g1
I01
sg7
I5
sg8
S'__setattr__'
p35
sa(dp36
g1
I01
sg7
I2
sg8
S'__setstate__'
p37
sa(dp38
g1
I01
sg7
I2
sg8
S'__sizeof__'
p39
sa(dp40
g1
I01
sg7
I5
sg8
S'__str__'
p41
sa(dp42
g1
I01
sg7
I2
sg8
S'__subclasshook__'
p43
sa(dp44
g1
I01
sg7
I2
sg8
S'__unicode__'
p45
sa(dp46
g1
I01
sg7
I5
sg8
S'args'
p47
sa(dp48
g1
I01
sg7
I5
sg8
S'characters_written'
p49
sa(dp50
g1
I01
sg7
I5
sg8
S'errno'
p51
sa(dp52
g1
I01
sg7
I5
sg8
S'filename'
p53
sa(dp54
g1
I01
sg7
I5
sg8
S'message'
p55
sa(dp56
g1
I01
sg7
I5
sg8
S'strerror'
p57
sasg7
I3
sg8
S'BlockingIOError'
p58
sa(dp59
g1
I01
sg2
(lp60
(dp61
g1
I01
sg7
I5
sg8
g9
sa(dp62
g1
I01
sg7
I5
sg8
g13
sa(dp63
g1
I01
sg7
I2
sg8
S'__enter__'
p64
sa(dp65
g1
I01
sg7
I2
sg8
S'__exit__'
p66
sa(dp67
g1
I01
sg7
I2
sg8
g15
sa(dp68
g1
I01
sg7
I5
sg8
g17
sa(dp69
g1
I01
sg7
I5
sg8
g23
sa(dp70
g1
I01
sg7
I5
sg8
g25
sa(dp71
g1
I01
sg7
I5
sg8
S'__iter__'
p72
sa(dp73
g1
I01
sg7
I2
sg8
g27
sa(dp74
g1
I01
sg7
I2
sg8
g29
sa(dp75
g1
I01
sg7
I2
sg8
g31
sa(dp76
g1
I01
sg7
I5
sg8
g33
sa(dp77
g1
I01
sg7
I5
sg8
g35
sa(dp78
g1
I01
sg7
I2
sg8
g39
sa(dp79
g1
I01
sg7
I5
sg8
g41
sa(dp80
g1
I01
sg7
I2
sg8
g43
sa(dp81
g1
I01
sg7
I2
sg8
S'_checkClosed'
p82
sa(dp83
g1
I01
sg7
I2
sg8
S'_checkReadable'
p84
sa(dp85
g1
I01
sg7
I2
sg8
S'_checkSeekable'
p86
sa(dp87
g1
I01
sg7
I2
sg8
S'_checkWritable'
p88
sa(dp89
g1
I01
sg7
I2
sg8
S'close'
p90
sa(dp91
g1
I01
sg7
I5
sg8
S'closed'
p92
sa(dp93
g1
I01
sg7
I2
sg8
S'detach'
p94
sa(dp95
g1
I01
sg7
I2
sg8
S'fileno'
p96
sa(dp97
g1
I01
sg7
I2
sg8
S'flush'
p98
sa(dp99
g1
I01
sg7
I2
sg8
S'isatty'
p100
sa(dp101
g1
I01
sg7
I5
sg8
S'next'
p102
sa(dp103
g1
I01
sg7
I2
sg8
S'peek'
p104
sa(dp105
g1
I01
sg7
I2
sg8
S'read'
p106
sa(dp107
g1
I01
sg7
I2
sg8
S'read1'
p108
sa(dp109
g1
I01
sg7
I2
sg8
S'readable'
p110
sa(dp111
g1
I01
sg7
I2
sg8
S'readinto'
p112
sa(dp113
g1
I01
sg7
I2
sg8
S'readline'
p114
sa(dp115
g1
I01
sg7
I2
sg8
S'readlines'
p116
sa(dp117
g1
I01
sg7
I2
sg8
S'seek'
p118
sa(dp119
g1
I01
sg7
I2
sg8
S'seekable'
p120
sa(dp121
g1
I01
sg7
I2
sg8
S'tell'
p122
sa(dp123
g1
I01
sg7
I2
sg8
S'truncate'
p124
sa(dp125
g1
I01
sg7
I2
sg8
S'writable'
p126
sa(dp127
g1
I01
sg7
I2
sg8
S'write'
p128
sa(dp129
g1
I01
sg7
I2
sg8
S'writelines'
p130
sasg7
I3
sg8
S'BufferedRWPair'
p131
sa(dp132
g1
I01
sg2
(lp133
(dp134
g1
I01
sg7
I5
sg8
g9
sa(dp135
g1
I01
sg7
I5
sg8
g13
sa(dp136
g1
I01
sg7
I2
sg8
g64
sa(dp137
g1
I01
sg7
I2
sg8
g66
sa(dp138
g1
I01
sg7
I2
sg8
g15
sa(dp139
g1
I01
sg7
I5
sg8
g17
sa(dp140
g1
I01
sg7
I5
sg8
g23
sa(dp141
g1
I01
sg7
I5
sg8
g25
sa(dp142
g1
I01
sg7
I5
sg8
g72
sa(dp143
g1
I01
sg7
I2
sg8
g27
sa(dp144
g1
I01
sg7
I2
sg8
g29
sa(dp145
g1
I01
sg7
I2
sg8
g31
sa(dp146
g1
I01
sg7
I5
sg8
g33
sa(dp147
g1
I01
sg7
I5
sg8
g35
sa(dp148
g1
I01
sg7
I2
sg8
g39
sa(dp149
g1
I01
sg7
I5
sg8
g41
sa(dp150
g1
I01
sg7
I2
sg8
g43
sa(dp151
g1
I01
sg7
I2
sg8
g82
sa(dp152
g1
I01
sg7
I2
sg8
g84
sa(dp153
g1
I01
sg7
I2
sg8
g86
sa(dp154
g1
I01
sg7
I2
sg8
g88
sa(dp155
g1
I01
sg7
I2
sg8
g90
sa(dp156
g1
I01
sg7
I5
sg8
g92
sa(dp157
g1
I01
sg7
I2
sg8
g94
sa(dp158
g1
I01
sg7
I2
sg8
g96
sa(dp159
g1
I01
sg7
I2
sg8
g98
sa(dp160
g1
I01
sg7
I2
sg8
g100
sa(dp161
g1
I01
sg7
I5
sg8
S'mode'
p162
sa(dp163
g1
I01
sg7
I5
sg8
g8
sa(dp164
g1
I01
sg7
I5
sg8
g102
sa(dp165
g1
I01
sg7
I2
sg8
g104
sa(dp166
g1
I01
sg7
I5
sg8
S'raw'
p167
sa(dp168
g1
I01
sg7
I2
sg8
g106
sa(dp169
g1
I01
sg7
I2
sg8
g108
sa(dp170
g1
I01
sg7
I2
sg8
g110
sa(dp171
g1
I01
sg7
I2
sg8
g112
sa(dp172
g1
I01
sg7
I2
sg8
g114
sa(dp173
g1
I01
sg7
I2
sg8
g116
sa(dp174
g1
I01
sg7
I2
sg8
g118
sa(dp175
g1
I01
sg7
I2
sg8
g120
sa(dp176
g1
I01
sg7
I2
sg8
g122
sa(dp177
g1
I01
sg7
I2
sg8
g124
sa(dp178
g1
I01
sg7
I2
sg8
g126
sa(dp179
g1
I01
sg7
I2
sg8
g128
sa(dp180
g1
I01
sg7
I2
sg8
g130
sasg7
I3
sg8
S'BufferedRandom'
p181
sa(dp182
g1
I01
sg2
(lp183
(dp184
g1
I01
sg7
I5
sg8
g9
sa(dp185
g1
I01
sg7
I5
sg8
g13
sa(dp186
g1
I01
sg7
I2
sg8
g64
sa(dp187
g1
I01
sg7
I2
sg8
g66
sa(dp188
g1
I01
sg7
I2
sg8
g15
sa(dp189
g1
I01
sg7
I5
sg8
g17
sa(dp190
g1
I01
sg7
I5
sg8
g23
sa(dp191
g1
I01
sg7
I5
sg8
g25
sa(dp192
g1
I01
sg7
I5
sg8
g72
sa(dp193
g1
I01
sg7
I2
sg8
g27
sa(dp194
g1
I01
sg7
I2
sg8
g29
sa(dp195
g1
I01
sg7
I2
sg8
g31
sa(dp196
g1
I01
sg7
I5
sg8
g33
sa(dp197
g1
I01
sg7
I5
sg8
g35
sa(dp198
g1
I01
sg7
I2
sg8
g39
sa(dp199
g1
I01
sg7
I5
sg8
g41
sa(dp200
g1
I01
sg7
I2
sg8
g43
sa(dp201
g1
I01
sg7
I2
sg8
g82
sa(dp202
g1
I01
sg7
I2
sg8
g84
sa(dp203
g1
I01
sg7
I2
sg8
g86
sa(dp204
g1
I01
sg7
I2
sg8
g88
sa(dp205
g1
I01
sg7
I2
sg8
g90
sa(dp206
g1
I01
sg7
I5
sg8
g92
sa(dp207
g1
I01
sg7
I2
sg8
g94
sa(dp208
g1
I01
sg7
I2
sg8
g96
sa(dp209
g1
I01
sg7
I2
sg8
g98
sa(dp210
g1
I01
sg7
I2
sg8
g100
sa(dp211
g1
I01
sg7
I5
sg8
g162
sa(dp212
g1
I01
sg7
I5
sg8
g8
sa(dp213
g1
I01
sg7
I5
sg8
g102
sa(dp214
g1
I01
sg7
I2
sg8
g104
sa(dp215
g1
I01
sg7
I5
sg8
g167
sa(dp216
g1
I01
sg7
I2
sg8
g106
sa(dp217
g1
I01
sg7
I2
sg8
g108
sa(dp218
g1
I01
sg7
I2
sg8
g110
sa(dp219
g1
I01
sg7
I2
sg8
g112
sa(dp220
g1
I01
sg7
I2
sg8
g114
sa(dp221
g1
I01
sg7
I2
sg8
g116
sa(dp222
g1
I01
sg7
I2
sg8
g118
sa(dp223
g1
I01
sg7
I2
sg8
g120
sa(dp224
g1
I01
sg7
I2
sg8
g122
sa(dp225
g1
I01
sg7
I2
sg8
g124
sa(dp226
g1
I01
sg7
I2
sg8
g126
sa(dp227
g1
I01
sg7
I2
sg8
g128
sa(dp228
g1
I01
sg7
I2
sg8
g130
sasg7
I3
sg8
S'BufferedReader'
p229
sa(dp230
g1
I01
sg2
(lp231
(dp232
g1
I01
sg7
I5
sg8
g9
sa(dp233
g1
I01
sg7
I5
sg8
g13
sa(dp234
g1
I01
sg7
I2
sg8
g64
sa(dp235
g1
I01
sg7
I2
sg8
g66
sa(dp236
g1
I01
sg7
I2
sg8
g15
sa(dp237
g1
I01
sg7
I5
sg8
g17
sa(dp238
g1
I01
sg7
I5
sg8
g23
sa(dp239
g1
I01
sg7
I5
sg8
g25
sa(dp240
g1
I01
sg7
I5
sg8
g72
sa(dp241
g1
I01
sg7
I2
sg8
g27
sa(dp242
g1
I01
sg7
I2
sg8
g29
sa(dp243
g1
I01
sg7
I2
sg8
g31
sa(dp244
g1
I01
sg7
I5
sg8
g33
sa(dp245
g1
I01
sg7
I5
sg8
g35
sa(dp246
g1
I01
sg7
I2
sg8
g39
sa(dp247
g1
I01
sg7
I5
sg8
g41
sa(dp248
g1
I01
sg7
I2
sg8
g43
sa(dp249
g1
I01
sg7
I2
sg8
g82
sa(dp250
g1
I01
sg7
I2
sg8
g84
sa(dp251
g1
I01
sg7
I2
sg8
g86
sa(dp252
g1
I01
sg7
I2
sg8
g88
sa(dp253
g1
I01
sg7
I2
sg8
g90
sa(dp254
g1
I01
sg7
I5
sg8
g92
sa(dp255
g1
I01
sg7
I2
sg8
g94
sa(dp256
g1
I01
sg7
I2
sg8
g96
sa(dp257
g1
I01
sg7
I2
sg8
g98
sa(dp258
g1
I01
sg7
I2
sg8
g100
sa(dp259
g1
I01
sg7
I5
sg8
g162
sa(dp260
g1
I01
sg7
I5
sg8
g8
sa(dp261
g1
I01
sg7
I5
sg8
g102
sa(dp262
g1
I01
sg7
I5
sg8
g167
sa(dp263
g1
I01
sg7
I2
sg8
g106
sa(dp264
g1
I01
sg7
I2
sg8
g108
sa(dp265
g1
I01
sg7
I2
sg8
g110
sa(dp266
g1
I01
sg7
I2
sg8
g112
sa(dp267
g1
I01
sg7
I2
sg8
g114
sa(dp268
g1
I01
sg7
I2
sg8
g116
sa(dp269
g1
I01
sg7
I2
sg8
g118
sa(dp270
g1
I01
sg7
I2
sg8
g120
sa(dp271
g1
I01
sg7
I2
sg8
g122
sa(dp272
g1
I01
sg7
I2
sg8
g124
sa(dp273
g1
I01
sg7
I2
sg8
g126
sa(dp274
g1
I01
sg7
I2
sg8
g128
sa(dp275
g1
I01
sg7
I2
sg8
g130
sasg7
I3
sg8
S'BufferedWriter'
p276
sa(dp277
g1
I01
sg2
(lp278
(dp279
g1
I01
sg7
I5
sg8
g9
sa(dp280
g1
I01
sg7
I5
sg8
g13
sa(dp281
g1
I01
sg7
I2
sg8
g64
sa(dp282
g1
I01
sg7
I2
sg8
g66
sa(dp283
g1
I01
sg7
I2
sg8
g15
sa(dp284
g1
I01
sg7
I5
sg8
g17
sa(dp285
g1
I01
sg7
I2
sg8
S'__getstate__'
p286
sa(dp287
g1
I01
sg7
I5
sg8
g23
sa(dp288
g1
I01
sg7
I5
sg8
g25
sa(dp289
g1
I01
sg7
I5
sg8
g72
sa(dp290
g1
I01
sg7
I2
sg8
g27
sa(dp291
g1
I01
sg7
I2
sg8
g29
sa(dp292
g1
I01
sg7
I2
sg8
g31
sa(dp293
g1
I01
sg7
I5
sg8
g33
sa(dp294
g1
I01
sg7
I5
sg8
g35
sa(dp295
g1
I01
sg7
I2
sg8
g37
sa(dp296
g1
I01
sg7
I2
sg8
g39
sa(dp297
g1
I01
sg7
I5
sg8
g41
sa(dp298
g1
I01
sg7
I2
sg8
g43
sa(dp299
g1
I01
sg7
I2
sg8
g82
sa(dp300
g1
I01
sg7
I2
sg8
g84
sa(dp301
g1
I01
sg7
I2
sg8
g86
sa(dp302
g1
I01
sg7
I2
sg8
g88
sa(dp303
g1
I01
sg7
I2
sg8
g90
sa(dp304
g1
I01
sg7
I5
sg8
g92
sa(dp305
g1
I01
sg7
I2
sg8
g94
sa(dp306
g1
I01
sg7
I2
sg8
g96
sa(dp307
g1
I01
sg7
I2
sg8
g98
sa(dp308
g1
I01
sg7
I2
sg8
S'getvalue'
p309
sa(dp310
g1
I01
sg7
I2
sg8
g100
sa(dp311
g1
I01
sg7
I5
sg8
g102
sa(dp312
g1
I01
sg7
I2
sg8
g106
sa(dp313
g1
I01
sg7
I2
sg8
g108
sa(dp314
g1
I01
sg7
I2
sg8
g110
sa(dp315
g1
I01
sg7
I2
sg8
g112
sa(dp316
g1
I01
sg7
I2
sg8
g114
sa(dp317
g1
I01
sg7
I2
sg8
g116
sa(dp318
g1
I01
sg7
I2
sg8
g118
sa(dp319
g1
I01
sg7
I2
sg8
g120
sa(dp320
g1
I01
sg7
I2
sg8
g122
sa(dp321
g1
I01
sg7
I2
sg8
g124
sa(dp322
g1
I01
sg7
I2
sg8
g126
sa(dp323
g1
I01
sg7
I2
sg8
g128
sa(dp324
g1
I01
sg7
I2
sg8
g130
sasg7
I3
sg8
S'BytesIO'
p325
sa(dp326
g1
I01
sg7
I5
sg8
S'DEFAULT_BUFFER_SIZE'
p327
sa(dp328
g1
I01
sg2
(lp329
(dp330
g1
I01
sg7
I5
sg8
g9
sa(dp331
g1
I01
sg7
I5
sg8
g13
sa(dp332
g1
I01
sg7
I2
sg8
g64
sa(dp333
g1
I01
sg7
I2
sg8
g66
sa(dp334
g1
I01
sg7
I2
sg8
g15
sa(dp335
g1
I01
sg7
I5
sg8
g17
sa(dp336
g1
I01
sg7
I5
sg8
g23
sa(dp337
g1
I01
sg7
I5
sg8
g25
sa(dp338
g1
I01
sg7
I5
sg8
g72
sa(dp339
g1
I01
sg7
I2
sg8
g27
sa(dp340
g1
I01
sg7
I2
sg8
g29
sa(dp341
g1
I01
sg7
I2
sg8
g31
sa(dp342
g1
I01
sg7
I5
sg8
g33
sa(dp343
g1
I01
sg7
I5
sg8
g35
sa(dp344
g1
I01
sg7
I2
sg8
g39
sa(dp345
g1
I01
sg7
I5
sg8
g41
sa(dp346
g1
I01
sg7
I2
sg8
g43
sa(dp347
g1
I01
sg7
I2
sg8
g82
sa(dp348
g1
I01
sg7
I2
sg8
g84
sa(dp349
g1
I01
sg7
I2
sg8
g86
sa(dp350
g1
I01
sg7
I2
sg8
g88
sa(dp351
g1
I01
sg7
I2
sg8
g90
sa(dp352
g1
I01
sg7
I5
sg8
g92
sa(dp353
g1
I01
sg7
I5
sg8
S'closefd'
p354
sa(dp355
g1
I01
sg7
I2
sg8
g96
sa(dp356
g1
I01
sg7
I2
sg8
g98
sa(dp357
g1
I01
sg7
I2
sg8
g100
sa(dp358
g1
I01
sg7
I5
sg8
g162
sa(dp359
g1
I01
sg7
I5
sg8
g102
sa(dp360
g1
I01
sg7
I2
sg8
g106
sa(dp361
g1
I01
sg7
I2
sg8
g110
sa(dp362
g1
I01
sg7
I2
sg8
S'readall'
p363
sa(dp364
g1
I01
sg7
I2
sg8
g112
sa(dp365
g1
I01
sg7
I2
sg8
g114
sa(dp366
g1
I01
sg7
I2
sg8
g116
sa(dp367
g1
I01
sg7
I2
sg8
g118
sa(dp368
g1
I01
sg7
I2
sg8
g120
sa(dp369
g1
I01
sg7
I2
sg8
g122
sa(dp370
g1
I01
sg7
I2
sg8
g124
sa(dp371
g1
I01
sg7
I2
sg8
g126
sa(dp372
g1
I01
sg7
I2
sg8
g128
sa(dp373
g1
I01
sg7
I2
sg8
g130
sasg7
I3
sg8
S'FileIO'
p374
sa(dp375
g1
I01
sg2
(lp376
(dp377
g1
I01
sg7
I5
sg8
g9
sa(dp378
g1
I01
sg7
I5
sg8
g13
sa(dp379
g1
I01
sg7
I2
sg8
g15
sa(dp380
g1
I01
sg7
I5
sg8
g17
sa(dp381
g1
I01
sg7
I5
sg8
g23
sa(dp382
g1
I01
sg7
I5
sg8
g25
sa(dp383
g1
I01
sg7
I2
sg8
g27
sa(dp384
g1
I01
sg7
I2
sg8
g29
sa(dp385
g1
I01
sg7
I2
sg8
g31
sa(dp386
g1
I01
sg7
I5
sg8
g33
sa(dp387
g1
I01
sg7
I5
sg8
g35
sa(dp388
g1
I01
sg7
I2
sg8
g39
sa(dp389
g1
I01
sg7
I5
sg8
g41
sa(dp390
g1
I01
sg7
I2
sg8
g43
sa(dp391
g1
I01
sg7
I2
sg8
S'decode'
p392
sa(dp393
g1
I01
sg7
I2
sg8
S'getstate'
p394
sa(dp395
g1
I01
sg7
I5
sg8
S'newlines'
p396
sa(dp397
g1
I01
sg7
I2
sg8
S'reset'
p398
sa(dp399
g1
I01
sg7
I2
sg8
S'setstate'
p400
sasg7
I3
sg8
S'IncrementalNewlineDecoder'
p401
sa(dp402
g1
I01
sg2
(lp403
(dp404
g1
I01
sg7
I5
sg8
g9
sa(dp405
g1
I01
sg7
I5
sg8
g13
sa(dp406
g1
I01
sg7
I2
sg8
g64
sa(dp407
g1
I01
sg7
I2
sg8
g66
sa(dp408
g1
I01
sg7
I2
sg8
g15
sa(dp409
g1
I01
sg7
I5
sg8
g17
sa(dp410
g1
I01
sg7
I2
sg8
g286
sa(dp411
g1
I01
sg7
I5
sg8
g23
sa(dp412
g1
I01
sg7
I5
sg8
g25
sa(dp413
g1
I01
sg7
I5
sg8
g72
sa(dp414
g1
I01
sg7
I2
sg8
g27
sa(dp415
g1
I01
sg7
I2
sg8
g29
sa(dp416
g1
I01
sg7
I2
sg8
g31
sa(dp417
g1
I01
sg7
I5
sg8
g33
sa(dp418
g1
I01
sg7
I5
sg8
g35
sa(dp419
g1
I01
sg7
I2
sg8
g37
sa(dp420
g1
I01
sg7
I2
sg8
g39
sa(dp421
g1
I01
sg7
I5
sg8
g41
sa(dp422
g1
I01
sg7
I2
sg8
g43
sa(dp423
g1
I01
sg7
I2
sg8
g82
sa(dp424
g1
I01
sg7
I2
sg8
g84
sa(dp425
g1
I01
sg7
I2
sg8
g86
sa(dp426
g1
I01
sg7
I2
sg8
g88
sa(dp427
g1
I01
sg7
I2
sg8
g90
sa(dp428
g1
I01
sg7
I5
sg8
g92
sa(dp429
g1
I01
sg7
I2
sg8
g94
sa(dp430
g1
I01
sg7
I5
sg8
S'encoding'
p431
sa(dp432
g1
I01
sg7
I5
sg8
S'errors'
p433
sa(dp434
g1
I01
sg7
I2
sg8
g96
sa(dp435
g1
I01
sg7
I2
sg8
g98
sa(dp436
g1
I01
sg7
I2
sg8
g309
sa(dp437
g1
I01
sg7
I2
sg8
g100
sa(dp438
g1
I01
sg7
I5
sg8
S'line_buffering'
p439
sa(dp440
g1
I01
sg7
I5
sg8
g396
sa(dp441
g1
I01
sg7
I5
sg8
g102
sa(dp442
g1
I01
sg7
I2
sg8
g106
sa(dp443
g1
I01
sg7
I2
sg8
g110
sa(dp444
g1
I01
sg7
I2
sg8
g114
sa(dp445
g1
I01
sg7
I2
sg8
g116
sa(dp446
g1
I01
sg7
I2
sg8
g118
sa(dp447
g1
I01
sg7
I2
sg8
g120
sa(dp448
g1
I01
sg7
I2
sg8
g122
sa(dp449
g1
I01
sg7
I2
sg8
g124
sa(dp450
g1
I01
sg7
I2
sg8
g126
sa(dp451
g1
I01
sg7
I2
sg8
g128
sa(dp452
g1
I01
sg7
I2
sg8
g130
sasg7
I3
sg8
S'StringIO'
p453
sa(dp454
g1
I01
sg2
(lp455
(dp456
g1
I01
sg7
I5
sg8
S'_CHUNK_SIZE'
p457
sa(dp458
g1
I01
sg7
I5
sg8
g9
sa(dp459
g1
I01
sg7
I5
sg8
g13
sa(dp460
g1
I01
sg7
I2
sg8
g64
sa(dp461
g1
I01
sg7
I2
sg8
g66
sa(dp462
g1
I01
sg7
I2
sg8
g15
sa(dp463
g1
I01
sg7
I5
sg8
g17
sa(dp464
g1
I01
sg7
I5
sg8
g23
sa(dp465
g1
I01
sg7
I5
sg8
g25
sa(dp466
g1
I01
sg7
I5
sg8
g72
sa(dp467
g1
I01
sg7
I2
sg8
g27
sa(dp468
g1
I01
sg7
I2
sg8
g29
sa(dp469
g1
I01
sg7
I2
sg8
g31
sa(dp470
g1
I01
sg7
I5
sg8
g33
sa(dp471
g1
I01
sg7
I5
sg8
g35
sa(dp472
g1
I01
sg7
I2
sg8
g39
sa(dp473
g1
I01
sg7
I5
sg8
g41
sa(dp474
g1
I01
sg7
I2
sg8
g43
sa(dp475
g1
I01
sg7
I2
sg8
g82
sa(dp476
g1
I01
sg7
I2
sg8
g84
sa(dp477
g1
I01
sg7
I2
sg8
g86
sa(dp478
g1
I01
sg7
I2
sg8
g88
sa(dp479
g1
I01
sg7
I5
sg8
S'buffer'
p480
sa(dp481
g1
I01
sg7
I2
sg8
g90
sa(dp482
g1
I01
sg7
I5
sg8
g92
sa(dp483
g1
I01
sg7
I2
sg8
g94
sa(dp484
g1
I01
sg7
I5
sg8
g431
sa(dp485
g1
I01
sg7
I5
sg8
g433
sa(dp486
g1
I01
sg7
I2
sg8
g96
sa(dp487
g1
I01
sg7
I2
sg8
g98
sa(dp488
g1
I01
sg7
I2
sg8
g100
sa(dp489
g1
I01
sg7
I5
sg8
g439
sa(dp490
g1
I01
sg7
I5
sg8
g8
sa(dp491
g1
I01
sg7
I5
sg8
g396
sa(dp492
g1
I01
sg7
I5
sg8
g102
sa(dp493
g1
I01
sg7
I2
sg8
g106
sa(dp494
g1
I01
sg7
I2
sg8
g110
sa(dp495
g1
I01
sg7
I2
sg8
g114
sa(dp496
g1
I01
sg7
I2
sg8
g116
sa(dp497
g1
I01
sg7
I2
sg8
g118
sa(dp498
g1
I01
sg7
I2
sg8
g120
sa(dp499
g1
I01
sg7
I2
sg8
g122
sa(dp500
g1
I01
sg7
I2
sg8
g124
sa(dp501
g1
I01
sg7
I2
sg8
g126
sa(dp502
g1
I01
sg7
I2
sg8
g128
sa(dp503
g1
I01
sg7
I2
sg8
g130
sasg7
I3
sg8
S'TextIOWrapper'
p504
sa(dp505
g1
I01
sg2
(lp506
(dp507
g1
I01
sg7
I5
sg8
g9
sa(dp508
g1
I01
sg7
I5
sg8
g11
sa(dp509
g1
I01
sg7
I5
sg8
g13
sa(dp510
g1
I01
sg7
I2
sg8
g15
sa(dp511
g1
I01
sg7
I5
sg8
g17
sa(dp512
g1
I01
sg7
I5
sg8
g19
sa(dp513
g1
I01
sg7
I5
sg8
g21
sa(dp514
g1
I01
sg7
I5
sg8
g23
sa(dp515
g1
I01
sg7
I5
sg8
g25
sa(dp516
g1
I01
sg7
I5
sg8
S'__module__'
p517
sa(dp518
g1
I01
sg7
I2
sg8
g27
sa(dp519
g1
I01
sg7
I2
sg8
g29
sa(dp520
g1
I01
sg7
I2
sg8
g31
sa(dp521
g1
I01
sg7
I5
sg8
g33
sa(dp522
g1
I01
sg7
I5
sg8
g35
sa(dp523
g1
I01
sg7
I2
sg8
g37
sa(dp524
g1
I01
sg7
I2
sg8
g39
sa(dp525
g1
I01
sg7
I5
sg8
g41
sa(dp526
g1
I01
sg7
I2
sg8
g43
sa(dp527
g1
I01
sg7
I2
sg8
g45
sa(dp528
g1
I01
sg7
I5
sg8
S'__weakref__'
p529
sa(dp530
g1
I01
sg7
I5
sg8
g47
sa(dp531
g1
I01
sg7
I5
sg8
g51
sa(dp532
g1
I01
sg7
I5
sg8
g53
sa(dp533
g1
I01
sg7
I5
sg8
g55
sa(dp534
g1
I01
sg7
I5
sg8
g57
sasg7
I3
sg8
S'UnsupportedOperation'
p535
sa(dp536
g1
I01
sg2
(lp537
(dp538
g1
I01
sg7
I5
sg8
g9
sa(dp539
g1
I01
sg7
I5
sg8
g13
sa(dp540
g1
I01
sg7
I2
sg8
g64
sa(dp541
g1
I01
sg7
I2
sg8
g66
sa(dp542
g1
I01
sg7
I2
sg8
g15
sa(dp543
g1
I01
sg7
I5
sg8
g17
sa(dp544
g1
I01
sg7
I5
sg8
g23
sa(dp545
g1
I01
sg7
I5
sg8
g25
sa(dp546
g1
I01
sg7
I5
sg8
g72
sa(dp547
g1
I01
sg7
I2
sg8
g27
sa(dp548
g1
I01
sg7
I2
sg8
g29
sa(dp549
g1
I01
sg7
I2
sg8
g31
sa(dp550
g1
I01
sg7
I5
sg8
g33
sa(dp551
g1
I01
sg7
I5
sg8
g35
sa(dp552
g1
I01
sg7
I2
sg8
g39
sa(dp553
g1
I01
sg7
I5
sg8
g41
sa(dp554
g1
I01
sg7
I2
sg8
g43
sa(dp555
g1
I01
sg7
I2
sg8
g82
sa(dp556
g1
I01
sg7
I2
sg8
g84
sa(dp557
g1
I01
sg7
I2
sg8
g86
sa(dp558
g1
I01
sg7
I2
sg8
g88
sa(dp559
g1
I01
sg7
I2
sg8
g90
sa(dp560
g1
I01
sg7
I5
sg8
g92
sa(dp561
g1
I01
sg7
I2
sg8
g94
sa(dp562
g1
I01
sg7
I2
sg8
g96
sa(dp563
g1
I01
sg7
I2
sg8
g98
sa(dp564
g1
I01
sg7
I2
sg8
g100
sa(dp565
g1
I01
sg7
I5
sg8
g102
sa(dp566
g1
I01
sg7
I2
sg8
g106
sa(dp567
g1
I01
sg7
I2
sg8
g108
sa(dp568
g1
I01
sg7
I2
sg8
g110
sa(dp569
g1
I01
sg7
I2
sg8
g112
sa(dp570
g1
I01
sg7
I2
sg8
g114
sa(dp571
g1
I01
sg7
I2
sg8
g116
sa(dp572
g1
I01
sg7
I2
sg8
g118
sa(dp573
g1
I01
sg7
I2
sg8
g120
sa(dp574
g1
I01
sg7
I2
sg8
g122
sa(dp575
g1
I01
sg7
I2
sg8
g124
sa(dp576
g1
I01
sg7
I2
sg8
g126
sa(dp577
g1
I01
sg7
I2
sg8
g128
sa(dp578
g1
I01
sg7
I2
sg8
g130
sasg7
I3
sg8
S'_BufferedIOBase'
p579
sa(dp580
g1
I01
sg2
(lp581
(dp582
g1
I01
sg7
I5
sg8
g9
sa(dp583
g1
I01
sg7
I5
sg8
g13
sa(dp584
g1
I01
sg7
I2
sg8
g64
sa(dp585
g1
I01
sg7
I2
sg8
g66
sa(dp586
g1
I01
sg7
I2
sg8
g15
sa(dp587
g1
I01
sg7
I5
sg8
g17
sa(dp588
g1
I01
sg7
I5
sg8
g23
sa(dp589
g1
I01
sg7
I5
sg8
g25
sa(dp590
g1
I01
sg7
I5
sg8
g72
sa(dp591
g1
I01
sg7
I2
sg8
g27
sa(dp592
g1
I01
sg7
I2
sg8
g29
sa(dp593
g1
I01
sg7
I2
sg8
g31
sa(dp594
g1
I01
sg7
I5
sg8
g33
sa(dp595
g1
I01
sg7
I5
sg8
g35
sa(dp596
g1
I01
sg7
I2
sg8
g39
sa(dp597
g1
I01
sg7
I5
sg8
g41
sa(dp598
g1
I01
sg7
I2
sg8
g43
sa(dp599
g1
I01
sg7
I2
sg8
g82
sa(dp600
g1
I01
sg7
I2
sg8
g84
sa(dp601
g1
I01
sg7
I2
sg8
g86
sa(dp602
g1
I01
sg7
I2
sg8
g88
sa(dp603
g1
I01
sg7
I2
sg8
g90
sa(dp604
g1
I01
sg7
I5
sg8
g92
sa(dp605
g1
I01
sg7
I2
sg8
g96
sa(dp606
g1
I01
sg7
I2
sg8
g98
sa(dp607
g1
I01
sg7
I2
sg8
g100
sa(dp608
g1
I01
sg7
I5
sg8
g102
sa(dp609
g1
I01
sg7
I2
sg8
g110
sa(dp610
g1
I01
sg7
I2
sg8
g114
sa(dp611
g1
I01
sg7
I2
sg8
g116
sa(dp612
g1
I01
sg7
I2
sg8
g118
sa(dp613
g1
I01
sg7
I2
sg8
g120
sa(dp614
g1
I01
sg7
I2
sg8
g122
sa(dp615
g1
I01
sg7
I2
sg8
g124
sa(dp616
g1
I01
sg7
I2
sg8
g126
sa(dp617
g1
I01
sg7
I2
sg8
g130
sasg7
I3
sg8
S'_IOBase'
p618
sa(dp619
g1
I01
sg2
(lp620
(dp621
g1
I01
sg7
I5
sg8
g9
sa(dp622
g1
I01
sg7
I5
sg8
g13
sa(dp623
g1
I01
sg7
I2
sg8
g64
sa(dp624
g1
I01
sg7
I2
sg8
g66
sa(dp625
g1
I01
sg7
I2
sg8
g15
sa(dp626
g1
I01
sg7
I5
sg8
g17
sa(dp627
g1
I01
sg7
I5
sg8
g23
sa(dp628
g1
I01
sg7
I5
sg8
g25
sa(dp629
g1
I01
sg7
I5
sg8
g72
sa(dp630
g1
I01
sg7
I2
sg8
g27
sa(dp631
g1
I01
sg7
I2
sg8
g29
sa(dp632
g1
I01
sg7
I2
sg8
g31
sa(dp633
g1
I01
sg7
I5
sg8
g33
sa(dp634
g1
I01
sg7
I5
sg8
g35
sa(dp635
g1
I01
sg7
I2
sg8
g39
sa(dp636
g1
I01
sg7
I5
sg8
g41
sa(dp637
g1
I01
sg7
I2
sg8
g43
sa(dp638
g1
I01
sg7
I2
sg8
g82
sa(dp639
g1
I01
sg7
I2
sg8
g84
sa(dp640
g1
I01
sg7
I2
sg8
g86
sa(dp641
g1
I01
sg7
I2
sg8
g88
sa(dp642
g1
I01
sg7
I2
sg8
g90
sa(dp643
g1
I01
sg7
I5
sg8
g92
sa(dp644
g1
I01
sg7
I2
sg8
g96
sa(dp645
g1
I01
sg7
I2
sg8
g98
sa(dp646
g1
I01
sg7
I2
sg8
g100
sa(dp647
g1
I01
sg7
I5
sg8
g102
sa(dp648
g1
I01
sg7
I2
sg8
g106
sa(dp649
g1
I01
sg7
I2
sg8
g110
sa(dp650
g1
I01
sg7
I2
sg8
g363
sa(dp651
g1
I01
sg7
I2
sg8
g114
sa(dp652
g1
I01
sg7
I2
sg8
g116
sa(dp653
g1
I01
sg7
I2
sg8
g118
sa(dp654
g1
I01
sg7
I2
sg8
g120
sa(dp655
g1
I01
sg7
I2
sg8
g122
sa(dp656
g1
I01
sg7
I2
sg8
g124
sa(dp657
g1
I01
sg7
I2
sg8
g126
sa(dp658
g1
I01
sg7
I2
sg8
g130
sasg7
I3
sg8
S'_RawIOBase'
p659
sa(dp660
g1
I01
sg2
(lp661
(dp662
g1
I01
sg7
I5
sg8
g9
sa(dp663
g1
I01
sg7
I5
sg8
g13
sa(dp664
g1
I01
sg7
I2
sg8
g64
sa(dp665
g1
I01
sg7
I2
sg8
g66
sa(dp666
g1
I01
sg7
I2
sg8
g15
sa(dp667
g1
I01
sg7
I5
sg8
g17
sa(dp668
g1
I01
sg7
I5
sg8
g23
sa(dp669
g1
I01
sg7
I5
sg8
g25
sa(dp670
g1
I01
sg7
I5
sg8
g72
sa(dp671
g1
I01
sg7
I2
sg8
g27
sa(dp672
g1
I01
sg7
I2
sg8
g29
sa(dp673
g1
I01
sg7
I2
sg8
g31
sa(dp674
g1
I01
sg7
I5
sg8
g33
sa(dp675
g1
I01
sg7
I5
sg8
g35
sa(dp676
g1
I01
sg7
I2
sg8
g39
sa(dp677
g1
I01
sg7
I5
sg8
g41
sa(dp678
g1
I01
sg7
I2
sg8
g43
sa(dp679
g1
I01
sg7
I2
sg8
g82
sa(dp680
g1
I01
sg7
I2
sg8
g84
sa(dp681
g1
I01
sg7
I2
sg8
g86
sa(dp682
g1
I01
sg7
I2
sg8
g88
sa(dp683
g1
I01
sg7
I2
sg8
g90
sa(dp684
g1
I01
sg7
I5
sg8
g92
sa(dp685
g1
I01
sg7
I2
sg8
g94
sa(dp686
g1
I01
sg7
I5
sg8
g431
sa(dp687
g1
I01
sg7
I5
sg8
g433
sa(dp688
g1
I01
sg7
I2
sg8
g96
sa(dp689
g1
I01
sg7
I2
sg8
g98
sa(dp690
g1
I01
sg7
I2
sg8
g100
sa(dp691
g1
I01
sg7
I5
sg8
g396
sa(dp692
g1
I01
sg7
I5
sg8
g102
sa(dp693
g1
I01
sg7
I2
sg8
g106
sa(dp694
g1
I01
sg7
I2
sg8
g110
sa(dp695
g1
I01
sg7
I2
sg8
g114
sa(dp696
g1
I01
sg7
I2
sg8
g116
sa(dp697
g1
I01
sg7
I2
sg8
g118
sa(dp698
g1
I01
sg7
I2
sg8
g120
sa(dp699
g1
I01
sg7
I2
sg8
g122
sa(dp700
g1
I01
sg7
I2
sg8
g124
sa(dp701
g1
I01
sg7
I2
sg8
g126
sa(dp702
g1
I01
sg7
I2
sg8
g128
sa(dp703
g1
I01
sg7
I2
sg8
g130
sasg7
I3
sg8
S'_TextIOBase'
p704
sa(dp705
g1
I01
sg7
I5
sg8
g13
sa(dp706
g1
I01
sg7
I5
sg8
S'__name__'
p707
sa(dp708
g1
I01
sg7
I5
sg8
S'__package__'
p709
sa(dp710
g1
I01
sg7
I2
sg8
S'open'
p711
sasg8
S'_io'
p712
s.