(dp0
S'is_builtin'
p1
I01
sS'childs'
p2
(lp3
(dp4
g1
I01
sS'type'
p5
I5
sS'name'
p6
S'ABDAY_1'
p7
sa(dp8
g1
I01
sg5
I5
sg6
S'ABDAY_2'
p9
sa(dp10
g1
I01
sg5
I5
sg6
S'ABDAY_3'
p11
sa(dp12
g1
I01
sg5
I5
sg6
S'ABDAY_4'
p13
sa(dp14
g1
I01
sg5
I5
sg6
S'ABDAY_5'
p15
sa(dp16
g1
I01
sg5
I5
sg6
S'ABDAY_6'
p17
sa(dp18
g1
I01
sg5
I5
sg6
S'ABDAY_7'
p19
sa(dp20
g1
I01
sg5
I5
sg6
S'ABMON_1'
p21
sa(dp22
g1
I01
sg5
I5
sg6
S'ABMON_10'
p23
sa(dp24
g1
I01
sg5
I5
sg6
S'ABMON_11'
p25
sa(dp26
g1
I01
sg5
I5
sg6
S'ABMON_12'
p27
sa(dp28
g1
I01
sg5
I5
sg6
S'ABMON_2'
p29
sa(dp30
g1
I01
sg5
I5
sg6
S'ABMON_3'
p31
sa(dp32
g1
I01
sg5
I5
sg6
S'ABMON_4'
p33
sa(dp34
g1
I01
sg5
I5
sg6
S'ABMON_5'
p35
sa(dp36
g1
I01
sg5
I5
sg6
S'ABMON_6'
p37
sa(dp38
g1
I01
sg5
I5
sg6
S'ABMON_7'
p39
sa(dp40
g1
I01
sg5
I5
sg6
S'ABMON_8'
p41
sa(dp42
g1
I01
sg5
I5
sg6
S'ABMON_9'
p43
sa(dp44
g1
I01
sg5
I5
sg6
S'ALT_DIGITS'
p45
sa(dp46
g1
I01
sg5
I5
sg6
S'AM_STR'
p47
sa(dp48
g1
I01
sg5
I5
sg6
S'CHAR_MAX'
p49
sa(dp50
g1
I01
sg5
I5
sg6
S'CODESET'
p51
sa(dp52
g1
I01
sg5
I5
sg6
S'CRNCYSTR'
p53
sa(dp54
g1
I01
sg5
I5
sg6
S'DAY_1'
p55
sa(dp56
g1
I01
sg5
I5
sg6
S'DAY_2'
p57
sa(dp58
g1
I01
sg5
I5
sg6
S'DAY_3'
p59
sa(dp60
g1
I01
sg5
I5
sg6
S'DAY_4'
p61
sa(dp62
g1
I01
sg5
I5
sg6
S'DAY_5'
p63
sa(dp64
g1
I01
sg5
I5
sg6
S'DAY_6'
p65
sa(dp66
g1
I01
sg5
I5
sg6
S'DAY_7'
p67
sa(dp68
g1
I01
sg5
I5
sg6
S'D_FMT'
p69
sa(dp70
g1
I01
sg5
I5
sg6
S'D_T_FMT'
p71
sa(dp72
g1
I01
sg5
I5
sg6
S'ERA'
p73
sa(dp74
g1
I01
sg5
I5
sg6
S'ERA_D_FMT'
p75
sa(dp76
g1
I01
sg5
I5
sg6
S'ERA_D_T_FMT'
p77
sa(dp78
g1
I01
sg5
I5
sg6
S'ERA_T_FMT'
p79
sa(dp80
g1
I01
sg2
(lp81
(dp82
g1
I01
sg5
I5
sg6
S'__delattr__'
p83
sa(dp84
g1
I01
sg5
I5
sg6
S'__dict__'
p85
sa(dp86
g1
I01
sg5
I5
sg6
S'__doc__'
p87
sa(dp88
g1
I01
sg5
I2
sg6
S'__format__'
p89
sa(dp90
g1
I01
sg5
I5
sg6
S'__getattribute__'
p91
sa(dp92
g1
I01
sg5
I5
sg6
S'__getitem__'
p93
sa(dp94
g1
I01
sg5
I5
sg6
S'__getslice__'
p95
sa(dp96
g1
I01
sg5
I5
sg6
S'__hash__'
p97
sa(dp98
g1
I01
sg5
I5
sg6
S'__init__'
p99
sa(dp100
g1
I01
sg5
I5
sg6
S'__module__'
p101
sa(dp102
g1
I01
sg5
I2
sg6
S'__new__'
p103
sa(dp104
g1
I01
sg5
I2
sg6
S'__reduce__'
p105
sa(dp106
g1
I01
sg5
I2
sg6
S'__reduce_ex__'
p107
sa(dp108
g1
I01
sg5
I5
sg6
S'__repr__'
p109
sa(dp110
g1
I01
sg5
I5
sg6
S'__setattr__'
p111
sa(dp112
g1
I01
sg5
I2
sg6
S'__setstate__'
p113
sa(dp114
g1
I01
sg5
I2
sg6
S'__sizeof__'
p115
sa(dp116
g1
I01
sg5
I5
sg6
S'__str__'
p117
sa(dp118
g1
I01
sg5
I2
sg6
S'__subclasshook__'
p119
sa(dp120
g1
I01
sg5
I2
sg6
S'__unicode__'
p121
sa(dp122
g1
I01
sg5
I5
sg6
S'__weakref__'
p123
sa(dp124
g1
I01
sg5
I5
sg6
S'args'
p125
sa(dp126
g1
I01
sg5
I5
sg6
S'message'
p127
sasg5
I3
sg6
S'Error'
p128
sa(dp129
g1
I01
sg5
I5
sg6
S'LC_ALL'
p130
sa(dp131
g1
I01
sg5
I5
sg6
S'LC_COLLATE'
p132
sa(dp133
g1
I01
sg5
I5
sg6
S'LC_CTYPE'
p134
sa(dp135
g1
I01
sg5
I5
sg6
S'LC_MESSAGES'
p136
sa(dp137
g1
I01
sg5
I5
sg6
S'LC_MONETARY'
p138
sa(dp139
g1
I01
sg5
I5
sg6
S'LC_NUMERIC'
p140
sa(dp141
g1
I01
sg5
I5
sg6
S'LC_TIME'
p142
sa(dp143
g1
I01
sg5
I5
sg6
S'MON_1'
p144
sa(dp145
g1
I01
sg5
I5
sg6
S'MON_10'
p146
sa(dp147
g1
I01
sg5
I5
sg6
S'MON_11'
p148
sa(dp149
g1
I01
sg5
I5
sg6
S'MON_12'
p150
sa(dp151
g1
I01
sg5
I5
sg6
S'MON_2'
p152
sa(dp153
g1
I01
sg5
I5
sg6
S'MON_3'
p154
sa(dp155
g1
I01
sg5
I5
sg6
S'MON_4'
p156
sa(dp157
g1
I01
sg5
I5
sg6
S'MON_5'
p158
sa(dp159
g1
I01
sg5
I5
sg6
S'MON_6'
p160
sa(dp161
g1
I01
sg5
I5
sg6
S'MON_7'
p162
sa(dp163
g1
I01
sg5
I5
sg6
S'MON_8'
p164
sa(dp165
g1
I01
sg5
I5
sg6
S'MON_9'
p166
sa(dp167
g1
I01
sg5
I5
sg6
S'NOEXPR'
p168
sa(dp169
g1
I01
sg5
I5
sg6
S'PM_STR'
p170
sa(dp171
g1
I01
sg5
I5
sg6
S'RADIXCHAR'
p172
sa(dp173
g1
I01
sg5
I5
sg6
S'THOUSEP'
p174
sa(dp175
g1
I01
sg5
I5
sg6
S'T_FMT'
p176
sa(dp177
g1
I01
sg5
I5
sg6
S'T_FMT_AMPM'
p178
sa(dp179
g1
I01
sg5
I5
sg6
S'YESEXPR'
p180
sa(dp181
g1
I01
sg5
I5
sg6
S'_DATE_FMT'
p182
sa(dp183
g1
I01
sg5
I5
sg6
g87
sa(dp184
g1
I01
sg5
I5
sg6
S'__name__'
p185
sa(dp186
g1
I01
sg5
I5
sg6
S'__package__'
p187
sa(dp188
g1
I01
sg5
I2
sg6
S'bind_textdomain_codeset'
p189
sa(dp190
g1
I01
sg5
I2
sg6
S'bindtextdomain'
p191
sa(dp192
g1
I01
sg5
I2
sg6
S'dcgettext'
p193
sa(dp194
g1
I01
sg5
I2
sg6
S'dgettext'
p195
sa(dp196
g1
I01
sg5
I2
sg6
S'gettext'
p197
sa(dp198
g1
I01
sg5
I2
sg6
S'localeconv'
p199
sa(dp200
g1
I01
sg5
I2
sg6
S'nl_langinfo'
p201
sa(dp202
g1
I01
sg5
I2
sg6
S'setlocale'
p203
sa(dp204
g1
I01
sg5
I2
sg6
S'strcoll'
p205
sa(dp206
g1
I01
sg5
I2
sg6
S'strxfrm'
p207
sa(dp208
g1
I01
sg5
I2
sg6
S'textdomain'
p209
sasg6
S'_locale'
p210
s.