(dp0
S'is_builtin'
p1
I01
sS'childs'
p2
(lp3
(dp4
g1
I01
sg2
(lp5
(dp6
g1
I01
sS'type'
p7
I5
sS'name'
p8
S'__delattr__'
p9
sa(dp10
g1
I01
sg7
I5
sg8
S'__doc__'
p11
sa(dp12
g1
I01
sg7
I2
sg8
S'__format__'
p13
sa(dp14
g1
I01
sg7
I5
sg8
S'__getattribute__'
p15
sa(dp16
g1
I01
sg7
I5
sg8
S'__hash__'
p17
sa(dp18
g1
I01
sg7
I5
sg8
S'__init__'
p19
sa(dp20
g1
I01
sg7
I2
sg8
S'__new__'
p21
sa(dp22
g1
I01
sg7
I2
sg8
S'__reduce__'
p23
sa(dp24
g1
I01
sg7
I2
sg8
S'__reduce_ex__'
p25
sa(dp26
g1
I01
sg7
I5
sg8
S'__repr__'
p27
sa(dp28
g1
I01
sg7
I5
sg8
S'__setattr__'
p29
sa(dp30
g1
I01
sg7
I2
sg8
S'__sizeof__'
p31
sa(dp32
g1
I01
sg7
I5
sg8
S'__str__'
p33
sa(dp34
g1
I01
sg7
I2
sg8
S'__subclasshook__'
p35
sa(dp36
g1
I01
sg7
I5
sg8
S'block_size'
p37
sa(dp38
g1
I01
sg7
I2
sg8
S'copy'
p39
sa(dp40
g1
I01
sg7
I2
sg8
S'digest'
p41
sa(dp42
g1
I01
sg7
I5
sg8
S'digest_size'
p43
sa(dp44
g1
I01
sg7
I5
sg8
S'digestsize'
p45
sa(dp46
g1
I01
sg7
I2
sg8
S'hexdigest'
p47
sa(dp48
g1
I01
sg7
I5
sg8
g8
sa(dp49
g1
I01
sg7
I2
sg8
S'update'
p50
sasg7
I3
sg8
S'MD5Type'
p51
sa(dp52
g1
I01
sg7
I5
sg8
g11
sa(dp53
g1
I01
sg7
I5
sg8
S'__name__'
p54
sa(dp55
g1
I01
sg7
I5
sg8
S'__package__'
p56
sa(dp57
g1
I01
sg7
I5
sg8
g43
sa(dp58
g1
I01
sg7
I2
sg8
S'new'
p59
sasg8
S'_md5'
p60
s.