(dp0
S'is_builtin'
p1
I01
sS'childs'
p2
(lp3
(dp4
g1
I01
sS'type'
p5
I5
sS'name'
p6
S'__doc__'
p7
sa(dp8
g1
I01
sg5
I5
sg6
S'__name__'
p9
sa(dp10
g1
I01
sg5
I5
sg6
S'__package__'
p11
sa(dp12
g1
I01
sg5
I5
sg6
S'blocksize'
p13
sa(dp14
g1
I01
sg5
I5
sg6
S'digest_size'
p15
sa(dp16
g1
I01
sg5
I5
sg6
S'digestsize'
p17
sa(dp18
g1
I01
sg5
I2
sg6
S'new'
p19
sasg6
S'_sha'
p20
s.