(dp0
S'is_builtin'
p1
I01
sS'childs'
p2
(lp3
(dp4
g1
I01
sS'type'
p5
I5
sS'name'
p6
S'AF_APPLETALK'
p7
sa(dp8
g1
I01
sg5
I5
sg6
S'AF_ASH'
p9
sa(dp10
g1
I01
sg5
I5
sg6
S'AF_ATMPVC'
p11
sa(dp12
g1
I01
sg5
I5
sg6
S'AF_ATMSVC'
p13
sa(dp14
g1
I01
sg5
I5
sg6
S'AF_AX25'
p15
sa(dp16
g1
I01
sg5
I5
sg6
S'AF_BLUETOOTH'
p17
sa(dp18
g1
I01
sg5
I5
sg6
S'AF_BRIDGE'
p19
sa(dp20
g1
I01
sg5
I5
sg6
S'AF_DECnet'
p21
sa(dp22
g1
I01
sg5
I5
sg6
S'AF_ECONET'
p23
sa(dp24
g1
I01
sg5
I5
sg6
S'AF_INET'
p25
sa(dp26
g1
I01
sg5
I5
sg6
S'AF_INET6'
p27
sa(dp28
g1
I01
sg5
I5
sg6
S'AF_IPX'
p29
sa(dp30
g1
I01
sg5
I5
sg6
S'AF_IRDA'
p31
sa(dp32
g1
I01
sg5
I5
sg6
S'AF_KEY'
p33
sa(dp34
g1
I01
sg5
I5
sg6
S'AF_LLC'
p35
sa(dp36
g1
I01
sg5
I5
sg6
S'AF_NETBEUI'
p37
sa(dp38
g1
I01
sg5
I5
sg6
S'AF_NETLINK'
p39
sa(dp40
g1
I01
sg5
I5
sg6
S'AF_NETROM'
p41
sa(dp42
g1
I01
sg5
I5
sg6
S'AF_PACKET'
p43
sa(dp44
g1
I01
sg5
I5
sg6
S'AF_PPPOX'
p45
sa(dp46
g1
I01
sg5
I5
sg6
S'AF_ROSE'
p47
sa(dp48
g1
I01
sg5
I5
sg6
S'AF_ROUTE'
p49
sa(dp50
g1
I01
sg5
I5
sg6
S'AF_SECURITY'
p51
sa(dp52
g1
I01
sg5
I5
sg6
S'AF_SNA'
p53
sa(dp54
g1
I01
sg5
I5
sg6
S'AF_TIPC'
p55
sa(dp56
g1
I01
sg5
I5
sg6
S'AF_UNIX'
p57
sa(dp58
g1
I01
sg5
I5
sg6
S'AF_UNSPEC'
p59
sa(dp60
g1
I01
sg5
I5
sg6
S'AF_WANPIPE'
p61
sa(dp62
g1
I01
sg5
I5
sg6
S'AF_X25'
p63
sa(dp64
g1
I01
sg5
I5
sg6
S'AI_ADDRCONFIG'
p65
sa(dp66
g1
I01
sg5
I5
sg6
S'AI_ALL'
p67
sa(dp68
g1
I01
sg5
I5
sg6
S'AI_CANONNAME'
p69
sa(dp70
g1
I01
sg5
I5
sg6
S'AI_NUMERICHOST'
p71
sa(dp72
g1
I01
sg5
I5
sg6
S'AI_NUMERICSERV'
p73
sa(dp74
g1
I01
sg5
I5
sg6
S'AI_PASSIVE'
p75
sa(dp76
g1
I01
sg5
I5
sg6
S'AI_V4MAPPED'
p77
sa(dp78
g1
I01
sg5
I5
sg6
S'BDADDR_ANY'
p79
sa(dp80
g1
I01
sg5
I5
sg6
S'BDADDR_LOCAL'
p81
sa(dp82
g1
I01
sg5
I5
sg6
S'BTPROTO_HCI'
p83
sa(dp84
g1
I01
sg5
I5
sg6
S'BTPROTO_L2CAP'
p85
sa(dp86
g1
I01
sg5
I5
sg6
S'BTPROTO_RFCOMM'
p87
sa(dp88
g1
I01
sg5
I5
sg6
S'BTPROTO_SCO'
p89
sa(dp90
g1
I01
sg5
I5
sg6
S'CAPI'
p91
sa(dp92
g1
I01
sg5
I5
sg6
S'EAI_ADDRFAMILY'
p93
sa(dp94
g1
I01
sg5
I5
sg6
S'EAI_AGAIN'
p95
sa(dp96
g1
I01
sg5
I5
sg6
S'EAI_BADFLAGS'
p97
sa(dp98
g1
I01
sg5
I5
sg6
S'EAI_FAIL'
p99
sa(dp100
g1
I01
sg5
I5
sg6
S'EAI_FAMILY'
p101
sa(dp102
g1
I01
sg5
I5
sg6
S'EAI_MEMORY'
p103
sa(dp104
g1
I01
sg5
I5
sg6
S'EAI_NODATA'
p105
sa(dp106
g1
I01
sg5
I5
sg6
S'EAI_NONAME'
p107
sa(dp108
g1
I01
sg5
I5
sg6
S'EAI_OVERFLOW'
p109
sa(dp110
g1
I01
sg5
I5
sg6
S'EAI_SERVICE'
p111
sa(dp112
g1
I01
sg5
I5
sg6
S'EAI_SOCKTYPE'
p113
sa(dp114
g1
I01
sg5
I5
sg6
S'EAI_SYSTEM'
p115
sa(dp116
g1
I01
sg5
I5
sg6
S'HCI_DATA_DIR'
p117
sa(dp118
g1
I01
sg5
I5
sg6
S'HCI_FILTER'
p119
sa(dp120
g1
I01
sg5
I5
sg6
S'HCI_TIME_STAMP'
p121
sa(dp122
g1
I01
sg5
I5
sg6
S'INADDR_ALLHOSTS_GROUP'
p123
sa(dp124
g1
I01
sg5
I5
sg6
S'INADDR_ANY'
p125
sa(dp126
g1
I01
sg5
I5
sg6
S'INADDR_BROADCAST'
p127
sa(dp128
g1
I01
sg5
I5
sg6
S'INADDR_LOOPBACK'
p129
sa(dp130
g1
I01
sg5
I5
sg6
S'INADDR_MAX_LOCAL_GROUP'
p131
sa(dp132
g1
I01
sg5
I5
sg6
S'INADDR_NONE'
p133
sa(dp134
g1
I01
sg5
I5
sg6
S'INADDR_UNSPEC_GROUP'
p135
sa(dp136
g1
I01
sg5
I5
sg6
S'IPPORT_RESERVED'
p137
sa(dp138
g1
I01
sg5
I5
sg6
S'IPPORT_USERRESERVED'
p139
sa(dp140
g1
I01
sg5
I5
sg6
S'IPPROTO_AH'
p141
sa(dp142
g1
I01
sg5
I5
sg6
S'IPPROTO_DSTOPTS'
p143
sa(dp144
g1
I01
sg5
I5
sg6
S'IPPROTO_EGP'
p145
sa(dp146
g1
I01
sg5
I5
sg6
S'IPPROTO_ESP'
p147
sa(dp148
g1
I01
sg5
I5
sg6
S'IPPROTO_FRAGMENT'
p149
sa(dp150
g1
I01
sg5
I5
sg6
S'IPPROTO_GRE'
p151
sa(dp152
g1
I01
sg5
I5
sg6
S'IPPROTO_HOPOPTS'
p153
sa(dp154
g1
I01
sg5
I5
sg6
S'IPPROTO_ICMP'
p155
sa(dp156
g1
I01
sg5
I5
sg6
S'IPPROTO_ICMPV6'
p157
sa(dp158
g1
I01
sg5
I5
sg6
S'IPPROTO_IDP'
p159
sa(dp160
g1
I01
sg5
I5
sg6
S'IPPROTO_IGMP'
p161
sa(dp162
g1
I01
sg5
I5
sg6
S'IPPROTO_IP'
p163
sa(dp164
g1
I01
sg5
I5
sg6
S'IPPROTO_IPIP'
p165
sa(dp166
g1
I01
sg5
I5
sg6
S'IPPROTO_IPV6'
p167
sa(dp168
g1
I01
sg5
I5
sg6
S'IPPROTO_NONE'
p169
sa(dp170
g1
I01
sg5
I5
sg6
S'IPPROTO_PIM'
p171
sa(dp172
g1
I01
sg5
I5
sg6
S'IPPROTO_PUP'
p173
sa(dp174
g1
I01
sg5
I5
sg6
S'IPPROTO_RAW'
p175
sa(dp176
g1
I01
sg5
I5
sg6
S'IPPROTO_ROUTING'
p177
sa(dp178
g1
I01
sg5
I5
sg6
S'IPPROTO_RSVP'
p179
sa(dp180
g1
I01
sg5
I5
sg6
S'IPPROTO_TCP'
p181
sa(dp182
g1
I01
sg5
I5
sg6
S'IPPROTO_TP'
p183
sa(dp184
g1
I01
sg5
I5
sg6
S'IPPROTO_UDP'
p185
sa(dp186
g1
I01
sg5
I5
sg6
S'IPV6_CHECKSUM'
p187
sa(dp188
g1
I01
sg5
I5
sg6
S'IPV6_DONTFRAG'
p189
sa(dp190
g1
I01
sg5
I5
sg6
S'IPV6_DSTOPTS'
p191
sa(dp192
g1
I01
sg5
I5
sg6
S'IPV6_HOPLIMIT'
p193
sa(dp194
g1
I01
sg5
I5
sg6
S'IPV6_HOPOPTS'
p195
sa(dp196
g1
I01
sg5
I5
sg6
S'IPV6_JOIN_GROUP'
p197
sa(dp198
g1
I01
sg5
I5
sg6
S'IPV6_LEAVE_GROUP'
p199
sa(dp200
g1
I01
sg5
I5
sg6
S'IPV6_MULTICAST_HOPS'
p201
sa(dp202
g1
I01
sg5
I5
sg6
S'IPV6_MULTICAST_IF'
p203
sa(dp204
g1
I01
sg5
I5
sg6
S'IPV6_MULTICAST_LOOP'
p205
sa(dp206
g1
I01
sg5
I5
sg6
S'IPV6_NEXTHOP'
p207
sa(dp208
g1
I01
sg5
I5
sg6
S'IPV6_PATHMTU'
p209
sa(dp210
g1
I01
sg5
I5
sg6
S'IPV6_PKTINFO'
p211
sa(dp212
g1
I01
sg5
I5
sg6
S'IPV6_RECVDSTOPTS'
p213
sa(dp214
g1
I01
sg5
I5
sg6
S'IPV6_RECVHOPLIMIT'
p215
sa(dp216
g1
I01
sg5
I5
sg6
S'IPV6_RECVHOPOPTS'
p217
sa(dp218
g1
I01
sg5
I5
sg6
S'IPV6_RECVPATHMTU'
p219
sa(dp220
g1
I01
sg5
I5
sg6
S'IPV6_RECVPKTINFO'
p221
sa(dp222
g1
I01
sg5
I5
sg6
S'IPV6_RECVRTHDR'
p223
sa(dp224
g1
I01
sg5
I5
sg6
S'IPV6_RECVTCLASS'
p225
sa(dp226
g1
I01
sg5
I5
sg6
S'IPV6_RTHDR'
p227
sa(dp228
g1
I01
sg5
I5
sg6
S'IPV6_RTHDRDSTOPTS'
p229
sa(dp230
g1
I01
sg5
I5
sg6
S'IPV6_RTHDR_TYPE_0'
p231
sa(dp232
g1
I01
sg5
I5
sg6
S'IPV6_TCLASS'
p233
sa(dp234
g1
I01
sg5
I5
sg6
S'IPV6_UNICAST_HOPS'
p235
sa(dp236
g1
I01
sg5
I5
sg6
S'IPV6_V6ONLY'
p237
sa(dp238
g1
I01
sg5
I5
sg6
S'IP_ADD_MEMBERSHIP'
p239
sa(dp240
g1
I01
sg5
I5
sg6
S'IP_DEFAULT_MULTICAST_LOOP'
p241
sa(dp242
g1
I01
sg5
I5
sg6
S'IP_DEFAULT_MULTICAST_TTL'
p243
sa(dp244
g1
I01
sg5
I5
sg6
S'IP_DROP_MEMBERSHIP'
p245
sa(dp246
g1
I01
sg5
I5
sg6
S'IP_HDRINCL'
p247
sa(dp248
g1
I01
sg5
I5
sg6
S'IP_MAX_MEMBERSHIPS'
p249
sa(dp250
g1
I01
sg5
I5
sg6
S'IP_MULTICAST_IF'
p251
sa(dp252
g1
I01
sg5
I5
sg6
S'IP_MULTICAST_LOOP'
p253
sa(dp254
g1
I01
sg5
I5
sg6
S'IP_MULTICAST_TTL'
p255
sa(dp256
g1
I01
sg5
I5
sg6
S'IP_OPTIONS'
p257
sa(dp258
g1
I01
sg5
I5
sg6
S'IP_RECVOPTS'
p259
sa(dp260
g1
I01
sg5
I5
sg6
S'IP_RECVRETOPTS'
p261
sa(dp262
g1
I01
sg5
I5
sg6
S'IP_RETOPTS'
p263
sa(dp264
g1
I01
sg5
I5
sg6
S'IP_TOS'
p265
sa(dp266
g1
I01
sg5
I5
sg6
S'IP_TTL'
p267
sa(dp268
g1
I01
sg5
I5
sg6
S'MSG_CTRUNC'
p269
sa(dp270
g1
I01
sg5
I5
sg6
S'MSG_DONTROUTE'
p271
sa(dp272
g1
I01
sg5
I5
sg6
S'MSG_DONTWAIT'
p273
sa(dp274
g1
I01
sg5
I5
sg6
S'MSG_EOR'
p275
sa(dp276
g1
I01
sg5
I5
sg6
S'MSG_OOB'
p277
sa(dp278
g1
I01
sg5
I5
sg6
S'MSG_PEEK'
p279
sa(dp280
g1
I01
sg5
I5
sg6
S'MSG_TRUNC'
p281
sa(dp282
g1
I01
sg5
I5
sg6
S'MSG_WAITALL'
p283
sa(dp284
g1
I01
sg5
I5
sg6
S'NETLINK_DNRTMSG'
p285
sa(dp286
g1
I01
sg5
I5
sg6
S'NETLINK_FIREWALL'
p287
sa(dp288
g1
I01
sg5
I5
sg6
S'NETLINK_IP6_FW'
p289
sa(dp290
g1
I01
sg5
I5
sg6
S'NETLINK_NFLOG'
p291
sa(dp292
g1
I01
sg5
I5
sg6
S'NETLINK_ROUTE'
p293
sa(dp294
g1
I01
sg5
I5
sg6
S'NETLINK_USERSOCK'
p295
sa(dp296
g1
I01
sg5
I5
sg6
S'NETLINK_XFRM'
p297
sa(dp298
g1
I01
sg5
I5
sg6
S'NI_DGRAM'
p299
sa(dp300
g1
I01
sg5
I5
sg6
S'NI_MAXHOST'
p301
sa(dp302
g1
I01
sg5
I5
sg6
S'NI_MAXSERV'
p303
sa(dp304
g1
I01
sg5
I5
sg6
S'NI_NAMEREQD'
p305
sa(dp306
g1
I01
sg5
I5
sg6
S'NI_NOFQDN'
p307
sa(dp308
g1
I01
sg5
I5
sg6
S'NI_NUMERICHOST'
p309
sa(dp310
g1
I01
sg5
I5
sg6
S'NI_NUMERICSERV'
p311
sa(dp312
g1
I01
sg5
I5
sg6
S'PACKET_BROADCAST'
p313
sa(dp314
g1
I01
sg5
I5
sg6
S'PACKET_FASTROUTE'
p315
sa(dp316
g1
I01
sg5
I5
sg6
S'PACKET_HOST'
p317
sa(dp318
g1
I01
sg5
I5
sg6
S'PACKET_LOOPBACK'
p319
sa(dp320
g1
I01
sg5
I5
sg6
S'PACKET_MULTICAST'
p321
sa(dp322
g1
I01
sg5
I5
sg6
S'PACKET_OTHERHOST'
p323
sa(dp324
g1
I01
sg5
I5
sg6
S'PACKET_OUTGOING'
p325
sa(dp326
g1
I01
sg5
I5
sg6
S'PF_PACKET'
p327
sa(dp328
g1
I01
sg5
I5
sg6
S'SHUT_RD'
p329
sa(dp330
g1
I01
sg5
I5
sg6
S'SHUT_RDWR'
p331
sa(dp332
g1
I01
sg5
I5
sg6
S'SHUT_WR'
p333
sa(dp334
g1
I01
sg5
I5
sg6
S'SOCK_DGRAM'
p335
sa(dp336
g1
I01
sg5
I5
sg6
S'SOCK_RAW'
p337
sa(dp338
g1
I01
sg5
I5
sg6
S'SOCK_RDM'
p339
sa(dp340
g1
I01
sg5
I5
sg6
S'SOCK_SEQPACKET'
p341
sa(dp342
g1
I01
sg5
I5
sg6
S'SOCK_STREAM'
p343
sa(dp344
g1
I01
sg5
I5
sg6
S'SOL_HCI'
p345
sa(dp346
g1
I01
sg5
I5
sg6
S'SOL_IP'
p347
sa(dp348
g1
I01
sg5
I5
sg6
S'SOL_SOCKET'
p349
sa(dp350
g1
I01
sg5
I5
sg6
S'SOL_TCP'
p351
sa(dp352
g1
I01
sg5
I5
sg6
S'SOL_TIPC'
p353
sa(dp354
g1
I01
sg5
I5
sg6
S'SOL_UDP'
p355
sa(dp356
g1
I01
sg5
I5
sg6
S'SOMAXCONN'
p357
sa(dp358
g1
I01
sg5
I5
sg6
S'SO_ACCEPTCONN'
p359
sa(dp360
g1
I01
sg5
I5
sg6
S'SO_BROADCAST'
p361
sa(dp362
g1
I01
sg5
I5
sg6
S'SO_DEBUG'
p363
sa(dp364
g1
I01
sg5
I5
sg6
S'SO_DONTROUTE'
p365
sa(dp366
g1
I01
sg5
I5
sg6
S'SO_ERROR'
p367
sa(dp368
g1
I01
sg5
I5
sg6
S'SO_KEEPALIVE'
p369
sa(dp370
g1
I01
sg5
I5
sg6
S'SO_LINGER'
p371
sa(dp372
g1
I01
sg5
I5
sg6
S'SO_OOBINLINE'
p373
sa(dp374
g1
I01
sg5
I5
sg6
S'SO_RCVBUF'
p375
sa(dp376
g1
I01
sg5
I5
sg6
S'SO_RCVLOWAT'
p377
sa(dp378
g1
I01
sg5
I5
sg6
S'SO_RCVTIMEO'
p379
sa(dp380
g1
I01
sg5
I5
sg6
S'SO_REUSEADDR'
p381
sa(dp382
g1
I01
sg5
I5
sg6
S'SO_REUSEPORT'
p383
sa(dp384
g1
I01
sg5
I5
sg6
S'SO_SNDBUF'
p385
sa(dp386
g1
I01
sg5
I5
sg6
S'SO_SNDLOWAT'
p387
sa(dp388
g1
I01
sg5
I5
sg6
S'SO_SNDTIMEO'
p389
sa(dp390
g1
I01
sg5
I5
sg6
S'SO_TYPE'
p391
sa(dp392
g1
I01
sg2
(lp393
(dp394
g1
I01
sg5
I5
sg6
S'__delattr__'
p395
sa(dp396
g1
I01
sg5
I5
sg6
S'__doc__'
p397
sa(dp398
g1
I01
sg5
I2
sg6
S'__format__'
p399
sa(dp400
g1
I01
sg5
I5
sg6
S'__getattribute__'
p401
sa(dp402
g1
I01
sg5
I5
sg6
S'__hash__'
p403
sa(dp404
g1
I01
sg5
I5
sg6
S'__init__'
p405
sa(dp406
g1
I01
sg5
I2
sg6
S'__new__'
p407
sa(dp408
g1
I01
sg5
I2
sg6
S'__reduce__'
p409
sa(dp410
g1
I01
sg5
I2
sg6
S'__reduce_ex__'
p411
sa(dp412
g1
I01
sg5
I5
sg6
S'__repr__'
p413
sa(dp414
g1
I01
sg5
I5
sg6
S'__setattr__'
p415
sa(dp416
g1
I01
sg5
I2
sg6
S'__sizeof__'
p417
sa(dp418
g1
I01
sg5
I5
sg6
S'__str__'
p419
sa(dp420
g1
I01
sg5
I2
sg6
S'__subclasshook__'
p421
sa(dp422
g1
I01
sg5
I2
sg6
S'accept'
p423
sa(dp424
g1
I01
sg5
I2
sg6
S'bind'
p425
sa(dp426
g1
I01
sg5
I2
sg6
S'close'
p427
sa(dp428
g1
I01
sg5
I2
sg6
S'connect'
p429
sa(dp430
g1
I01
sg5
I2
sg6
S'connect_ex'
p431
sa(dp432
g1
I01
sg5
I2
sg6
S'dup'
p433
sa(dp434
g1
I01
sg5
I5
sg6
S'family'
p435
sa(dp436
g1
I01
sg5
I2
sg6
S'fileno'
p437
sa(dp438
g1
I01
sg5
I2
sg6
S'getpeername'
p439
sa(dp440
g1
I01
sg5
I2
sg6
S'getsockname'
p441
sa(dp442
g1
I01
sg5
I2
sg6
S'getsockopt'
p443
sa(dp444
g1
I01
sg5
I2
sg6
S'gettimeout'
p445
sa(dp446
g1
I01
sg5
I2
sg6
S'listen'
p447
sa(dp448
g1
I01
sg5
I2
sg6
S'makefile'
p449
sa(dp450
g1
I01
sg5
I5
sg6
S'proto'
p451
sa(dp452
g1
I01
sg5
I2
sg6
S'recv'
p453
sa(dp454
g1
I01
sg5
I2
sg6
S'recv_into'
p455
sa(dp456
g1
I01
sg5
I2
sg6
S'recvfrom'
p457
sa(dp458
g1
I01
sg5
I2
sg6
S'recvfrom_into'
p459
sa(dp460
g1
I01
sg5
I2
sg6
S'send'
p461
sa(dp462
g1
I01
sg5
I2
sg6
S'sendall'
p463
sa(dp464
g1
I01
sg5
I2
sg6
S'sendto'
p465
sa(dp466
g1
I01
sg5
I2
sg6
S'setblocking'
p467
sa(dp468
g1
I01
sg5
I2
sg6
S'setsockopt'
p469
sa(dp470
g1
I01
sg5
I2
sg6
S'settimeout'
p471
sa(dp472
g1
I01
sg5
I2
sg6
S'shutdown'
p473
sa(dp474
g1
I01
sg5
I5
sg6
S'timeout'
p475
sa(dp476
g1
I01
sg5
I5
sg6
g5
sasg5
I3
sg6
S'SocketType'
p477
sa(dp478
g1
I01
sg5
I5
sg6
S'TCP_CORK'
p479
sa(dp480
g1
I01
sg5
I5
sg6
S'TCP_DEFER_ACCEPT'
p481
sa(dp482
g1
I01
sg5
I5
sg6
S'TCP_INFO'
p483
sa(dp484
g1
I01
sg5
I5
sg6
S'TCP_KEEPCNT'
p485
sa(dp486
g1
I01
sg5
I5
sg6
S'TCP_KEEPIDLE'
p487
sa(dp488
g1
I01
sg5
I5
sg6
S'TCP_KEEPINTVL'
p489
sa(dp490
g1
I01
sg5
I5
sg6
S'TCP_LINGER2'
p491
sa(dp492
g1
I01
sg5
I5
sg6
S'TCP_MAXSEG'
p493
sa(dp494
g1
I01
sg5
I5
sg6
S'TCP_NODELAY'
p495
sa(dp496
g1
I01
sg5
I5
sg6
S'TCP_QUICKACK'
p497
sa(dp498
g1
I01
sg5
I5
sg6
S'TCP_SYNCNT'
p499
sa(dp500
g1
I01
sg5
I5
sg6
S'TCP_WINDOW_CLAMP'
p501
sa(dp502
g1
I01
sg5
I5
sg6
S'TIPC_ADDR_ID'
p503
sa(dp504
g1
I01
sg5
I5
sg6
S'TIPC_ADDR_NAME'
p505
sa(dp506
g1
I01
sg5
I5
sg6
S'TIPC_ADDR_NAMESEQ'
p507
sa(dp508
g1
I01
sg5
I5
sg6
S'TIPC_CFG_SRV'
p509
sa(dp510
g1
I01
sg5
I5
sg6
S'TIPC_CLUSTER_SCOPE'
p511
sa(dp512
g1
I01
sg5
I5
sg6
S'TIPC_CONN_TIMEOUT'
p513
sa(dp514
g1
I01
sg5
I5
sg6
S'TIPC_CRITICAL_IMPORTANCE'
p515
sa(dp516
g1
I01
sg5
I5
sg6
S'TIPC_DEST_DROPPABLE'
p517
sa(dp518
g1
I01
sg5
I5
sg6
S'TIPC_HIGH_IMPORTANCE'
p519
sa(dp520
g1
I01
sg5
I5
sg6
S'TIPC_IMPORTANCE'
p521
sa(dp522
g1
I01
sg5
I5
sg6
S'TIPC_LOW_IMPORTANCE'
p523
sa(dp524
g1
I01
sg5
I5
sg6
S'TIPC_MEDIUM_IMPORTANCE'
p525
sa(dp526
g1
I01
sg5
I5
sg6
S'TIPC_NODE_SCOPE'
p527
sa(dp528
g1
I01
sg5
I5
sg6
S'TIPC_PUBLISHED'
p529
sa(dp530
g1
I01
sg5
I5
sg6
S'TIPC_SRC_DROPPABLE'
p531
sa(dp532
g1
I01
sg5
I5
sg6
S'TIPC_SUBSCR_TIMEOUT'
p533
sa(dp534
g1
I01
sg5
I5
sg6
S'TIPC_SUB_CANCEL'
p535
sa(dp536
g1
I01
sg5
I5
sg6
S'TIPC_SUB_PORTS'
p537
sa(dp538
g1
I01
sg5
I5
sg6
S'TIPC_SUB_SERVICE'
p539
sa(dp540
g1
I01
sg5
I5
sg6
S'TIPC_TOP_SRV'
p541
sa(dp542
g1
I01
sg5
I5
sg6
S'TIPC_WAIT_FOREVER'
p543
sa(dp544
g1
I01
sg5
I5
sg6
S'TIPC_WITHDRAWN'
p545
sa(dp546
g1
I01
sg5
I5
sg6
S'TIPC_ZONE_SCOPE'
p547
sa(dp548
g1
I01
sg5
I5
sg6
g397
sa(dp549
g1
I01
sg5
I5
sg6
S'__name__'
p550
sa(dp551
g1
I01
sg5
I5
sg6
S'__package__'
p552
sa(dp553
g1
I01
sg2
(lp554
(dp555
g1
I01
sg5
I5
sg6
g395
sa(dp556
g1
I01
sg5
I5
sg6
S'__dict__'
p557
sa(dp558
g1
I01
sg5
I5
sg6
g397
sa(dp559
g1
I01
sg5
I2
sg6
g399
sa(dp560
g1
I01
sg5
I5
sg6
g401
sa(dp561
g1
I01
sg5
I5
sg6
S'__getitem__'
p562
sa(dp563
g1
I01
sg5
I5
sg6
S'__getslice__'
p564
sa(dp565
g1
I01
sg5
I5
sg6
g403
sa(dp566
g1
I01
sg5
I5
sg6
g405
sa(dp567
g1
I01
sg5
I5
sg6
S'__module__'
p568
sa(dp569
g1
I01
sg5
I2
sg6
g407
sa(dp570
g1
I01
sg5
I2
sg6
g409
sa(dp571
g1
I01
sg5
I2
sg6
g411
sa(dp572
g1
I01
sg5
I5
sg6
g413
sa(dp573
g1
I01
sg5
I5
sg6
g415
sa(dp574
g1
I01
sg5
I2
sg6
S'__setstate__'
p575
sa(dp576
g1
I01
sg5
I2
sg6
g417
sa(dp577
g1
I01
sg5
I5
sg6
g419
sa(dp578
g1
I01
sg5
I2
sg6
g421
sa(dp579
g1
I01
sg5
I2
sg6
S'__unicode__'
p580
sa(dp581
g1
I01
sg5
I5
sg6
S'__weakref__'
p582
sa(dp583
g1
I01
sg5
I5
sg6
S'args'
p584
sa(dp585
g1
I01
sg5
I5
sg6
S'errno'
p586
sa(dp587
g1
I01
sg5
I5
sg6
S'filename'
p588
sa(dp589
g1
I01
sg5
I5
sg6
S'message'
p590
sa(dp591
g1
I01
sg5
I5
sg6
S'strerror'
p592
sasg5
I3
sg6
S'error'
p593
sa(dp594
g1
I01
sg5
I2
sg6
S'fromfd'
p595
sa(dp596
g1
I01
sg2
(lp597
(dp598
g1
I01
sg5
I5
sg6
g395
sa(dp599
g1
I01
sg5
I5
sg6
g557
sa(dp600
g1
I01
sg5
I5
sg6
g397
sa(dp601
g1
I01
sg5
I2
sg6
g399
sa(dp602
g1
I01
sg5
I5
sg6
g401
sa(dp603
g1
I01
sg5
I5
sg6
g562
sa(dp604
g1
I01
sg5
I5
sg6
g564
sa(dp605
g1
I01
sg5
I5
sg6
g403
sa(dp606
g1
I01
sg5
I5
sg6
g405
sa(dp607
g1
I01
sg5
I5
sg6
g568
sa(dp608
g1
I01
sg5
I2
sg6
g407
sa(dp609
g1
I01
sg5
I2
sg6
g409
sa(dp610
g1
I01
sg5
I2
sg6
g411
sa(dp611
g1
I01
sg5
I5
sg6
g413
sa(dp612
g1
I01
sg5
I5
sg6
g415
sa(dp613
g1
I01
sg5
I2
sg6
g575
sa(dp614
g1
I01
sg5
I2
sg6
g417
sa(dp615
g1
I01
sg5
I5
sg6
g419
sa(dp616
g1
I01
sg5
I2
sg6
g421
sa(dp617
g1
I01
sg5
I2
sg6
g580
sa(dp618
g1
I01
sg5
I5
sg6
g582
sa(dp619
g1
I01
sg5
I5
sg6
g584
sa(dp620
g1
I01
sg5
I5
sg6
g586
sa(dp621
g1
I01
sg5
I5
sg6
g588
sa(dp622
g1
I01
sg5
I5
sg6
g590
sa(dp623
g1
I01
sg5
I5
sg6
g592
sasg5
I3
sg6
S'gaierror'
p624
sa(dp625
g1
I01
sg5
I2
sg6
S'getaddrinfo'
p626
sa(dp627
g1
I01
sg5
I2
sg6
S'getdefaulttimeout'
p628
sa(dp629
g1
I01
sg5
I2
sg6
S'gethostbyaddr'
p630
sa(dp631
g1
I01
sg5
I2
sg6
S'gethostbyname'
p632
sa(dp633
g1
I01
sg5
I2
sg6
S'gethostbyname_ex'
p634
sa(dp635
g1
I01
sg5
I2
sg6
S'gethostname'
p636
sa(dp637
g1
I01
sg5
I2
sg6
S'getnameinfo'
p638
sa(dp639
g1
I01
sg5
I2
sg6
S'getprotobyname'
p640
sa(dp641
g1
I01
sg5
I2
sg6
S'getservbyname'
p642
sa(dp643
g1
I01
sg5
I2
sg6
S'getservbyport'
p644
sa(dp645
g1
I01
sg5
I5
sg6
S'has_ipv6'
p646
sa(dp647
g1
I01
sg2
(lp648
(dp649
g1
I01
sg5
I5
sg6
g395
sa(dp650
g1
I01
sg5
I5
sg6
g557
sa(dp651
g1
I01
sg5
I5
sg6
g397
sa(dp652
g1
I01
sg5
I2
sg6
g399
sa(dp653
g1
I01
sg5
I5
sg6
g401
sa(dp654
g1
I01
sg5
I5
sg6
g562
sa(dp655
g1
I01
sg5
I5
sg6
g564
sa(dp656
g1
I01
sg5
I5
sg6
g403
sa(dp657
g1
I01
sg5
I5
sg6
g405
sa(dp658
g1
I01
sg5
I5
sg6
g568
sa(dp659
g1
I01
sg5
I2
sg6
g407
sa(dp660
g1
I01
sg5
I2
sg6
g409
sa(dp661
g1
I01
sg5
I2
sg6
g411
sa(dp662
g1
I01
sg5
I5
sg6
g413
sa(dp663
g1
I01
sg5
I5
sg6
g415
sa(dp664
g1
I01
sg5
I2
sg6
g575
sa(dp665
g1
I01
sg5
I2
sg6
g417
sa(dp666
g1
I01
sg5
I5
sg6
g419
sa(dp667
g1
I01
sg5
I2
sg6
g421
sa(dp668
g1
I01
sg5
I2
sg6
g580
sa(dp669
g1
I01
sg5
I5
sg6
g582
sa(dp670
g1
I01
sg5
I5
sg6
g584
sa(dp671
g1
I01
sg5
I5
sg6
g586
sa(dp672
g1
I01
sg5
I5
sg6
g588
sa(dp673
g1
I01
sg5
I5
sg6
g590
sa(dp674
g1
I01
sg5
I5
sg6
g592
sasg5
I3
sg6
S'herror'
p675
sa(dp676
g1
I01
sg5
I2
sg6
S'htonl'
p677
sa(dp678
g1
I01
sg5
I2
sg6
S'htons'
p679
sa(dp680
g1
I01
sg5
I2
sg6
S'inet_aton'
p681
sa(dp682
g1
I01
sg5
I2
sg6
S'inet_ntoa'
p683
sa(dp684
g1
I01
sg5
I2
sg6
S'inet_ntop'
p685
sa(dp686
g1
I01
sg5
I2
sg6
S'inet_pton'
p687
sa(dp688
g1
I01
sg5
I2
sg6
S'ntohl'
p689
sa(dp690
g1
I01
sg5
I2
sg6
S'ntohs'
p691
sa(dp692
g1
I01
sg5
I2
sg6
S'setdefaulttimeout'
p693
sa(dp694
g1
I01
sg2
(lp695
(dp696
g1
I01
sg5
I5
sg6
g395
sa(dp697
g1
I01
sg5
I5
sg6
g397
sa(dp698
g1
I01
sg5
I2
sg6
g399
sa(dp699
g1
I01
sg5
I5
sg6
g401
sa(dp700
g1
I01
sg5
I5
sg6
g403
sa(dp701
g1
I01
sg5
I5
sg6
g405
sa(dp702
g1
I01
sg5
I2
sg6
g407
sa(dp703
g1
I01
sg5
I2
sg6
g409
sa(dp704
g1
I01
sg5
I2
sg6
g411
sa(dp705
g1
I01
sg5
I5
sg6
g413
sa(dp706
g1
I01
sg5
I5
sg6
g415
sa(dp707
g1
I01
sg5
I2
sg6
g417
sa(dp708
g1
I01
sg5
I5
sg6
g419
sa(dp709
g1
I01
sg5
I2
sg6
g421
sa(dp710
g1
I01
sg5
I2
sg6
g423
sa(dp711
g1
I01
sg5
I2
sg6
g425
sa(dp712
g1
I01
sg5
I2
sg6
g427
sa(dp713
g1
I01
sg5
I2
sg6
g429
sa(dp714
g1
I01
sg5
I2
sg6
g431
sa(dp715
g1
I01
sg5
I2
sg6
g433
sa(dp716
g1
I01
sg5
I5
sg6
g435
sa(dp717
g1
I01
sg5
I2
sg6
g437
sa(dp718
g1
I01
sg5
I2
sg6
g439
sa(dp719
g1
I01
sg5
I2
sg6
g441
sa(dp720
g1
I01
sg5
I2
sg6
g443
sa(dp721
g1
I01
sg5
I2
sg6
g445
sa(dp722
g1
I01
sg5
I2
sg6
g447
sa(dp723
g1
I01
sg5
I2
sg6
g449
sa(dp724
g1
I01
sg5
I5
sg6
g451
sa(dp725
g1
I01
sg5
I2
sg6
g453
sa(dp726
g1
I01
sg5
I2
sg6
g455
sa(dp727
g1
I01
sg5
I2
sg6
g457
sa(dp728
g1
I01
sg5
I2
sg6
g459
sa(dp729
g1
I01
sg5
I2
sg6
g461
sa(dp730
g1
I01
sg5
I2
sg6
g463
sa(dp731
g1
I01
sg5
I2
sg6
g465
sa(dp732
g1
I01
sg5
I2
sg6
g467
sa(dp733
g1
I01
sg5
I2
sg6
g469
sa(dp734
g1
I01
sg5
I2
sg6
g471
sa(dp735
g1
I01
sg5
I2
sg6
g473
sa(dp736
g1
I01
sg5
I5
sg6
g475
sa(dp737
g1
I01
sg5
I5
sg6
g5
sasg5
I3
sg6
S'socket'
p738
sa(dp739
g1
I01
sg5
I2
sg6
S'socketpair'
p740
sa(dp741
g1
I01
sg2
(lp742
(dp743
g1
I01
sg5
I5
sg6
g395
sa(dp744
g1
I01
sg5
I5
sg6
g557
sa(dp745
g1
I01
sg5
I5
sg6
g397
sa(dp746
g1
I01
sg5
I2
sg6
g399
sa(dp747
g1
I01
sg5
I5
sg6
g401
sa(dp748
g1
I01
sg5
I5
sg6
g562
sa(dp749
g1
I01
sg5
I5
sg6
g564
sa(dp750
g1
I01
sg5
I5
sg6
g403
sa(dp751
g1
I01
sg5
I5
sg6
g405
sa(dp752
g1
I01
sg5
I5
sg6
g568
sa(dp753
g1
I01
sg5
I2
sg6
g407
sa(dp754
g1
I01
sg5
I2
sg6
g409
sa(dp755
g1
I01
sg5
I2
sg6
g411
sa(dp756
g1
I01
sg5
I5
sg6
g413
sa(dp757
g1
I01
sg5
I5
sg6
g415
sa(dp758
g1
I01
sg5
I2
sg6
g575
sa(dp759
g1
I01
sg5
I2
sg6
g417
sa(dp760
g1
I01
sg5
I5
sg6
g419
sa(dp761
g1
I01
sg5
I2
sg6
g421
sa(dp762
g1
I01
sg5
I2
sg6
g580
sa(dp763
g1
I01
sg5
I5
sg6
g582
sa(dp764
g1
I01
sg5
I5
sg6
g584
sa(dp765
g1
I01
sg5
I5
sg6
g586
sa(dp766
g1
I01
sg5
I5
sg6
g588
sa(dp767
g1
I01
sg5
I5
sg6
g590
sa(dp768
g1
I01
sg5
I5
sg6
g592
sasg5
I3
sg6
g475
sasg6
S'_socket'
p769
s.