(dp0
S'doc'
p1
NsS'is_builtin'
p2
I01
sS'childs'
p3
(lp4
(dp5
g2
I01
sS'type'
p6
I5
sS'name'
p7
S'CODESIZE'
p8
sa(dp9
g2
I01
sg6
I5
sg7
S'MAGIC'
p10
sa(dp11
g2
I01
sg6
I5
sg7
S'MAXREPEAT'
p12
sa(dp13
g2
I01
sg6
I5
sg7
S'__doc__'
p14
sa(dp15
g2
I01
sg6
I5
sg7
S'__name__'
p16
sa(dp17
g2
I01
sg6
I5
sg7
S'__package__'
p18
sa(dp19
g1
Nsg2
I01
sg6
I2
sg7
S'compile'
p20
sa(dp21
g2
I01
sg6
I5
sg7
S'copyright'
p22
sa(dp23
g1
Nsg2
I01
sg6
I2
sg7
S'getcodesize'
p24
sa(dp25
g1
Nsg2
I01
sg6
I2
sg7
S'getlower'
p26
sasg7
S'_sre'
p27
s.