(dp0
S'is_builtin'
p1
I01
sS'childs'
p2
(lp3
(dp4
g1
I01
sg2
(lp5
(dp6
g1
I01
sS'type'
p7
I5
sS'name'
p8
S'__delattr__'
p9
sa(dp10
g1
I01
sg7
I5
sg8
S'__doc__'
p11
sa(dp12
g1
I01
sg7
I2
sg8
S'__format__'
p13
sa(dp14
g1
I01
sg7
I5
sg8
S'__getattribute__'
p15
sa(dp16
g1
I01
sg7
I5
sg8
S'__hash__'
p17
sa(dp18
g1
I01
sg7
I5
sg8
S'__init__'
p19
sa(dp20
g1
I01
sg7
I2
sg8
S'__new__'
p21
sa(dp22
g1
I01
sg7
I2
sg8
S'__reduce__'
p23
sa(dp24
g1
I01
sg7
I2
sg8
S'__reduce_ex__'
p25
sa(dp26
g1
I01
sg7
I5
sg8
S'__repr__'
p27
sa(dp28
g1
I01
sg7
I5
sg8
S'__setattr__'
p29
sa(dp30
g1
I01
sg7
I2
sg8
S'__sizeof__'
p31
sa(dp32
g1
I01
sg7
I5
sg8
S'__str__'
p33
sa(dp34
g1
I01
sg7
I2
sg8
S'__subclasshook__'
p35
sa(dp36
g1
I01
sg7
I5
sg8
S'format'
p37
sa(dp38
g1
I01
sg7
I2
sg8
S'pack'
p39
sa(dp40
g1
I01
sg7
I2
sg8
S'pack_into'
p41
sa(dp42
g1
I01
sg7
I5
sg8
S'size'
p43
sa(dp44
g1
I01
sg7
I2
sg8
S'unpack'
p45
sa(dp46
g1
I01
sg7
I2
sg8
S'unpack_from'
p47
sasg7
I3
sg8
S'Struct'
p48
sa(dp49
g1
I01
sg7
I5
sg8
S'_PY_STRUCT_FLOAT_COERCE'
p50
sa(dp51
g1
I01
sg7
I5
sg8
S'_PY_STRUCT_RANGE_CHECKING'
p52
sa(dp53
g1
I01
sg7
I5
sg8
g11
sa(dp54
g1
I01
sg7
I5
sg8
S'__name__'
p55
sa(dp56
g1
I01
sg7
I5
sg8
S'__package__'
p57
sa(dp58
g1
I01
sg7
I5
sg8
S'__version__'
p59
sa(dp60
g1
I01
sg7
I2
sg8
S'_clearcache'
p61
sa(dp62
g1
I01
sg7
I2
sg8
S'calcsize'
p63
sa(dp64
g1
I01
sg2
(lp65
(dp66
g1
I01
sg7
I5
sg8
g9
sa(dp67
g1
I01
sg7
I5
sg8
S'__dict__'
p68
sa(dp69
g1
I01
sg7
I5
sg8
g11
sa(dp70
g1
I01
sg7
I2
sg8
g13
sa(dp71
g1
I01
sg7
I5
sg8
g15
sa(dp72
g1
I01
sg7
I5
sg8
S'__getitem__'
p73
sa(dp74
g1
I01
sg7
I5
sg8
S'__getslice__'
p75
sa(dp76
g1
I01
sg7
I5
sg8
g17
sa(dp77
g1
I01
sg7
I5
sg8
g19
sa(dp78
g1
I01
sg7
I5
sg8
S'__module__'
p79
sa(dp80
g1
I01
sg7
I2
sg8
g21
sa(dp81
g1
I01
sg7
I2
sg8
g23
sa(dp82
g1
I01
sg7
I2
sg8
g25
sa(dp83
g1
I01
sg7
I5
sg8
g27
sa(dp84
g1
I01
sg7
I5
sg8
g29
sa(dp85
g1
I01
sg7
I2
sg8
S'__setstate__'
p86
sa(dp87
g1
I01
sg7
I2
sg8
g31
sa(dp88
g1
I01
sg7
I5
sg8
g33
sa(dp89
g1
I01
sg7
I2
sg8
g35
sa(dp90
g1
I01
sg7
I2
sg8
S'__unicode__'
p91
sa(dp92
g1
I01
sg7
I5
sg8
S'__weakref__'
p93
sa(dp94
g1
I01
sg7
I5
sg8
S'args'
p95
sa(dp96
g1
I01
sg7
I5
sg8
S'message'
p97
sasg7
I3
sg8
S'error'
p98
sa(dp99
g1
I01
sg7
I2
sg8
g39
sa(dp100
g1
I01
sg7
I2
sg8
g41
sa(dp101
g1
I01
sg7
I2
sg8
g45
sa(dp102
g1
I01
sg7
I2
sg8
g47
sasg8
S'_struct'
p103
s.