(dp0
S'is_builtin'
p1
I01
sS'childs'
p2
(lp3
(dp4
g1
I01
sS'type'
p5
I5
sS'name'
p6
S'CELL'
p7
sa(dp8
g1
I01
sg5
I5
sg6
S'DEF_BOUND'
p9
sa(dp10
g1
I01
sg5
I5
sg6
S'DEF_FREE'
p11
sa(dp12
g1
I01
sg5
I5
sg6
S'DEF_FREE_CLASS'
p13
sa(dp14
g1
I01
sg5
I5
sg6
S'DEF_GLOBAL'
p15
sa(dp16
g1
I01
sg5
I5
sg6
S'DEF_IMPORT'
p17
sa(dp18
g1
I01
sg5
I5
sg6
S'DEF_LOCAL'
p19
sa(dp20
g1
I01
sg5
I5
sg6
S'DEF_PARAM'
p21
sa(dp22
g1
I01
sg5
I5
sg6
S'FREE'
p23
sa(dp24
g1
I01
sg5
I5
sg6
S'GLOBAL_EXPLICIT'
p25
sa(dp26
g1
I01
sg5
I5
sg6
S'GLOBAL_IMPLICIT'
p27
sa(dp28
g1
I01
sg5
I5
sg6
S'LOCAL'
p29
sa(dp30
g1
I01
sg5
I5
sg6
S'OPT_BARE_EXEC'
p31
sa(dp32
g1
I01
sg5
I5
sg6
S'OPT_EXEC'
p33
sa(dp34
g1
I01
sg5
I5
sg6
S'OPT_IMPORT_STAR'
p35
sa(dp36
g1
I01
sg5
I5
sg6
S'SCOPE_MASK'
p37
sa(dp38
g1
I01
sg5
I5
sg6
S'SCOPE_OFF'
p39
sa(dp40
g1
I01
sg5
I5
sg6
S'TYPE_CLASS'
p41
sa(dp42
g1
I01
sg5
I5
sg6
S'TYPE_FUNCTION'
p43
sa(dp44
g1
I01
sg5
I5
sg6
S'TYPE_MODULE'
p45
sa(dp46
g1
I01
sg5
I5
sg6
S'USE'
p47
sa(dp48
g1
I01
sg5
I5
sg6
S'__doc__'
p49
sa(dp50
g1
I01
sg5
I5
sg6
S'__name__'
p51
sa(dp52
g1
I01
sg5
I5
sg6
S'__package__'
p53
sa(dp54
g1
I01
sg5
I2
sg6
S'symtable'
p55
sasg6
S'_symtable'
p56
s.