(dp0
S'doc'
p1
S'_warnings provides basic warning filtering support.\nIt is a helper module to speed up interpreter start-up.'
p2
sS'is_builtin'
p3
I01
sS'childs'
p4
(lp5
(dp6
g3
I01
sS'type'
p7
I5
sS'name'
p8
S'__doc__'
p9
sa(dp10
g3
I01
sg7
I5
sg8
S'__name__'
p11
sa(dp12
g3
I01
sg7
I5
sg8
S'__package__'
p13
sa(dp14
g3
I01
sg7
I5
sg8
S'default_action'
p15
sa(dp16
g3
I01
sg7
I5
sg8
S'filters'
p17
sa(dp18
g3
I01
sg7
I5
sg8
S'once_registry'
p19
sa(dp20
g1
S'Issue a warning, or maybe ignore it or raise an exception.'
p21
sg3
I01
sg7
I2
sg8
S'warn'
p22
sa(dp23
g1
S'Low-level inferface to warnings functionality.'
p24
sg3
I01
sg7
I2
sg8
S'warn_explicit'
p25
sasg8
S'_warnings'
p26
s.