(dp0
S'doc'
p1
S'Weak-reference support module.'
p2
sS'is_builtin'
p3
I01
sS'childs'
p4
(lp5
(dp6
g1
Nsg3
I01
sg4
(lp7
(dp8
g3
I01
sS'type'
p9
I5
sS'name'
p10
S'__abs__'
p11
sa(dp12
g3
I01
sg9
I5
sg10
S'__add__'
p13
sa(dp14
g3
I01
sg9
I5
sg10
S'__and__'
p15
sa(dp16
g3
I01
sg9
I5
sg10
S'__call__'
p17
sa(dp18
g3
I01
sg9
I5
sg10
S'__cmp__'
p19
sa(dp20
g3
I01
sg9
I5
sg10
S'__contains__'
p21
sa(dp22
g3
I01
sg9
I5
sg10
S'__delattr__'
p23
sa(dp24
g3
I01
sg9
I5
sg10
S'__delitem__'
p25
sa(dp26
g3
I01
sg9
I5
sg10
S'__delslice__'
p27
sa(dp28
g3
I01
sg9
I5
sg10
S'__div__'
p29
sa(dp30
g3
I01
sg9
I5
sg10
S'__divmod__'
p31
sa(dp32
g3
I01
sg9
I5
sg10
S'__doc__'
p33
sa(dp34
g3
I01
sg9
I5
sg10
S'__float__'
p35
sa(dp36
g3
I01
sg9
I5
sg10
S'__floordiv__'
p37
sa(dp38
g1
S'default object formatter'
p39
sg3
I01
sg9
I2
sg10
S'__format__'
p40
sa(dp41
g3
I01
sg9
I5
sg10
S'__getattribute__'
p42
sa(dp43
g3
I01
sg9
I5
sg10
S'__getitem__'
p44
sa(dp45
g3
I01
sg9
I5
sg10
S'__getslice__'
p46
sa(dp47
g3
I01
sg9
I5
sg10
S'__hash__'
p48
sa(dp49
g3
I01
sg9
I5
sg10
S'__iadd__'
p50
sa(dp51
g3
I01
sg9
I5
sg10
S'__iand__'
p52
sa(dp53
g3
I01
sg9
I5
sg10
S'__idiv__'
p54
sa(dp55
g3
I01
sg9
I5
sg10
S'__ifloordiv__'
p56
sa(dp57
g3
I01
sg9
I5
sg10
S'__ilshift__'
p58
sa(dp59
g3
I01
sg9
I5
sg10
S'__imod__'
p60
sa(dp61
g3
I01
sg9
I5
sg10
S'__imul__'
p62
sa(dp63
g3
I01
sg9
I5
sg10
S'__index__'
p64
sa(dp65
g3
I01
sg9
I5
sg10
S'__init__'
p66
sa(dp67
g3
I01
sg9
I5
sg10
S'__int__'
p68
sa(dp69
g3
I01
sg9
I5
sg10
S'__invert__'
p70
sa(dp71
g3
I01
sg9
I5
sg10
S'__ior__'
p72
sa(dp73
g3
I01
sg9
I5
sg10
S'__ipow__'
p74
sa(dp75
g3
I01
sg9
I5
sg10
S'__irshift__'
p76
sa(dp77
g3
I01
sg9
I5
sg10
S'__isub__'
p78
sa(dp79
g3
I01
sg9
I5
sg10
S'__iter__'
p80
sa(dp81
g3
I01
sg9
I5
sg10
S'__itruediv__'
p82
sa(dp83
g3
I01
sg9
I5
sg10
S'__ixor__'
p84
sa(dp85
g3
I01
sg9
I5
sg10
S'__len__'
p86
sa(dp87
g3
I01
sg9
I5
sg10
S'__long__'
p88
sa(dp89
g3
I01
sg9
I5
sg10
S'__lshift__'
p90
sa(dp91
g3
I01
sg9
I5
sg10
S'__mod__'
p92
sa(dp93
g3
I01
sg9
I5
sg10
S'__mul__'
p94
sa(dp95
g3
I01
sg9
I5
sg10
S'__neg__'
p96
sa(dp97
g1
S'T.__new__(S, ...) -> a new object with type S, a subtype of T'
p98
sg3
I01
sg9
I2
sg10
S'__new__'
p99
sa(dp100
g3
I01
sg9
I5
sg10
S'__nonzero__'
p101
sa(dp102
g3
I01
sg9
I5
sg10
S'__or__'
p103
sa(dp104
g3
I01
sg9
I5
sg10
S'__pos__'
p105
sa(dp106
g3
I01
sg9
I5
sg10
S'__pow__'
p107
sa(dp108
g3
I01
sg9
I5
sg10
S'__radd__'
p109
sa(dp110
g3
I01
sg9
I5
sg10
S'__rand__'
p111
sa(dp112
g3
I01
sg9
I5
sg10
S'__rdiv__'
p113
sa(dp114
g3
I01
sg9
I5
sg10
S'__rdivmod__'
p115
sa(dp116
g1
S'helper for pickle'
p117
sg3
I01
sg9
I2
sg10
S'__reduce__'
p118
sa(dp119
g1
S'helper for pickle'
p120
sg3
I01
sg9
I2
sg10
S'__reduce_ex__'
p121
sa(dp122
g3
I01
sg9
I5
sg10
S'__repr__'
p123
sa(dp124
g3
I01
sg9
I5
sg10
S'__rfloordiv__'
p125
sa(dp126
g3
I01
sg9
I5
sg10
S'__rlshift__'
p127
sa(dp128
g3
I01
sg9
I5
sg10
S'__rmod__'
p129
sa(dp130
g3
I01
sg9
I5
sg10
S'__rmul__'
p131
sa(dp132
g3
I01
sg9
I5
sg10
S'__ror__'
p133
sa(dp134
g3
I01
sg9
I5
sg10
S'__rpow__'
p135
sa(dp136
g3
I01
sg9
I5
sg10
S'__rrshift__'
p137
sa(dp138
g3
I01
sg9
I5
sg10
S'__rshift__'
p139
sa(dp140
g3
I01
sg9
I5
sg10
S'__rsub__'
p141
sa(dp142
g3
I01
sg9
I5
sg10
S'__rtruediv__'
p143
sa(dp144
g3
I01
sg9
I5
sg10
S'__rxor__'
p145
sa(dp146
g3
I01
sg9
I5
sg10
S'__setattr__'
p147
sa(dp148
g3
I01
sg9
I5
sg10
S'__setitem__'
p149
sa(dp150
g3
I01
sg9
I5
sg10
S'__setslice__'
p151
sa(dp152
g1
S'__sizeof__() -> int\nsize of object in memory, in bytes'
p153
sg3
I01
sg9
I2
sg10
S'__sizeof__'
p154
sa(dp155
g3
I01
sg9
I5
sg10
S'__str__'
p156
sa(dp157
g3
I01
sg9
I5
sg10
S'__sub__'
p158
sa(dp159
g1
S'Abstract classes can override this to customize issubclass().\n\nThis is invoked early on by abc.ABCMeta.__subclasscheck__().\nIt should return True, False or NotImplemented.  If it returns\nNotImplemented, the normal algorithm is used.  Otherwise, it\noverrides the normal algorithm (and the outcome is cached).\n'
p160
sg3
I01
sg9
I2
sg10
S'__subclasshook__'
p161
sa(dp162
g3
I01
sg9
I5
sg10
S'__truediv__'
p163
sa(dp164
g3
I01
sg9
I5
sg10
S'__xor__'
p165
sa(dp166
g3
I01
sg9
I5
sg10
S'next'
p167
sasg9
I3
sg10
S'CallableProxyType'
p168
sa(dp169
g1
Nsg3
I01
sg4
(lp170
(dp171
g3
I01
sg9
I5
sg10
g11
sa(dp172
g3
I01
sg9
I5
sg10
g13
sa(dp173
g3
I01
sg9
I5
sg10
g15
sa(dp174
g3
I01
sg9
I5
sg10
g19
sa(dp175
g3
I01
sg9
I5
sg10
g21
sa(dp176
g3
I01
sg9
I5
sg10
g23
sa(dp177
g3
I01
sg9
I5
sg10
g25
sa(dp178
g3
I01
sg9
I5
sg10
g27
sa(dp179
g3
I01
sg9
I5
sg10
g29
sa(dp180
g3
I01
sg9
I5
sg10
g31
sa(dp181
g3
I01
sg9
I5
sg10
g33
sa(dp182
g3
I01
sg9
I5
sg10
g35
sa(dp183
g3
I01
sg9
I5
sg10
g37
sa(dp184
g1
S'default object formatter'
p185
sg3
I01
sg9
I2
sg10
g40
sa(dp186
g3
I01
sg9
I5
sg10
g42
sa(dp187
g3
I01
sg9
I5
sg10
g44
sa(dp188
g3
I01
sg9
I5
sg10
g46
sa(dp189
g3
I01
sg9
I5
sg10
g48
sa(dp190
g3
I01
sg9
I5
sg10
g50
sa(dp191
g3
I01
sg9
I5
sg10
g52
sa(dp192
g3
I01
sg9
I5
sg10
g54
sa(dp193
g3
I01
sg9
I5
sg10
g56
sa(dp194
g3
I01
sg9
I5
sg10
g58
sa(dp195
g3
I01
sg9
I5
sg10
g60
sa(dp196
g3
I01
sg9
I5
sg10
g62
sa(dp197
g3
I01
sg9
I5
sg10
g64
sa(dp198
g3
I01
sg9
I5
sg10
g66
sa(dp199
g3
I01
sg9
I5
sg10
g68
sa(dp200
g3
I01
sg9
I5
sg10
g70
sa(dp201
g3
I01
sg9
I5
sg10
g72
sa(dp202
g3
I01
sg9
I5
sg10
g74
sa(dp203
g3
I01
sg9
I5
sg10
g76
sa(dp204
g3
I01
sg9
I5
sg10
g78
sa(dp205
g3
I01
sg9
I5
sg10
g80
sa(dp206
g3
I01
sg9
I5
sg10
g82
sa(dp207
g3
I01
sg9
I5
sg10
g84
sa(dp208
g3
I01
sg9
I5
sg10
g86
sa(dp209
g3
I01
sg9
I5
sg10
g88
sa(dp210
g3
I01
sg9
I5
sg10
g90
sa(dp211
g3
I01
sg9
I5
sg10
g92
sa(dp212
g3
I01
sg9
I5
sg10
g94
sa(dp213
g3
I01
sg9
I5
sg10
g96
sa(dp214
g1
S'T.__new__(S, ...) -> a new object with type S, a subtype of T'
p215
sg3
I01
sg9
I2
sg10
g99
sa(dp216
g3
I01
sg9
I5
sg10
g101
sa(dp217
g3
I01
sg9
I5
sg10
g103
sa(dp218
g3
I01
sg9
I5
sg10
g105
sa(dp219
g3
I01
sg9
I5
sg10
g107
sa(dp220
g3
I01
sg9
I5
sg10
g109
sa(dp221
g3
I01
sg9
I5
sg10
g111
sa(dp222
g3
I01
sg9
I5
sg10
g113
sa(dp223
g3
I01
sg9
I5
sg10
g115
sa(dp224
g1
S'helper for pickle'
p225
sg3
I01
sg9
I2
sg10
g118
sa(dp226
g1
S'helper for pickle'
p227
sg3
I01
sg9
I2
sg10
g121
sa(dp228
g3
I01
sg9
I5
sg10
g123
sa(dp229
g3
I01
sg9
I5
sg10
g125
sa(dp230
g3
I01
sg9
I5
sg10
g127
sa(dp231
g3
I01
sg9
I5
sg10
g129
sa(dp232
g3
I01
sg9
I5
sg10
g131
sa(dp233
g3
I01
sg9
I5
sg10
g133
sa(dp234
g3
I01
sg9
I5
sg10
g135
sa(dp235
g3
I01
sg9
I5
sg10
g137
sa(dp236
g3
I01
sg9
I5
sg10
g139
sa(dp237
g3
I01
sg9
I5
sg10
g141
sa(dp238
g3
I01
sg9
I5
sg10
g143
sa(dp239
g3
I01
sg9
I5
sg10
g145
sa(dp240
g3
I01
sg9
I5
sg10
g147
sa(dp241
g3
I01
sg9
I5
sg10
g149
sa(dp242
g3
I01
sg9
I5
sg10
g151
sa(dp243
g1
S'__sizeof__() -> int\nsize of object in memory, in bytes'
p244
sg3
I01
sg9
I2
sg10
g154
sa(dp245
g3
I01
sg9
I5
sg10
g156
sa(dp246
g3
I01
sg9
I5
sg10
g158
sa(dp247
g1
S'Abstract classes can override this to customize issubclass().\n\nThis is invoked early on by abc.ABCMeta.__subclasscheck__().\nIt should return True, False or NotImplemented.  If it returns\nNotImplemented, the normal algorithm is used.  Otherwise, it\noverrides the normal algorithm (and the outcome is cached).\n'
p248
sg3
I01
sg9
I2
sg10
g161
sa(dp249
g3
I01
sg9
I5
sg10
g163
sa(dp250
g1
Nsg3
I01
sg9
I2
sg10
S'__unicode__'
p251
sa(dp252
g3
I01
sg9
I5
sg10
g165
sa(dp253
g3
I01
sg9
I5
sg10
g167
sasg9
I3
sg10
S'ProxyType'
p254
sa(dp255
g1
Nsg3
I01
sg4
(lp256
(dp257
g3
I01
sg9
I5
sg10
g17
sa(dp258
g3
I01
sg9
I5
sg10
g23
sa(dp259
g3
I01
sg9
I5
sg10
g33
sa(dp260
g3
I01
sg9
I5
sg10
S'__eq__'
p261
sa(dp262
g1
S'default object formatter'
p263
sg3
I01
sg9
I2
sg10
g40
sa(dp264
g3
I01
sg9
I5
sg10
S'__ge__'
p265
sa(dp266
g3
I01
sg9
I5
sg10
g42
sa(dp267
g3
I01
sg9
I5
sg10
S'__gt__'
p268
sa(dp269
g3
I01
sg9
I5
sg10
g48
sa(dp270
g3
I01
sg9
I5
sg10
g66
sa(dp271
g3
I01
sg9
I5
sg10
S'__le__'
p272
sa(dp273
g3
I01
sg9
I5
sg10
S'__lt__'
p274
sa(dp275
g3
I01
sg9
I5
sg10
S'__ne__'
p276
sa(dp277
g1
S'T.__new__(S, ...) -> a new object with type S, a subtype of T'
p278
sg3
I01
sg9
I2
sg10
g99
sa(dp279
g1
S'helper for pickle'
p280
sg3
I01
sg9
I2
sg10
g118
sa(dp281
g1
S'helper for pickle'
p282
sg3
I01
sg9
I2
sg10
g121
sa(dp283
g3
I01
sg9
I5
sg10
g123
sa(dp284
g3
I01
sg9
I5
sg10
g147
sa(dp285
g1
S'__sizeof__() -> int\nsize of object in memory, in bytes'
p286
sg3
I01
sg9
I2
sg10
g154
sa(dp287
g3
I01
sg9
I5
sg10
g156
sa(dp288
g1
S'Abstract classes can override this to customize issubclass().\n\nThis is invoked early on by abc.ABCMeta.__subclasscheck__().\nIt should return True, False or NotImplemented.  If it returns\nNotImplemented, the normal algorithm is used.  Otherwise, it\noverrides the normal algorithm (and the outcome is cached).\n'
p289
sg3
I01
sg9
I2
sg10
g161
sasg9
I3
sg10
S'ReferenceType'
p290
sa(dp291
g3
I01
sg9
I5
sg10
g33
sa(dp292
g3
I01
sg9
I5
sg10
S'__name__'
p293
sa(dp294
g3
I01
sg9
I5
sg10
S'__package__'
p295
sa(dp296
g1
S"getweakrefcount(object) -- return the number of weak references\nto 'object'."
p297
sg3
I01
sg9
I2
sg10
S'getweakrefcount'
p298
sa(dp299
g1
S"getweakrefs(object) -- return a list of all weak reference objects\nthat point to 'object'."
p300
sg3
I01
sg9
I2
sg10
S'getweakrefs'
p301
sa(dp302
g1
S"proxy(object[, callback]) -- create a proxy object that weakly\nreferences 'object'.  'callback', if given, is called with a\nreference to the proxy when 'object' is about to be finalized."
p303
sg3
I01
sg9
I2
sg10
S'proxy'
p304
sa(dp305
g1
Nsg3
I01
sg4
(lp306
(dp307
g3
I01
sg9
I5
sg10
g17
sa(dp308
g3
I01
sg9
I5
sg10
g23
sa(dp309
g3
I01
sg9
I5
sg10
g33
sa(dp310
g3
I01
sg9
I5
sg10
g261
sa(dp311
g1
S'default object formatter'
p312
sg3
I01
sg9
I2
sg10
g40
sa(dp313
g3
I01
sg9
I5
sg10
g265
sa(dp314
g3
I01
sg9
I5
sg10
g42
sa(dp315
g3
I01
sg9
I5
sg10
g268
sa(dp316
g3
I01
sg9
I5
sg10
g48
sa(dp317
g3
I01
sg9
I5
sg10
g66
sa(dp318
g3
I01
sg9
I5
sg10
g272
sa(dp319
g3
I01
sg9
I5
sg10
g274
sa(dp320
g3
I01
sg9
I5
sg10
g276
sa(dp321
g1
S'T.__new__(S, ...) -> a new object with type S, a subtype of T'
p322
sg3
I01
sg9
I2
sg10
g99
sa(dp323
g1
S'helper for pickle'
p324
sg3
I01
sg9
I2
sg10
g118
sa(dp325
g1
S'helper for pickle'
p326
sg3
I01
sg9
I2
sg10
g121
sa(dp327
g3
I01
sg9
I5
sg10
g123
sa(dp328
g3
I01
sg9
I5
sg10
g147
sa(dp329
g1
S'__sizeof__() -> int\nsize of object in memory, in bytes'
p330
sg3
I01
sg9
I2
sg10
g154
sa(dp331
g3
I01
sg9
I5
sg10
g156
sa(dp332
g1
S'Abstract classes can override this to customize issubclass().\n\nThis is invoked early on by abc.ABCMeta.__subclasscheck__().\nIt should return True, False or NotImplemented.  If it returns\nNotImplemented, the normal algorithm is used.  Otherwise, it\noverrides the normal algorithm (and the outcome is cached).\n'
p333
sg3
I01
sg9
I2
sg10
g161
sasg9
I3
sg10
S'ref'
p334
sasg10
S'_weakref'
p335
s.