(dp0
S'is_builtin'
p1
I01
sS'childs'
p2
(lp3
(dp4
g1
I01
sg2
(lp5
(dp6
g1
I01
sS'type'
p7
I5
sS'name'
p8
S'__abs__'
p9
sa(dp10
g1
I01
sg7
I5
sg8
S'__add__'
p11
sa(dp12
g1
I01
sg7
I5
sg8
S'__and__'
p13
sa(dp14
g1
I01
sg7
I5
sg8
S'__call__'
p15
sa(dp16
g1
I01
sg7
I5
sg8
S'__cmp__'
p17
sa(dp18
g1
I01
sg7
I5
sg8
S'__contains__'
p19
sa(dp20
g1
I01
sg7
I5
sg8
S'__delattr__'
p21
sa(dp22
g1
I01
sg7
I5
sg8
S'__delitem__'
p23
sa(dp24
g1
I01
sg7
I5
sg8
S'__delslice__'
p25
sa(dp26
g1
I01
sg7
I5
sg8
S'__div__'
p27
sa(dp28
g1
I01
sg7
I5
sg8
S'__divmod__'
p29
sa(dp30
g1
I01
sg7
I5
sg8
S'__doc__'
p31
sa(dp32
g1
I01
sg7
I5
sg8
S'__float__'
p33
sa(dp34
g1
I01
sg7
I5
sg8
S'__floordiv__'
p35
sa(dp36
g1
I01
sg7
I2
sg8
S'__format__'
p37
sa(dp38
g1
I01
sg7
I5
sg8
S'__getattribute__'
p39
sa(dp40
g1
I01
sg7
I5
sg8
S'__getitem__'
p41
sa(dp42
g1
I01
sg7
I5
sg8
S'__getslice__'
p43
sa(dp44
g1
I01
sg7
I5
sg8
S'__hash__'
p45
sa(dp46
g1
I01
sg7
I5
sg8
S'__iadd__'
p47
sa(dp48
g1
I01
sg7
I5
sg8
S'__iand__'
p49
sa(dp50
g1
I01
sg7
I5
sg8
S'__idiv__'
p51
sa(dp52
g1
I01
sg7
I5
sg8
S'__ifloordiv__'
p53
sa(dp54
g1
I01
sg7
I5
sg8
S'__ilshift__'
p55
sa(dp56
g1
I01
sg7
I5
sg8
S'__imod__'
p57
sa(dp58
g1
I01
sg7
I5
sg8
S'__imul__'
p59
sa(dp60
g1
I01
sg7
I5
sg8
S'__index__'
p61
sa(dp62
g1
I01
sg7
I5
sg8
S'__init__'
p63
sa(dp64
g1
I01
sg7
I5
sg8
S'__int__'
p65
sa(dp66
g1
I01
sg7
I5
sg8
S'__invert__'
p67
sa(dp68
g1
I01
sg7
I5
sg8
S'__ior__'
p69
sa(dp70
g1
I01
sg7
I5
sg8
S'__ipow__'
p71
sa(dp72
g1
I01
sg7
I5
sg8
S'__irshift__'
p73
sa(dp74
g1
I01
sg7
I5
sg8
S'__isub__'
p75
sa(dp76
g1
I01
sg7
I5
sg8
S'__iter__'
p77
sa(dp78
g1
I01
sg7
I5
sg8
S'__itruediv__'
p79
sa(dp80
g1
I01
sg7
I5
sg8
S'__ixor__'
p81
sa(dp82
g1
I01
sg7
I5
sg8
S'__len__'
p83
sa(dp84
g1
I01
sg7
I5
sg8
S'__long__'
p85
sa(dp86
g1
I01
sg7
I5
sg8
S'__lshift__'
p87
sa(dp88
g1
I01
sg7
I5
sg8
S'__mod__'
p89
sa(dp90
g1
I01
sg7
I5
sg8
S'__mul__'
p91
sa(dp92
g1
I01
sg7
I5
sg8
S'__neg__'
p93
sa(dp94
g1
I01
sg7
I2
sg8
S'__new__'
p95
sa(dp96
g1
I01
sg7
I5
sg8
S'__nonzero__'
p97
sa(dp98
g1
I01
sg7
I5
sg8
S'__or__'
p99
sa(dp100
g1
I01
sg7
I5
sg8
S'__pos__'
p101
sa(dp102
g1
I01
sg7
I5
sg8
S'__pow__'
p103
sa(dp104
g1
I01
sg7
I5
sg8
S'__radd__'
p105
sa(dp106
g1
I01
sg7
I5
sg8
S'__rand__'
p107
sa(dp108
g1
I01
sg7
I5
sg8
S'__rdiv__'
p109
sa(dp110
g1
I01
sg7
I5
sg8
S'__rdivmod__'
p111
sa(dp112
g1
I01
sg7
I2
sg8
S'__reduce__'
p113
sa(dp114
g1
I01
sg7
I2
sg8
S'__reduce_ex__'
p115
sa(dp116
g1
I01
sg7
I5
sg8
S'__repr__'
p117
sa(dp118
g1
I01
sg7
I5
sg8
S'__rfloordiv__'
p119
sa(dp120
g1
I01
sg7
I5
sg8
S'__rlshift__'
p121
sa(dp122
g1
I01
sg7
I5
sg8
S'__rmod__'
p123
sa(dp124
g1
I01
sg7
I5
sg8
S'__rmul__'
p125
sa(dp126
g1
I01
sg7
I5
sg8
S'__ror__'
p127
sa(dp128
g1
I01
sg7
I5
sg8
S'__rpow__'
p129
sa(dp130
g1
I01
sg7
I5
sg8
S'__rrshift__'
p131
sa(dp132
g1
I01
sg7
I5
sg8
S'__rshift__'
p133
sa(dp134
g1
I01
sg7
I5
sg8
S'__rsub__'
p135
sa(dp136
g1
I01
sg7
I5
sg8
S'__rtruediv__'
p137
sa(dp138
g1
I01
sg7
I5
sg8
S'__rxor__'
p139
sa(dp140
g1
I01
sg7
I5
sg8
S'__setattr__'
p141
sa(dp142
g1
I01
sg7
I5
sg8
S'__setitem__'
p143
sa(dp144
g1
I01
sg7
I5
sg8
S'__setslice__'
p145
sa(dp146
g1
I01
sg7
I2
sg8
S'__sizeof__'
p147
sa(dp148
g1
I01
sg7
I5
sg8
S'__str__'
p149
sa(dp150
g1
I01
sg7
I5
sg8
S'__sub__'
p151
sa(dp152
g1
I01
sg7
I2
sg8
S'__subclasshook__'
p153
sa(dp154
g1
I01
sg7
I5
sg8
S'__truediv__'
p155
sa(dp156
g1
I01
sg7
I5
sg8
S'__xor__'
p157
sa(dp158
g1
I01
sg7
I5
sg8
S'next'
p159
sasg7
I3
sg8
S'CallableProxyType'
p160
sa(dp161
g1
I01
sg2
(lp162
(dp163
g1
I01
sg7
I5
sg8
g9
sa(dp164
g1
I01
sg7
I5
sg8
g11
sa(dp165
g1
I01
sg7
I5
sg8
g13
sa(dp166
g1
I01
sg7
I5
sg8
g17
sa(dp167
g1
I01
sg7
I5
sg8
g19
sa(dp168
g1
I01
sg7
I5
sg8
g21
sa(dp169
g1
I01
sg7
I5
sg8
g23
sa(dp170
g1
I01
sg7
I5
sg8
g25
sa(dp171
g1
I01
sg7
I5
sg8
g27
sa(dp172
g1
I01
sg7
I5
sg8
g29
sa(dp173
g1
I01
sg7
I5
sg8
g31
sa(dp174
g1
I01
sg7
I5
sg8
g33
sa(dp175
g1
I01
sg7
I5
sg8
g35
sa(dp176
g1
I01
sg7
I2
sg8
g37
sa(dp177
g1
I01
sg7
I5
sg8
g39
sa(dp178
g1
I01
sg7
I5
sg8
g41
sa(dp179
g1
I01
sg7
I5
sg8
g43
sa(dp180
g1
I01
sg7
I5
sg8
g45
sa(dp181
g1
I01
sg7
I5
sg8
g47
sa(dp182
g1
I01
sg7
I5
sg8
g49
sa(dp183
g1
I01
sg7
I5
sg8
g51
sa(dp184
g1
I01
sg7
I5
sg8
g53
sa(dp185
g1
I01
sg7
I5
sg8
g55
sa(dp186
g1
I01
sg7
I5
sg8
g57
sa(dp187
g1
I01
sg7
I5
sg8
g59
sa(dp188
g1
I01
sg7
I5
sg8
g61
sa(dp189
g1
I01
sg7
I5
sg8
g63
sa(dp190
g1
I01
sg7
I5
sg8
g65
sa(dp191
g1
I01
sg7
I5
sg8
g67
sa(dp192
g1
I01
sg7
I5
sg8
g69
sa(dp193
g1
I01
sg7
I5
sg8
g71
sa(dp194
g1
I01
sg7
I5
sg8
g73
sa(dp195
g1
I01
sg7
I5
sg8
g75
sa(dp196
g1
I01
sg7
I5
sg8
g77
sa(dp197
g1
I01
sg7
I5
sg8
g79
sa(dp198
g1
I01
sg7
I5
sg8
g81
sa(dp199
g1
I01
sg7
I5
sg8
g83
sa(dp200
g1
I01
sg7
I5
sg8
g85
sa(dp201
g1
I01
sg7
I5
sg8
g87
sa(dp202
g1
I01
sg7
I5
sg8
g89
sa(dp203
g1
I01
sg7
I5
sg8
g91
sa(dp204
g1
I01
sg7
I5
sg8
g93
sa(dp205
g1
I01
sg7
I2
sg8
g95
sa(dp206
g1
I01
sg7
I5
sg8
g97
sa(dp207
g1
I01
sg7
I5
sg8
g99
sa(dp208
g1
I01
sg7
I5
sg8
g101
sa(dp209
g1
I01
sg7
I5
sg8
g103
sa(dp210
g1
I01
sg7
I5
sg8
g105
sa(dp211
g1
I01
sg7
I5
sg8
g107
sa(dp212
g1
I01
sg7
I5
sg8
g109
sa(dp213
g1
I01
sg7
I5
sg8
g111
sa(dp214
g1
I01
sg7
I2
sg8
g113
sa(dp215
g1
I01
sg7
I2
sg8
g115
sa(dp216
g1
I01
sg7
I5
sg8
g117
sa(dp217
g1
I01
sg7
I5
sg8
g119
sa(dp218
g1
I01
sg7
I5
sg8
g121
sa(dp219
g1
I01
sg7
I5
sg8
g123
sa(dp220
g1
I01
sg7
I5
sg8
g125
sa(dp221
g1
I01
sg7
I5
sg8
g127
sa(dp222
g1
I01
sg7
I5
sg8
g129
sa(dp223
g1
I01
sg7
I5
sg8
g131
sa(dp224
g1
I01
sg7
I5
sg8
g133
sa(dp225
g1
I01
sg7
I5
sg8
g135
sa(dp226
g1
I01
sg7
I5
sg8
g137
sa(dp227
g1
I01
sg7
I5
sg8
g139
sa(dp228
g1
I01
sg7
I5
sg8
g141
sa(dp229
g1
I01
sg7
I5
sg8
g143
sa(dp230
g1
I01
sg7
I5
sg8
g145
sa(dp231
g1
I01
sg7
I2
sg8
g147
sa(dp232
g1
I01
sg7
I5
sg8
g149
sa(dp233
g1
I01
sg7
I5
sg8
g151
sa(dp234
g1
I01
sg7
I2
sg8
g153
sa(dp235
g1
I01
sg7
I5
sg8
g155
sa(dp236
g1
I01
sg7
I2
sg8
S'__unicode__'
p237
sa(dp238
g1
I01
sg7
I5
sg8
g157
sa(dp239
g1
I01
sg7
I5
sg8
g159
sasg7
I3
sg8
S'ProxyType'
p240
sa(dp241
g1
I01
sg2
(lp242
(dp243
g1
I01
sg7
I5
sg8
g15
sa(dp244
g1
I01
sg7
I5
sg8
g21
sa(dp245
g1
I01
sg7
I5
sg8
g31
sa(dp246
g1
I01
sg7
I5
sg8
S'__eq__'
p247
sa(dp248
g1
I01
sg7
I2
sg8
g37
sa(dp249
g1
I01
sg7
I5
sg8
S'__ge__'
p250
sa(dp251
g1
I01
sg7
I5
sg8
g39
sa(dp252
g1
I01
sg7
I5
sg8
S'__gt__'
p253
sa(dp254
g1
I01
sg7
I5
sg8
g45
sa(dp255
g1
I01
sg7
I5
sg8
g63
sa(dp256
g1
I01
sg7
I5
sg8
S'__le__'
p257
sa(dp258
g1
I01
sg7
I5
sg8
S'__lt__'
p259
sa(dp260
g1
I01
sg7
I5
sg8
S'__ne__'
p261
sa(dp262
g1
I01
sg7
I2
sg8
g95
sa(dp263
g1
I01
sg7
I2
sg8
g113
sa(dp264
g1
I01
sg7
I2
sg8
g115
sa(dp265
g1
I01
sg7
I5
sg8
g117
sa(dp266
g1
I01
sg7
I5
sg8
g141
sa(dp267
g1
I01
sg7
I2
sg8
g147
sa(dp268
g1
I01
sg7
I5
sg8
g149
sa(dp269
g1
I01
sg7
I2
sg8
g153
sasg7
I3
sg8
S'ReferenceType'
p270
sa(dp271
g1
I01
sg7
I5
sg8
g31
sa(dp272
g1
I01
sg7
I5
sg8
S'__name__'
p273
sa(dp274
g1
I01
sg7
I5
sg8
S'__package__'
p275
sa(dp276
g1
I01
sg7
I2
sg8
S'getweakrefcount'
p277
sa(dp278
g1
I01
sg7
I2
sg8
S'getweakrefs'
p279
sa(dp280
g1
I01
sg7
I2
sg8
S'proxy'
p281
sa(dp282
g1
I01
sg2
(lp283
(dp284
g1
I01
sg7
I5
sg8
g15
sa(dp285
g1
I01
sg7
I5
sg8
g21
sa(dp286
g1
I01
sg7
I5
sg8
g31
sa(dp287
g1
I01
sg7
I5
sg8
g247
sa(dp288
g1
I01
sg7
I2
sg8
g37
sa(dp289
g1
I01
sg7
I5
sg8
g250
sa(dp290
g1
I01
sg7
I5
sg8
g39
sa(dp291
g1
I01
sg7
I5
sg8
g253
sa(dp292
g1
I01
sg7
I5
sg8
g45
sa(dp293
g1
I01
sg7
I5
sg8
g63
sa(dp294
g1
I01
sg7
I5
sg8
g257
sa(dp295
g1
I01
sg7
I5
sg8
g259
sa(dp296
g1
I01
sg7
I5
sg8
g261
sa(dp297
g1
I01
sg7
I2
sg8
g95
sa(dp298
g1
I01
sg7
I2
sg8
g113
sa(dp299
g1
I01
sg7
I2
sg8
g115
sa(dp300
g1
I01
sg7
I5
sg8
g117
sa(dp301
g1
I01
sg7
I5
sg8
g141
sa(dp302
g1
I01
sg7
I2
sg8
g147
sa(dp303
g1
I01
sg7
I5
sg8
g149
sa(dp304
g1
I01
sg7
I2
sg8
g153
sasg7
I3
sg8
S'ref'
p305
sasg8
S'_weakref'
p306
s.