(dp0
S'is_builtin'
p1
I01
sS'childs'
p2
(lp3
(dp4
g1
I01
sg2
(lp5
(dp6
g1
I01
sS'type'
p7
I5
sS'name'
p8
S'__add__'
p9
sa(dp10
g1
I01
sg7
I5
sg8
S'__contains__'
p11
sa(dp12
g1
I01
sg7
I2
sg8
S'__copy__'
p13
sa(dp14
g1
I01
sg7
I2
sg8
S'__deepcopy__'
p15
sa(dp16
g1
I01
sg7
I5
sg8
S'__delattr__'
p17
sa(dp18
g1
I01
sg7
I5
sg8
S'__delitem__'
p19
sa(dp20
g1
I01
sg7
I5
sg8
S'__delslice__'
p21
sa(dp22
g1
I01
sg7
I5
sg8
S'__doc__'
p23
sa(dp24
g1
I01
sg7
I5
sg8
S'__eq__'
p25
sa(dp26
g1
I01
sg7
I2
sg8
S'__format__'
p27
sa(dp28
g1
I01
sg7
I5
sg8
S'__ge__'
p29
sa(dp30
g1
I01
sg7
I5
sg8
S'__getattribute__'
p31
sa(dp32
g1
I01
sg7
I5
sg8
S'__getitem__'
p33
sa(dp34
g1
I01
sg7
I5
sg8
S'__getslice__'
p35
sa(dp36
g1
I01
sg7
I5
sg8
S'__gt__'
p37
sa(dp38
g1
I01
sg7
I5
sg8
S'__hash__'
p39
sa(dp40
g1
I01
sg7
I5
sg8
S'__iadd__'
p41
sa(dp42
g1
I01
sg7
I5
sg8
S'__imul__'
p43
sa(dp44
g1
I01
sg7
I5
sg8
S'__init__'
p45
sa(dp46
g1
I01
sg7
I5
sg8
S'__iter__'
p47
sa(dp48
g1
I01
sg7
I5
sg8
S'__le__'
p49
sa(dp50
g1
I01
sg7
I5
sg8
S'__len__'
p51
sa(dp52
g1
I01
sg7
I5
sg8
S'__lt__'
p53
sa(dp54
g1
I01
sg7
I5
sg8
S'__mul__'
p55
sa(dp56
g1
I01
sg7
I5
sg8
S'__ne__'
p57
sa(dp58
g1
I01
sg7
I2
sg8
S'__new__'
p59
sa(dp60
g1
I01
sg7
I2
sg8
S'__reduce__'
p61
sa(dp62
g1
I01
sg7
I2
sg8
S'__reduce_ex__'
p63
sa(dp64
g1
I01
sg7
I5
sg8
S'__repr__'
p65
sa(dp66
g1
I01
sg7
I5
sg8
S'__rmul__'
p67
sa(dp68
g1
I01
sg7
I5
sg8
S'__setattr__'
p69
sa(dp70
g1
I01
sg7
I5
sg8
S'__setitem__'
p71
sa(dp72
g1
I01
sg7
I5
sg8
S'__setslice__'
p73
sa(dp74
g1
I01
sg7
I2
sg8
S'__sizeof__'
p75
sa(dp76
g1
I01
sg7
I5
sg8
S'__str__'
p77
sa(dp78
g1
I01
sg7
I2
sg8
S'__subclasshook__'
p79
sa(dp80
g1
I01
sg7
I2
sg8
S'append'
p81
sa(dp82
g1
I01
sg7
I2
sg8
S'buffer_info'
p83
sa(dp84
g1
I01
sg7
I2
sg8
S'byteswap'
p85
sa(dp86
g1
I01
sg7
I2
sg8
S'count'
p87
sa(dp88
g1
I01
sg7
I2
sg8
S'extend'
p89
sa(dp90
g1
I01
sg7
I2
sg8
S'fromfile'
p91
sa(dp92
g1
I01
sg7
I2
sg8
S'fromlist'
p93
sa(dp94
g1
I01
sg7
I2
sg8
S'fromstring'
p95
sa(dp96
g1
I01
sg7
I2
sg8
S'fromunicode'
p97
sa(dp98
g1
I01
sg7
I2
sg8
S'index'
p99
sa(dp100
g1
I01
sg7
I2
sg8
S'insert'
p101
sa(dp102
g1
I01
sg7
I5
sg8
S'itemsize'
p103
sa(dp104
g1
I01
sg7
I2
sg8
S'pop'
p105
sa(dp106
g1
I01
sg7
I2
sg8
S'read'
p107
sa(dp108
g1
I01
sg7
I2
sg8
S'remove'
p109
sa(dp110
g1
I01
sg7
I2
sg8
S'reverse'
p111
sa(dp112
g1
I01
sg7
I2
sg8
S'tofile'
p113
sa(dp114
g1
I01
sg7
I2
sg8
S'tolist'
p115
sa(dp116
g1
I01
sg7
I2
sg8
S'tostring'
p117
sa(dp118
g1
I01
sg7
I2
sg8
S'tounicode'
p119
sa(dp120
g1
I01
sg7
I5
sg8
S'typecode'
p121
sa(dp122
g1
I01
sg7
I2
sg8
S'write'
p123
sasg7
I3
sg8
S'ArrayType'
p124
sa(dp125
g1
I01
sg7
I5
sg8
g23
sa(dp126
g1
I01
sg7
I5
sg8
S'__name__'
p127
sa(dp128
g1
I01
sg7
I5
sg8
S'__package__'
p129
sa(dp130
g1
I01
sg2
(lp131
(dp132
g1
I01
sg7
I5
sg8
g9
sa(dp133
g1
I01
sg7
I5
sg8
g11
sa(dp134
g1
I01
sg7
I2
sg8
g13
sa(dp135
g1
I01
sg7
I2
sg8
g15
sa(dp136
g1
I01
sg7
I5
sg8
g17
sa(dp137
g1
I01
sg7
I5
sg8
g19
sa(dp138
g1
I01
sg7
I5
sg8
g21
sa(dp139
g1
I01
sg7
I5
sg8
g23
sa(dp140
g1
I01
sg7
I5
sg8
g25
sa(dp141
g1
I01
sg7
I2
sg8
g27
sa(dp142
g1
I01
sg7
I5
sg8
g29
sa(dp143
g1
I01
sg7
I5
sg8
g31
sa(dp144
g1
I01
sg7
I5
sg8
g33
sa(dp145
g1
I01
sg7
I5
sg8
g35
sa(dp146
g1
I01
sg7
I5
sg8
g37
sa(dp147
g1
I01
sg7
I5
sg8
g39
sa(dp148
g1
I01
sg7
I5
sg8
g41
sa(dp149
g1
I01
sg7
I5
sg8
g43
sa(dp150
g1
I01
sg7
I5
sg8
g45
sa(dp151
g1
I01
sg7
I5
sg8
g47
sa(dp152
g1
I01
sg7
I5
sg8
g49
sa(dp153
g1
I01
sg7
I5
sg8
g51
sa(dp154
g1
I01
sg7
I5
sg8
g53
sa(dp155
g1
I01
sg7
I5
sg8
g55
sa(dp156
g1
I01
sg7
I5
sg8
g57
sa(dp157
g1
I01
sg7
I2
sg8
g59
sa(dp158
g1
I01
sg7
I2
sg8
g61
sa(dp159
g1
I01
sg7
I2
sg8
g63
sa(dp160
g1
I01
sg7
I5
sg8
g65
sa(dp161
g1
I01
sg7
I5
sg8
g67
sa(dp162
g1
I01
sg7
I5
sg8
g69
sa(dp163
g1
I01
sg7
I5
sg8
g71
sa(dp164
g1
I01
sg7
I5
sg8
g73
sa(dp165
g1
I01
sg7
I2
sg8
g75
sa(dp166
g1
I01
sg7
I5
sg8
g77
sa(dp167
g1
I01
sg7
I2
sg8
g79
sa(dp168
g1
I01
sg7
I2
sg8
g81
sa(dp169
g1
I01
sg7
I2
sg8
g83
sa(dp170
g1
I01
sg7
I2
sg8
g85
sa(dp171
g1
I01
sg7
I2
sg8
g87
sa(dp172
g1
I01
sg7
I2
sg8
g89
sa(dp173
g1
I01
sg7
I2
sg8
g91
sa(dp174
g1
I01
sg7
I2
sg8
g93
sa(dp175
g1
I01
sg7
I2
sg8
g95
sa(dp176
g1
I01
sg7
I2
sg8
g97
sa(dp177
g1
I01
sg7
I2
sg8
g99
sa(dp178
g1
I01
sg7
I2
sg8
g101
sa(dp179
g1
I01
sg7
I5
sg8
g103
sa(dp180
g1
I01
sg7
I2
sg8
g105
sa(dp181
g1
I01
sg7
I2
sg8
g107
sa(dp182
g1
I01
sg7
I2
sg8
g109
sa(dp183
g1
I01
sg7
I2
sg8
g111
sa(dp184
g1
I01
sg7
I2
sg8
g113
sa(dp185
g1
I01
sg7
I2
sg8
g115
sa(dp186
g1
I01
sg7
I2
sg8
g117
sa(dp187
g1
I01
sg7
I2
sg8
g119
sa(dp188
g1
I01
sg7
I5
sg8
g121
sa(dp189
g1
I01
sg7
I2
sg8
g123
sasg7
I3
sg8
S'array'
p190
sasg8
S'array'
p191
s.