(dp0
S'is_builtin'
p1
I01
sS'childs'
p2
(lp3
(dp4
g1
I01
sS'type'
p5
I5
sS'name'
p6
S'__doc__'
p7
sa(dp8
g1
I01
sg5
I5
sg6
S'__name__'
p9
sa(dp10
g1
I01
sg5
I5
sg6
S'__package__'
p11
sa(dp12
g1
I01
sg5
I2
sg6
S'acos'
p13
sa(dp14
g1
I01
sg5
I2
sg6
S'acosh'
p15
sa(dp16
g1
I01
sg5
I2
sg6
S'asin'
p17
sa(dp18
g1
I01
sg5
I2
sg6
S'asinh'
p19
sa(dp20
g1
I01
sg5
I2
sg6
S'atan'
p21
sa(dp22
g1
I01
sg5
I2
sg6
S'atanh'
p23
sa(dp24
g1
I01
sg5
I2
sg6
S'cos'
p25
sa(dp26
g1
I01
sg5
I2
sg6
S'cosh'
p27
sa(dp28
g1
I01
sg5
I5
sg6
S'e'
p29
sa(dp30
g1
I01
sg5
I2
sg6
S'exp'
p31
sa(dp32
g1
I01
sg5
I2
sg6
S'isinf'
p33
sa(dp34
g1
I01
sg5
I2
sg6
S'isnan'
p35
sa(dp36
g1
I01
sg5
I2
sg6
S'log'
p37
sa(dp38
g1
I01
sg5
I2
sg6
S'log10'
p39
sa(dp40
g1
I01
sg5
I2
sg6
S'phase'
p41
sa(dp42
g1
I01
sg5
I5
sg6
S'pi'
p43
sa(dp44
g1
I01
sg5
I2
sg6
S'polar'
p45
sa(dp46
g1
I01
sg5
I2
sg6
S'rect'
p47
sa(dp48
g1
I01
sg5
I2
sg6
S'sin'
p49
sa(dp50
g1
I01
sg5
I2
sg6
S'sinh'
p51
sa(dp52
g1
I01
sg5
I2
sg6
S'sqrt'
p53
sa(dp54
g1
I01
sg5
I2
sg6
S'tan'
p55
sa(dp56
g1
I01
sg5
I2
sg6
S'tanh'
p57
sasg6
S'cmath'
p58
s.