(dp0
S'is_builtin'
p1
I01
sS'childs'
p2
(lp3
(dp4
g1
I01
sg2
(lp5
(dp6
g1
I01
sS'type'
p7
I5
sS'name'
p8
S'__delattr__'
p9
sa(dp10
g1
I01
sg7
I5
sg8
S'__dict__'
p11
sa(dp12
g1
I01
sg7
I5
sg8
S'__doc__'
p13
sa(dp14
g1
I01
sg7
I2
sg8
S'__format__'
p15
sa(dp16
g1
I01
sg7
I5
sg8
S'__getattribute__'
p17
sa(dp18
g1
I01
sg7
I5
sg8
S'__getitem__'
p19
sa(dp20
g1
I01
sg7
I5
sg8
S'__getslice__'
p21
sa(dp22
g1
I01
sg7
I5
sg8
S'__hash__'
p23
sa(dp24
g1
I01
sg7
I5
sg8
S'__init__'
p25
sa(dp26
g1
I01
sg7
I5
sg8
S'__module__'
p27
sa(dp28
g1
I01
sg7
I2
sg8
S'__new__'
p29
sa(dp30
g1
I01
sg7
I2
sg8
S'__reduce__'
p31
sa(dp32
g1
I01
sg7
I2
sg8
S'__reduce_ex__'
p33
sa(dp34
g1
I01
sg7
I5
sg8
S'__repr__'
p35
sa(dp36
g1
I01
sg7
I5
sg8
S'__setattr__'
p37
sa(dp38
g1
I01
sg7
I2
sg8
S'__setstate__'
p39
sa(dp40
g1
I01
sg7
I2
sg8
S'__sizeof__'
p41
sa(dp42
g1
I01
sg7
I5
sg8
S'__str__'
p43
sa(dp44
g1
I01
sg7
I2
sg8
S'__subclasshook__'
p45
sa(dp46
g1
I01
sg7
I2
sg8
S'__unicode__'
p47
sa(dp48
g1
I01
sg7
I5
sg8
S'__weakref__'
p49
sa(dp50
g1
I01
sg7
I5
sg8
S'args'
p51
sa(dp52
g1
I01
sg7
I5
sg8
S'message'
p53
sasg7
I3
sg8
S'BadPickleGet'
p54
sa(dp55
g1
I01
sg7
I5
sg8
S'HIGHEST_PROTOCOL'
p56
sa(dp57
g1
I01
sg2
(lp58
(dp59
g1
I01
sg7
I5
sg8
g9
sa(dp60
g1
I01
sg7
I5
sg8
g11
sa(dp61
g1
I01
sg7
I5
sg8
g13
sa(dp62
g1
I01
sg7
I2
sg8
g15
sa(dp63
g1
I01
sg7
I5
sg8
g17
sa(dp64
g1
I01
sg7
I5
sg8
g19
sa(dp65
g1
I01
sg7
I5
sg8
g21
sa(dp66
g1
I01
sg7
I5
sg8
g23
sa(dp67
g1
I01
sg7
I5
sg8
g25
sa(dp68
g1
I01
sg7
I5
sg8
g27
sa(dp69
g1
I01
sg7
I2
sg8
g29
sa(dp70
g1
I01
sg7
I2
sg8
g31
sa(dp71
g1
I01
sg7
I2
sg8
g33
sa(dp72
g1
I01
sg7
I5
sg8
g35
sa(dp73
g1
I01
sg7
I5
sg8
g37
sa(dp74
g1
I01
sg7
I2
sg8
g39
sa(dp75
g1
I01
sg7
I2
sg8
g41
sa(dp76
g1
I01
sg7
I5
sg8
g43
sa(dp77
g1
I01
sg7
I2
sg8
g45
sa(dp78
g1
I01
sg7
I2
sg8
g47
sa(dp79
g1
I01
sg7
I5
sg8
g49
sa(dp80
g1
I01
sg7
I5
sg8
g51
sa(dp81
g1
I01
sg7
I5
sg8
g53
sasg7
I3
sg8
S'PickleError'
p82
sa(dp83
g1
I01
sg7
I2
sg8
S'Pickler'
p84
sa(dp85
g1
I01
sg2
(lp86
(dp87
g1
I01
sg7
I5
sg8
g9
sa(dp88
g1
I01
sg7
I5
sg8
g11
sa(dp89
g1
I01
sg7
I5
sg8
g13
sa(dp90
g1
I01
sg7
I2
sg8
g15
sa(dp91
g1
I01
sg7
I5
sg8
g17
sa(dp92
g1
I01
sg7
I5
sg8
g19
sa(dp93
g1
I01
sg7
I5
sg8
g21
sa(dp94
g1
I01
sg7
I5
sg8
g23
sa(dp95
g1
I01
sg7
I5
sg8
g25
sa(dp96
g1
I01
sg7
I5
sg8
g27
sa(dp97
g1
I01
sg7
I2
sg8
g29
sa(dp98
g1
I01
sg7
I2
sg8
g31
sa(dp99
g1
I01
sg7
I2
sg8
g33
sa(dp100
g1
I01
sg7
I5
sg8
g35
sa(dp101
g1
I01
sg7
I5
sg8
g37
sa(dp102
g1
I01
sg7
I2
sg8
g39
sa(dp103
g1
I01
sg7
I2
sg8
g41
sa(dp104
g1
I01
sg7
I5
sg8
g43
sa(dp105
g1
I01
sg7
I2
sg8
g45
sa(dp106
g1
I01
sg7
I2
sg8
g47
sa(dp107
g1
I01
sg7
I5
sg8
g49
sa(dp108
g1
I01
sg7
I5
sg8
g51
sa(dp109
g1
I01
sg7
I5
sg8
g53
sasg7
I3
sg8
S'PicklingError'
p110
sa(dp111
g1
I01
sg2
(lp112
(dp113
g1
I01
sg7
I5
sg8
g9
sa(dp114
g1
I01
sg7
I5
sg8
g11
sa(dp115
g1
I01
sg7
I5
sg8
g13
sa(dp116
g1
I01
sg7
I2
sg8
g15
sa(dp117
g1
I01
sg7
I5
sg8
g17
sa(dp118
g1
I01
sg7
I5
sg8
g19
sa(dp119
g1
I01
sg7
I5
sg8
g21
sa(dp120
g1
I01
sg7
I5
sg8
g23
sa(dp121
g1
I01
sg7
I5
sg8
g25
sa(dp122
g1
I01
sg7
I5
sg8
g27
sa(dp123
g1
I01
sg7
I2
sg8
g29
sa(dp124
g1
I01
sg7
I2
sg8
g31
sa(dp125
g1
I01
sg7
I2
sg8
g33
sa(dp126
g1
I01
sg7
I5
sg8
g35
sa(dp127
g1
I01
sg7
I5
sg8
g37
sa(dp128
g1
I01
sg7
I2
sg8
g39
sa(dp129
g1
I01
sg7
I2
sg8
g41
sa(dp130
g1
I01
sg7
I5
sg8
g43
sa(dp131
g1
I01
sg7
I2
sg8
g45
sa(dp132
g1
I01
sg7
I2
sg8
g47
sa(dp133
g1
I01
sg7
I5
sg8
g49
sa(dp134
g1
I01
sg7
I5
sg8
g51
sa(dp135
g1
I01
sg7
I5
sg8
g53
sasg7
I3
sg8
S'UnpickleableError'
p136
sa(dp137
g1
I01
sg7
I2
sg8
S'Unpickler'
p138
sa(dp139
g1
I01
sg2
(lp140
(dp141
g1
I01
sg7
I5
sg8
g9
sa(dp142
g1
I01
sg7
I5
sg8
g11
sa(dp143
g1
I01
sg7
I5
sg8
g13
sa(dp144
g1
I01
sg7
I2
sg8
g15
sa(dp145
g1
I01
sg7
I5
sg8
g17
sa(dp146
g1
I01
sg7
I5
sg8
g19
sa(dp147
g1
I01
sg7
I5
sg8
g21
sa(dp148
g1
I01
sg7
I5
sg8
g23
sa(dp149
g1
I01
sg7
I5
sg8
g25
sa(dp150
g1
I01
sg7
I5
sg8
g27
sa(dp151
g1
I01
sg7
I2
sg8
g29
sa(dp152
g1
I01
sg7
I2
sg8
g31
sa(dp153
g1
I01
sg7
I2
sg8
g33
sa(dp154
g1
I01
sg7
I5
sg8
g35
sa(dp155
g1
I01
sg7
I5
sg8
g37
sa(dp156
g1
I01
sg7
I2
sg8
g39
sa(dp157
g1
I01
sg7
I2
sg8
g41
sa(dp158
g1
I01
sg7
I5
sg8
g43
sa(dp159
g1
I01
sg7
I2
sg8
g45
sa(dp160
g1
I01
sg7
I2
sg8
g47
sa(dp161
g1
I01
sg7
I5
sg8
g49
sa(dp162
g1
I01
sg7
I5
sg8
g51
sa(dp163
g1
I01
sg7
I5
sg8
g53
sasg7
I3
sg8
S'UnpicklingError'
p164
sa(dp165
g1
I01
sg7
I5
sg8
S'__builtins__'
p166
sa(dp167
g1
I01
sg7
I5
sg8
g13
sa(dp168
g1
I01
sg7
I5
sg8
S'__name__'
p169
sa(dp170
g1
I01
sg7
I5
sg8
S'__package__'
p171
sa(dp172
g1
I01
sg7
I5
sg8
S'__version__'
p173
sa(dp174
g1
I01
sg7
I5
sg8
S'compatible_formats'
p175
sa(dp176
g1
I01
sg7
I2
sg8
S'dump'
p177
sa(dp178
g1
I01
sg7
I2
sg8
S'dumps'
p179
sa(dp180
g1
I01
sg7
I5
sg8
S'format_version'
p181
sa(dp182
g1
I01
sg7
I2
sg8
S'load'
p183
sa(dp184
g1
I01
sg7
I2
sg8
S'loads'
p185
sasg8
S'cPickle'
p186
s.