(dp0
S'is_builtin'
p1
I01
sS'childs'
p2
(lp3
(dp4
g1
I01
sg2
(lp5
(dp6
g1
I01
sS'type'
p7
I5
sS'name'
p8
S'__delattr__'
p9
sa(dp10
g1
I01
sg7
I5
sg8
S'__doc__'
p11
sa(dp12
g1
I01
sg7
I2
sg8
S'__format__'
p13
sa(dp14
g1
I01
sg7
I5
sg8
S'__getattribute__'
p15
sa(dp16
g1
I01
sg7
I5
sg8
S'__hash__'
p17
sa(dp18
g1
I01
sg7
I5
sg8
S'__init__'
p19
sa(dp20
g1
I01
sg7
I5
sg8
S'__iter__'
p21
sa(dp22
g1
I01
sg7
I2
sg8
S'__new__'
p23
sa(dp24
g1
I01
sg7
I2
sg8
S'__reduce__'
p25
sa(dp26
g1
I01
sg7
I2
sg8
S'__reduce_ex__'
p27
sa(dp28
g1
I01
sg7
I5
sg8
S'__repr__'
p29
sa(dp30
g1
I01
sg7
I5
sg8
S'__setattr__'
p31
sa(dp32
g1
I01
sg7
I2
sg8
S'__sizeof__'
p33
sa(dp34
g1
I01
sg7
I5
sg8
S'__str__'
p35
sa(dp36
g1
I01
sg7
I2
sg8
S'__subclasshook__'
p37
sa(dp38
g1
I01
sg7
I2
sg8
S'close'
p39
sa(dp40
g1
I01
sg7
I5
sg8
S'closed'
p41
sa(dp42
g1
I01
sg7
I2
sg8
S'flush'
p43
sa(dp44
g1
I01
sg7
I2
sg8
S'getvalue'
p45
sa(dp46
g1
I01
sg7
I2
sg8
S'isatty'
p47
sa(dp48
g1
I01
sg7
I5
sg8
S'next'
p49
sa(dp50
g1
I01
sg7
I2
sg8
S'read'
p51
sa(dp52
g1
I01
sg7
I2
sg8
S'readline'
p53
sa(dp54
g1
I01
sg7
I2
sg8
S'readlines'
p55
sa(dp56
g1
I01
sg7
I2
sg8
S'reset'
p57
sa(dp58
g1
I01
sg7
I2
sg8
S'seek'
p59
sa(dp60
g1
I01
sg7
I2
sg8
S'tell'
p61
sa(dp62
g1
I01
sg7
I2
sg8
S'truncate'
p63
sasg7
I3
sg8
S'InputType'
p64
sa(dp65
g1
I01
sg2
(lp66
(dp67
g1
I01
sg7
I5
sg8
g9
sa(dp68
g1
I01
sg7
I5
sg8
g11
sa(dp69
g1
I01
sg7
I2
sg8
g13
sa(dp70
g1
I01
sg7
I5
sg8
g15
sa(dp71
g1
I01
sg7
I5
sg8
g17
sa(dp72
g1
I01
sg7
I5
sg8
g19
sa(dp73
g1
I01
sg7
I5
sg8
g21
sa(dp74
g1
I01
sg7
I2
sg8
g23
sa(dp75
g1
I01
sg7
I2
sg8
g25
sa(dp76
g1
I01
sg7
I2
sg8
g27
sa(dp77
g1
I01
sg7
I5
sg8
g29
sa(dp78
g1
I01
sg7
I5
sg8
g31
sa(dp79
g1
I01
sg7
I2
sg8
g33
sa(dp80
g1
I01
sg7
I5
sg8
g35
sa(dp81
g1
I01
sg7
I2
sg8
g37
sa(dp82
g1
I01
sg7
I2
sg8
g39
sa(dp83
g1
I01
sg7
I5
sg8
g41
sa(dp84
g1
I01
sg7
I2
sg8
g43
sa(dp85
g1
I01
sg7
I2
sg8
g45
sa(dp86
g1
I01
sg7
I2
sg8
g47
sa(dp87
g1
I01
sg7
I5
sg8
g49
sa(dp88
g1
I01
sg7
I2
sg8
g51
sa(dp89
g1
I01
sg7
I2
sg8
g53
sa(dp90
g1
I01
sg7
I2
sg8
g55
sa(dp91
g1
I01
sg7
I2
sg8
g57
sa(dp92
g1
I01
sg7
I2
sg8
g59
sa(dp93
g1
I01
sg7
I5
sg8
S'softspace'
p94
sa(dp95
g1
I01
sg7
I2
sg8
g61
sa(dp96
g1
I01
sg7
I2
sg8
g63
sa(dp97
g1
I01
sg7
I2
sg8
S'write'
p98
sa(dp99
g1
I01
sg7
I2
sg8
S'writelines'
p100
sasg7
I3
sg8
S'OutputType'
p101
sa(dp102
g1
I01
sg7
I2
sg8
S'StringIO'
p103
sa(dp104
g1
I01
sg7
I5
sg8
g11
sa(dp105
g1
I01
sg7
I5
sg8
S'__name__'
p106
sa(dp107
g1
I01
sg7
I5
sg8
S'__package__'
p108
sa(dp109
g1
I01
sg7
I5
sg8
S'cStringIO_CAPI'
p110
sasg8
S'cStringIO'
p111
s.