(dp0
S'is_builtin'
p1
I01
sS'childs'
p2
(lp3
(dp4
g1
I01
sS'type'
p5
I5
sS'name'
p6
S'MAXYEAR'
p7
sa(dp8
g1
I01
sg5
I5
sg6
S'MINYEAR'
p9
sa(dp10
g1
I01
sg5
I5
sg6
S'__doc__'
p11
sa(dp12
g1
I01
sg5
I5
sg6
S'__name__'
p13
sa(dp14
g1
I01
sg5
I5
sg6
S'__package__'
p15
sa(dp16
g1
I01
sg2
(lp17
(dp18
g1
I01
sg5
I5
sg6
S'__add__'
p19
sa(dp20
g1
I01
sg5
I5
sg6
S'__delattr__'
p21
sa(dp22
g1
I01
sg5
I5
sg6
g11
sa(dp23
g1
I01
sg5
I5
sg6
S'__eq__'
p24
sa(dp25
g1
I01
sg5
I2
sg6
S'__format__'
p26
sa(dp27
g1
I01
sg5
I5
sg6
S'__ge__'
p28
sa(dp29
g1
I01
sg5
I5
sg6
S'__getattribute__'
p30
sa(dp31
g1
I01
sg5
I5
sg6
S'__gt__'
p32
sa(dp33
g1
I01
sg5
I5
sg6
S'__hash__'
p34
sa(dp35
g1
I01
sg5
I5
sg6
S'__init__'
p36
sa(dp37
g1
I01
sg5
I5
sg6
S'__le__'
p38
sa(dp39
g1
I01
sg5
I5
sg6
S'__lt__'
p40
sa(dp41
g1
I01
sg5
I5
sg6
S'__ne__'
p42
sa(dp43
g1
I01
sg5
I2
sg6
S'__new__'
p44
sa(dp45
g1
I01
sg5
I5
sg6
S'__radd__'
p46
sa(dp47
g1
I01
sg5
I2
sg6
S'__reduce__'
p48
sa(dp49
g1
I01
sg5
I2
sg6
S'__reduce_ex__'
p50
sa(dp51
g1
I01
sg5
I5
sg6
S'__repr__'
p52
sa(dp53
g1
I01
sg5
I5
sg6
S'__rsub__'
p54
sa(dp55
g1
I01
sg5
I5
sg6
S'__setattr__'
p56
sa(dp57
g1
I01
sg5
I2
sg6
S'__sizeof__'
p58
sa(dp59
g1
I01
sg5
I5
sg6
S'__str__'
p60
sa(dp61
g1
I01
sg5
I5
sg6
S'__sub__'
p62
sa(dp63
g1
I01
sg5
I2
sg6
S'__subclasshook__'
p64
sa(dp65
g1
I01
sg5
I2
sg6
S'ctime'
p66
sa(dp67
g1
I01
sg5
I5
sg6
S'day'
p68
sa(dp69
g1
I01
sg5
I2
sg6
S'fromordinal'
p70
sa(dp71
g1
I01
sg5
I2
sg6
S'fromtimestamp'
p72
sa(dp73
g1
I01
sg5
I2
sg6
S'isocalendar'
p74
sa(dp75
g1
I01
sg5
I2
sg6
S'isoformat'
p76
sa(dp77
g1
I01
sg5
I2
sg6
S'isoweekday'
p78
sa(dp79
g1
I01
sg5
I5
sg6
S'max'
p80
sa(dp81
g1
I01
sg5
I5
sg6
S'min'
p82
sa(dp83
g1
I01
sg5
I5
sg6
S'month'
p84
sa(dp85
g1
I01
sg5
I2
sg6
S'replace'
p86
sa(dp87
g1
I01
sg5
I5
sg6
S'resolution'
p88
sa(dp89
g1
I01
sg5
I2
sg6
S'strftime'
p90
sa(dp91
g1
I01
sg5
I2
sg6
S'timetuple'
p92
sa(dp93
g1
I01
sg5
I2
sg6
S'today'
p94
sa(dp95
g1
I01
sg5
I2
sg6
S'toordinal'
p96
sa(dp97
g1
I01
sg5
I2
sg6
S'weekday'
p98
sa(dp99
g1
I01
sg5
I5
sg6
S'year'
p100
sasg5
I3
sg6
S'date'
p101
sa(dp102
g1
I01
sg2
(lp103
(dp104
g1
I01
sg5
I5
sg6
g19
sa(dp105
g1
I01
sg5
I5
sg6
g21
sa(dp106
g1
I01
sg5
I5
sg6
g11
sa(dp107
g1
I01
sg5
I5
sg6
g24
sa(dp108
g1
I01
sg5
I2
sg6
g26
sa(dp109
g1
I01
sg5
I5
sg6
g28
sa(dp110
g1
I01
sg5
I5
sg6
g30
sa(dp111
g1
I01
sg5
I5
sg6
g32
sa(dp112
g1
I01
sg5
I5
sg6
g34
sa(dp113
g1
I01
sg5
I5
sg6
g36
sa(dp114
g1
I01
sg5
I5
sg6
g38
sa(dp115
g1
I01
sg5
I5
sg6
g40
sa(dp116
g1
I01
sg5
I5
sg6
g42
sa(dp117
g1
I01
sg5
I2
sg6
g44
sa(dp118
g1
I01
sg5
I5
sg6
g46
sa(dp119
g1
I01
sg5
I2
sg6
g48
sa(dp120
g1
I01
sg5
I2
sg6
g50
sa(dp121
g1
I01
sg5
I5
sg6
g52
sa(dp122
g1
I01
sg5
I5
sg6
g54
sa(dp123
g1
I01
sg5
I5
sg6
g56
sa(dp124
g1
I01
sg5
I2
sg6
g58
sa(dp125
g1
I01
sg5
I5
sg6
g60
sa(dp126
g1
I01
sg5
I5
sg6
g62
sa(dp127
g1
I01
sg5
I2
sg6
g64
sa(dp128
g1
I01
sg5
I2
sg6
S'astimezone'
p129
sa(dp130
g1
I01
sg5
I2
sg6
S'combine'
p131
sa(dp132
g1
I01
sg5
I2
sg6
g66
sa(dp133
g1
I01
sg5
I2
sg6
g101
sa(dp134
g1
I01
sg5
I5
sg6
g68
sa(dp135
g1
I01
sg5
I2
sg6
S'dst'
p136
sa(dp137
g1
I01
sg5
I2
sg6
g70
sa(dp138
g1
I01
sg5
I2
sg6
g72
sa(dp139
g1
I01
sg5
I5
sg6
S'hour'
p140
sa(dp141
g1
I01
sg5
I2
sg6
g74
sa(dp142
g1
I01
sg5
I2
sg6
g76
sa(dp143
g1
I01
sg5
I2
sg6
g78
sa(dp144
g1
I01
sg5
I5
sg6
g80
sa(dp145
g1
I01
sg5
I5
sg6
S'microsecond'
p146
sa(dp147
g1
I01
sg5
I5
sg6
g82
sa(dp148
g1
I01
sg5
I5
sg6
S'minute'
p149
sa(dp150
g1
I01
sg5
I5
sg6
g84
sa(dp151
g1
I01
sg5
I2
sg6
S'now'
p152
sa(dp153
g1
I01
sg5
I2
sg6
g86
sa(dp154
g1
I01
sg5
I5
sg6
g88
sa(dp155
g1
I01
sg5
I5
sg6
S'second'
p156
sa(dp157
g1
I01
sg5
I2
sg6
g90
sa(dp158
g1
I01
sg5
I2
sg6
S'strptime'
p159
sa(dp160
g1
I01
sg5
I2
sg6
S'time'
p161
sa(dp162
g1
I01
sg5
I2
sg6
g92
sa(dp163
g1
I01
sg5
I2
sg6
S'timetz'
p164
sa(dp165
g1
I01
sg5
I2
sg6
g94
sa(dp166
g1
I01
sg5
I2
sg6
g96
sa(dp167
g1
I01
sg5
I5
sg6
S'tzinfo'
p168
sa(dp169
g1
I01
sg5
I2
sg6
S'tzname'
p170
sa(dp171
g1
I01
sg5
I2
sg6
S'utcfromtimestamp'
p172
sa(dp173
g1
I01
sg5
I2
sg6
S'utcnow'
p174
sa(dp175
g1
I01
sg5
I2
sg6
S'utcoffset'
p176
sa(dp177
g1
I01
sg5
I2
sg6
S'utctimetuple'
p178
sa(dp179
g1
I01
sg5
I2
sg6
g98
sa(dp180
g1
I01
sg5
I5
sg6
g100
sasg5
I3
sg6
S'datetime'
p181
sa(dp182
g1
I01
sg5
I5
sg6
S'datetime_CAPI'
p183
sa(dp184
g1
I01
sg2
(lp185
(dp186
g1
I01
sg5
I5
sg6
g21
sa(dp187
g1
I01
sg5
I5
sg6
g11
sa(dp188
g1
I01
sg5
I5
sg6
g24
sa(dp189
g1
I01
sg5
I2
sg6
g26
sa(dp190
g1
I01
sg5
I5
sg6
g28
sa(dp191
g1
I01
sg5
I5
sg6
g30
sa(dp192
g1
I01
sg5
I5
sg6
g32
sa(dp193
g1
I01
sg5
I5
sg6
g34
sa(dp194
g1
I01
sg5
I5
sg6
g36
sa(dp195
g1
I01
sg5
I5
sg6
g38
sa(dp196
g1
I01
sg5
I5
sg6
g40
sa(dp197
g1
I01
sg5
I5
sg6
g42
sa(dp198
g1
I01
sg5
I2
sg6
g44
sa(dp199
g1
I01
sg5
I5
sg6
S'__nonzero__'
p200
sa(dp201
g1
I01
sg5
I2
sg6
g48
sa(dp202
g1
I01
sg5
I2
sg6
g50
sa(dp203
g1
I01
sg5
I5
sg6
g52
sa(dp204
g1
I01
sg5
I5
sg6
g56
sa(dp205
g1
I01
sg5
I2
sg6
g58
sa(dp206
g1
I01
sg5
I5
sg6
g60
sa(dp207
g1
I01
sg5
I2
sg6
g64
sa(dp208
g1
I01
sg5
I2
sg6
g136
sa(dp209
g1
I01
sg5
I5
sg6
g140
sa(dp210
g1
I01
sg5
I2
sg6
g76
sa(dp211
g1
I01
sg5
I5
sg6
g80
sa(dp212
g1
I01
sg5
I5
sg6
g146
sa(dp213
g1
I01
sg5
I5
sg6
g82
sa(dp214
g1
I01
sg5
I5
sg6
g149
sa(dp215
g1
I01
sg5
I2
sg6
g86
sa(dp216
g1
I01
sg5
I5
sg6
g88
sa(dp217
g1
I01
sg5
I5
sg6
g156
sa(dp218
g1
I01
sg5
I2
sg6
g90
sa(dp219
g1
I01
sg5
I5
sg6
g168
sa(dp220
g1
I01
sg5
I2
sg6
g170
sa(dp221
g1
I01
sg5
I2
sg6
g176
sasg5
I3
sg6
g161
sa(dp222
g1
I01
sg2
(lp223
(dp224
g1
I01
sg5
I5
sg6
S'__abs__'
p225
sa(dp226
g1
I01
sg5
I5
sg6
g19
sa(dp227
g1
I01
sg5
I5
sg6
g21
sa(dp228
g1
I01
sg5
I5
sg6
S'__div__'
p229
sa(dp230
g1
I01
sg5
I5
sg6
g11
sa(dp231
g1
I01
sg5
I5
sg6
g24
sa(dp232
g1
I01
sg5
I5
sg6
S'__floordiv__'
p233
sa(dp234
g1
I01
sg5
I2
sg6
g26
sa(dp235
g1
I01
sg5
I5
sg6
g28
sa(dp236
g1
I01
sg5
I5
sg6
g30
sa(dp237
g1
I01
sg5
I5
sg6
g32
sa(dp238
g1
I01
sg5
I5
sg6
g34
sa(dp239
g1
I01
sg5
I5
sg6
g36
sa(dp240
g1
I01
sg5
I5
sg6
g38
sa(dp241
g1
I01
sg5
I5
sg6
g40
sa(dp242
g1
I01
sg5
I5
sg6
S'__mul__'
p243
sa(dp244
g1
I01
sg5
I5
sg6
g42
sa(dp245
g1
I01
sg5
I5
sg6
S'__neg__'
p246
sa(dp247
g1
I01
sg5
I2
sg6
g44
sa(dp248
g1
I01
sg5
I5
sg6
g200
sa(dp249
g1
I01
sg5
I5
sg6
S'__pos__'
p250
sa(dp251
g1
I01
sg5
I5
sg6
g46
sa(dp252
g1
I01
sg5
I5
sg6
S'__rdiv__'
p253
sa(dp254
g1
I01
sg5
I2
sg6
g48
sa(dp255
g1
I01
sg5
I2
sg6
g50
sa(dp256
g1
I01
sg5
I5
sg6
g52
sa(dp257
g1
I01
sg5
I5
sg6
S'__rfloordiv__'
p258
sa(dp259
g1
I01
sg5
I5
sg6
S'__rmul__'
p260
sa(dp261
g1
I01
sg5
I5
sg6
g54
sa(dp262
g1
I01
sg5
I5
sg6
g56
sa(dp263
g1
I01
sg5
I2
sg6
g58
sa(dp264
g1
I01
sg5
I5
sg6
g60
sa(dp265
g1
I01
sg5
I5
sg6
g62
sa(dp266
g1
I01
sg5
I2
sg6
g64
sa(dp267
g1
I01
sg5
I5
sg6
S'days'
p268
sa(dp269
g1
I01
sg5
I5
sg6
g80
sa(dp270
g1
I01
sg5
I5
sg6
S'microseconds'
p271
sa(dp272
g1
I01
sg5
I5
sg6
g82
sa(dp273
g1
I01
sg5
I5
sg6
g88
sa(dp274
g1
I01
sg5
I5
sg6
S'seconds'
p275
sa(dp276
g1
I01
sg5
I2
sg6
S'total_seconds'
p277
sasg5
I3
sg6
S'timedelta'
p278
sa(dp279
g1
I01
sg2
(lp280
(dp281
g1
I01
sg5
I5
sg6
g21
sa(dp282
g1
I01
sg5
I5
sg6
g11
sa(dp283
g1
I01
sg5
I2
sg6
g26
sa(dp284
g1
I01
sg5
I5
sg6
g30
sa(dp285
g1
I01
sg5
I5
sg6
g34
sa(dp286
g1
I01
sg5
I5
sg6
g36
sa(dp287
g1
I01
sg5
I2
sg6
g44
sa(dp288
g1
I01
sg5
I2
sg6
g48
sa(dp289
g1
I01
sg5
I2
sg6
g50
sa(dp290
g1
I01
sg5
I5
sg6
g52
sa(dp291
g1
I01
sg5
I5
sg6
g56
sa(dp292
g1
I01
sg5
I2
sg6
g58
sa(dp293
g1
I01
sg5
I5
sg6
g60
sa(dp294
g1
I01
sg5
I2
sg6
g64
sa(dp295
g1
I01
sg5
I2
sg6
g136
sa(dp296
g1
I01
sg5
I2
sg6
S'fromutc'
p297
sa(dp298
g1
I01
sg5
I2
sg6
g170
sa(dp299
g1
I01
sg5
I2
sg6
g176
sasg5
I3
sg6
g168
sasg6
S'datetime'
p300
s.