(dp0
S'is_builtin'
p1
I01
sS'childs'
p2
(lp3
(dp4
g1
I01
sS'type'
p5
I5
sS'name'
p6
S'E2BIG'
p7
sa(dp8
g1
I01
sg5
I5
sg6
S'EACCES'
p9
sa(dp10
g1
I01
sg5
I5
sg6
S'EADDRINUSE'
p11
sa(dp12
g1
I01
sg5
I5
sg6
S'EADDRNOTAVAIL'
p13
sa(dp14
g1
I01
sg5
I5
sg6
S'EADV'
p15
sa(dp16
g1
I01
sg5
I5
sg6
S'EAFNOSUPPORT'
p17
sa(dp18
g1
I01
sg5
I5
sg6
S'EAGAIN'
p19
sa(dp20
g1
I01
sg5
I5
sg6
S'EALREADY'
p21
sa(dp22
g1
I01
sg5
I5
sg6
S'EBADE'
p23
sa(dp24
g1
I01
sg5
I5
sg6
S'EBADF'
p25
sa(dp26
g1
I01
sg5
I5
sg6
S'EBADFD'
p27
sa(dp28
g1
I01
sg5
I5
sg6
S'EBADMSG'
p29
sa(dp30
g1
I01
sg5
I5
sg6
S'EBADR'
p31
sa(dp32
g1
I01
sg5
I5
sg6
S'EBADRQC'
p33
sa(dp34
g1
I01
sg5
I5
sg6
S'EBADSLT'
p35
sa(dp36
g1
I01
sg5
I5
sg6
S'EBFONT'
p37
sa(dp38
g1
I01
sg5
I5
sg6
S'EBUSY'
p39
sa(dp40
g1
I01
sg5
I5
sg6
S'ECHILD'
p41
sa(dp42
g1
I01
sg5
I5
sg6
S'ECHRNG'
p43
sa(dp44
g1
I01
sg5
I5
sg6
S'ECOMM'
p45
sa(dp46
g1
I01
sg5
I5
sg6
S'ECONNABORTED'
p47
sa(dp48
g1
I01
sg5
I5
sg6
S'ECONNREFUSED'
p49
sa(dp50
g1
I01
sg5
I5
sg6
S'ECONNRESET'
p51
sa(dp52
g1
I01
sg5
I5
sg6
S'EDEADLK'
p53
sa(dp54
g1
I01
sg5
I5
sg6
S'EDEADLOCK'
p55
sa(dp56
g1
I01
sg5
I5
sg6
S'EDESTADDRREQ'
p57
sa(dp58
g1
I01
sg5
I5
sg6
S'EDOM'
p59
sa(dp60
g1
I01
sg5
I5
sg6
S'EDOTDOT'
p61
sa(dp62
g1
I01
sg5
I5
sg6
S'EDQUOT'
p63
sa(dp64
g1
I01
sg5
I5
sg6
S'EEXIST'
p65
sa(dp66
g1
I01
sg5
I5
sg6
S'EFAULT'
p67
sa(dp68
g1
I01
sg5
I5
sg6
S'EFBIG'
p69
sa(dp70
g1
I01
sg5
I5
sg6
S'EHOSTDOWN'
p71
sa(dp72
g1
I01
sg5
I5
sg6
S'EHOSTUNREACH'
p73
sa(dp74
g1
I01
sg5
I5
sg6
S'EIDRM'
p75
sa(dp76
g1
I01
sg5
I5
sg6
S'EILSEQ'
p77
sa(dp78
g1
I01
sg5
I5
sg6
S'EINPROGRESS'
p79
sa(dp80
g1
I01
sg5
I5
sg6
S'EINTR'
p81
sa(dp82
g1
I01
sg5
I5
sg6
S'EINVAL'
p83
sa(dp84
g1
I01
sg5
I5
sg6
S'EIO'
p85
sa(dp86
g1
I01
sg5
I5
sg6
S'EISCONN'
p87
sa(dp88
g1
I01
sg5
I5
sg6
S'EISDIR'
p89
sa(dp90
g1
I01
sg5
I5
sg6
S'EISNAM'
p91
sa(dp92
g1
I01
sg5
I5
sg6
S'EL2HLT'
p93
sa(dp94
g1
I01
sg5
I5
sg6
S'EL2NSYNC'
p95
sa(dp96
g1
I01
sg5
I5
sg6
S'EL3HLT'
p97
sa(dp98
g1
I01
sg5
I5
sg6
S'EL3RST'
p99
sa(dp100
g1
I01
sg5
I5
sg6
S'ELIBACC'
p101
sa(dp102
g1
I01
sg5
I5
sg6
S'ELIBBAD'
p103
sa(dp104
g1
I01
sg5
I5
sg6
S'ELIBEXEC'
p105
sa(dp106
g1
I01
sg5
I5
sg6
S'ELIBMAX'
p107
sa(dp108
g1
I01
sg5
I5
sg6
S'ELIBSCN'
p109
sa(dp110
g1
I01
sg5
I5
sg6
S'ELNRNG'
p111
sa(dp112
g1
I01
sg5
I5
sg6
S'ELOOP'
p113
sa(dp114
g1
I01
sg5
I5
sg6
S'EMFILE'
p115
sa(dp116
g1
I01
sg5
I5
sg6
S'EMLINK'
p117
sa(dp118
g1
I01
sg5
I5
sg6
S'EMSGSIZE'
p119
sa(dp120
g1
I01
sg5
I5
sg6
S'EMULTIHOP'
p121
sa(dp122
g1
I01
sg5
I5
sg6
S'ENAMETOOLONG'
p123
sa(dp124
g1
I01
sg5
I5
sg6
S'ENAVAIL'
p125
sa(dp126
g1
I01
sg5
I5
sg6
S'ENETDOWN'
p127
sa(dp128
g1
I01
sg5
I5
sg6
S'ENETRESET'
p129
sa(dp130
g1
I01
sg5
I5
sg6
S'ENETUNREACH'
p131
sa(dp132
g1
I01
sg5
I5
sg6
S'ENFILE'
p133
sa(dp134
g1
I01
sg5
I5
sg6
S'ENOANO'
p135
sa(dp136
g1
I01
sg5
I5
sg6
S'ENOBUFS'
p137
sa(dp138
g1
I01
sg5
I5
sg6
S'ENOCSI'
p139
sa(dp140
g1
I01
sg5
I5
sg6
S'ENODATA'
p141
sa(dp142
g1
I01
sg5
I5
sg6
S'ENODEV'
p143
sa(dp144
g1
I01
sg5
I5
sg6
S'ENOENT'
p145
sa(dp146
g1
I01
sg5
I5
sg6
S'ENOEXEC'
p147
sa(dp148
g1
I01
sg5
I5
sg6
S'ENOLCK'
p149
sa(dp150
g1
I01
sg5
I5
sg6
S'ENOLINK'
p151
sa(dp152
g1
I01
sg5
I5
sg6
S'ENOMEM'
p153
sa(dp154
g1
I01
sg5
I5
sg6
S'ENOMSG'
p155
sa(dp156
g1
I01
sg5
I5
sg6
S'ENONET'
p157
sa(dp158
g1
I01
sg5
I5
sg6
S'ENOPKG'
p159
sa(dp160
g1
I01
sg5
I5
sg6
S'ENOPROTOOPT'
p161
sa(dp162
g1
I01
sg5
I5
sg6
S'ENOSPC'
p163
sa(dp164
g1
I01
sg5
I5
sg6
S'ENOSR'
p165
sa(dp166
g1
I01
sg5
I5
sg6
S'ENOSTR'
p167
sa(dp168
g1
I01
sg5
I5
sg6
S'ENOSYS'
p169
sa(dp170
g1
I01
sg5
I5
sg6
S'ENOTBLK'
p171
sa(dp172
g1
I01
sg5
I5
sg6
S'ENOTCONN'
p173
sa(dp174
g1
I01
sg5
I5
sg6
S'ENOTDIR'
p175
sa(dp176
g1
I01
sg5
I5
sg6
S'ENOTEMPTY'
p177
sa(dp178
g1
I01
sg5
I5
sg6
S'ENOTNAM'
p179
sa(dp180
g1
I01
sg5
I5
sg6
S'ENOTSOCK'
p181
sa(dp182
g1
I01
sg5
I5
sg6
S'ENOTSUP'
p183
sa(dp184
g1
I01
sg5
I5
sg6
S'ENOTTY'
p185
sa(dp186
g1
I01
sg5
I5
sg6
S'ENOTUNIQ'
p187
sa(dp188
g1
I01
sg5
I5
sg6
S'ENXIO'
p189
sa(dp190
g1
I01
sg5
I5
sg6
S'EOPNOTSUPP'
p191
sa(dp192
g1
I01
sg5
I5
sg6
S'EOVERFLOW'
p193
sa(dp194
g1
I01
sg5
I5
sg6
S'EPERM'
p195
sa(dp196
g1
I01
sg5
I5
sg6
S'EPFNOSUPPORT'
p197
sa(dp198
g1
I01
sg5
I5
sg6
S'EPIPE'
p199
sa(dp200
g1
I01
sg5
I5
sg6
S'EPROTO'
p201
sa(dp202
g1
I01
sg5
I5
sg6
S'EPROTONOSUPPORT'
p203
sa(dp204
g1
I01
sg5
I5
sg6
S'EPROTOTYPE'
p205
sa(dp206
g1
I01
sg5
I5
sg6
S'ERANGE'
p207
sa(dp208
g1
I01
sg5
I5
sg6
S'EREMCHG'
p209
sa(dp210
g1
I01
sg5
I5
sg6
S'EREMOTE'
p211
sa(dp212
g1
I01
sg5
I5
sg6
S'EREMOTEIO'
p213
sa(dp214
g1
I01
sg5
I5
sg6
S'ERESTART'
p215
sa(dp216
g1
I01
sg5
I5
sg6
S'EROFS'
p217
sa(dp218
g1
I01
sg5
I5
sg6
S'ESHUTDOWN'
p219
sa(dp220
g1
I01
sg5
I5
sg6
S'ESOCKTNOSUPPORT'
p221
sa(dp222
g1
I01
sg5
I5
sg6
S'ESPIPE'
p223
sa(dp224
g1
I01
sg5
I5
sg6
S'ESRCH'
p225
sa(dp226
g1
I01
sg5
I5
sg6
S'ESRMNT'
p227
sa(dp228
g1
I01
sg5
I5
sg6
S'ESTALE'
p229
sa(dp230
g1
I01
sg5
I5
sg6
S'ESTRPIPE'
p231
sa(dp232
g1
I01
sg5
I5
sg6
S'ETIME'
p233
sa(dp234
g1
I01
sg5
I5
sg6
S'ETIMEDOUT'
p235
sa(dp236
g1
I01
sg5
I5
sg6
S'ETOOMANYREFS'
p237
sa(dp238
g1
I01
sg5
I5
sg6
S'ETXTBSY'
p239
sa(dp240
g1
I01
sg5
I5
sg6
S'EUCLEAN'
p241
sa(dp242
g1
I01
sg5
I5
sg6
S'EUNATCH'
p243
sa(dp244
g1
I01
sg5
I5
sg6
S'EUSERS'
p245
sa(dp246
g1
I01
sg5
I5
sg6
S'EWOULDBLOCK'
p247
sa(dp248
g1
I01
sg5
I5
sg6
S'EXDEV'
p249
sa(dp250
g1
I01
sg5
I5
sg6
S'EXFULL'
p251
sa(dp252
g1
I01
sg5
I5
sg6
S'__doc__'
p253
sa(dp254
g1
I01
sg5
I5
sg6
S'__name__'
p255
sa(dp256
g1
I01
sg5
I5
sg6
S'__package__'
p257
sa(dp258
g1
I01
sg5
I5
sg6
S'errorcode'
p259
sasg6
S'errno'
p260
s.