(dp0
S'doc'
p1
S"This module makes available standard errno system symbols.\n\nThe value of each symbol is the corresponding integer value,\ne.g., on most systems, errno.ENOENT equals the integer 2.\n\nThe dictionary errno.errorcode maps numeric codes to symbol names,\ne.g., errno.errorcode[2] could be the string 'ENOENT'.\n\nSymbols that are not relevant to the underlying system are not defined.\n\nTo map error codes to error messages, use the function os.strerror(),\ne.g. os.strerror(2) could return 'No such file or directory'."
p2
sS'is_builtin'
p3
I01
sS'childs'
p4
(lp5
(dp6
g3
I01
sS'type'
p7
I5
sS'name'
p8
S'E2BIG'
p9
sa(dp10
g3
I01
sg7
I5
sg8
S'EACCES'
p11
sa(dp12
g3
I01
sg7
I5
sg8
S'EADDRINUSE'
p13
sa(dp14
g3
I01
sg7
I5
sg8
S'EADDRNOTAVAIL'
p15
sa(dp16
g3
I01
sg7
I5
sg8
S'EADV'
p17
sa(dp18
g3
I01
sg7
I5
sg8
S'EAFNOSUPPORT'
p19
sa(dp20
g3
I01
sg7
I5
sg8
S'EAGAIN'
p21
sa(dp22
g3
I01
sg7
I5
sg8
S'EALREADY'
p23
sa(dp24
g3
I01
sg7
I5
sg8
S'EBADE'
p25
sa(dp26
g3
I01
sg7
I5
sg8
S'EBADF'
p27
sa(dp28
g3
I01
sg7
I5
sg8
S'EBADFD'
p29
sa(dp30
g3
I01
sg7
I5
sg8
S'EBADMSG'
p31
sa(dp32
g3
I01
sg7
I5
sg8
S'EBADR'
p33
sa(dp34
g3
I01
sg7
I5
sg8
S'EBADRQC'
p35
sa(dp36
g3
I01
sg7
I5
sg8
S'EBADSLT'
p37
sa(dp38
g3
I01
sg7
I5
sg8
S'EBFONT'
p39
sa(dp40
g3
I01
sg7
I5
sg8
S'EBUSY'
p41
sa(dp42
g3
I01
sg7
I5
sg8
S'ECHILD'
p43
sa(dp44
g3
I01
sg7
I5
sg8
S'ECHRNG'
p45
sa(dp46
g3
I01
sg7
I5
sg8
S'ECOMM'
p47
sa(dp48
g3
I01
sg7
I5
sg8
S'ECONNABORTED'
p49
sa(dp50
g3
I01
sg7
I5
sg8
S'ECONNREFUSED'
p51
sa(dp52
g3
I01
sg7
I5
sg8
S'ECONNRESET'
p53
sa(dp54
g3
I01
sg7
I5
sg8
S'EDEADLK'
p55
sa(dp56
g3
I01
sg7
I5
sg8
S'EDEADLOCK'
p57
sa(dp58
g3
I01
sg7
I5
sg8
S'EDESTADDRREQ'
p59
sa(dp60
g3
I01
sg7
I5
sg8
S'EDOM'
p61
sa(dp62
g3
I01
sg7
I5
sg8
S'EDOTDOT'
p63
sa(dp64
g3
I01
sg7
I5
sg8
S'EDQUOT'
p65
sa(dp66
g3
I01
sg7
I5
sg8
S'EEXIST'
p67
sa(dp68
g3
I01
sg7
I5
sg8
S'EFAULT'
p69
sa(dp70
g3
I01
sg7
I5
sg8
S'EFBIG'
p71
sa(dp72
g3
I01
sg7
I5
sg8
S'EHOSTDOWN'
p73
sa(dp74
g3
I01
sg7
I5
sg8
S'EHOSTUNREACH'
p75
sa(dp76
g3
I01
sg7
I5
sg8
S'EIDRM'
p77
sa(dp78
g3
I01
sg7
I5
sg8
S'EILSEQ'
p79
sa(dp80
g3
I01
sg7
I5
sg8
S'EINPROGRESS'
p81
sa(dp82
g3
I01
sg7
I5
sg8
S'EINTR'
p83
sa(dp84
g3
I01
sg7
I5
sg8
S'EINVAL'
p85
sa(dp86
g3
I01
sg7
I5
sg8
S'EIO'
p87
sa(dp88
g3
I01
sg7
I5
sg8
S'EISCONN'
p89
sa(dp90
g3
I01
sg7
I5
sg8
S'EISDIR'
p91
sa(dp92
g3
I01
sg7
I5
sg8
S'EISNAM'
p93
sa(dp94
g3
I01
sg7
I5
sg8
S'EL2HLT'
p95
sa(dp96
g3
I01
sg7
I5
sg8
S'EL2NSYNC'
p97
sa(dp98
g3
I01
sg7
I5
sg8
S'EL3HLT'
p99
sa(dp100
g3
I01
sg7
I5
sg8
S'EL3RST'
p101
sa(dp102
g3
I01
sg7
I5
sg8
S'ELIBACC'
p103
sa(dp104
g3
I01
sg7
I5
sg8
S'ELIBBAD'
p105
sa(dp106
g3
I01
sg7
I5
sg8
S'ELIBEXEC'
p107
sa(dp108
g3
I01
sg7
I5
sg8
S'ELIBMAX'
p109
sa(dp110
g3
I01
sg7
I5
sg8
S'ELIBSCN'
p111
sa(dp112
g3
I01
sg7
I5
sg8
S'ELNRNG'
p113
sa(dp114
g3
I01
sg7
I5
sg8
S'ELOOP'
p115
sa(dp116
g3
I01
sg7
I5
sg8
S'EMFILE'
p117
sa(dp118
g3
I01
sg7
I5
sg8
S'EMLINK'
p119
sa(dp120
g3
I01
sg7
I5
sg8
S'EMSGSIZE'
p121
sa(dp122
g3
I01
sg7
I5
sg8
S'EMULTIHOP'
p123
sa(dp124
g3
I01
sg7
I5
sg8
S'ENAMETOOLONG'
p125
sa(dp126
g3
I01
sg7
I5
sg8
S'ENAVAIL'
p127
sa(dp128
g3
I01
sg7
I5
sg8
S'ENETDOWN'
p129
sa(dp130
g3
I01
sg7
I5
sg8
S'ENETRESET'
p131
sa(dp132
g3
I01
sg7
I5
sg8
S'ENETUNREACH'
p133
sa(dp134
g3
I01
sg7
I5
sg8
S'ENFILE'
p135
sa(dp136
g3
I01
sg7
I5
sg8
S'ENOANO'
p137
sa(dp138
g3
I01
sg7
I5
sg8
S'ENOBUFS'
p139
sa(dp140
g3
I01
sg7
I5
sg8
S'ENOCSI'
p141
sa(dp142
g3
I01
sg7
I5
sg8
S'ENODATA'
p143
sa(dp144
g3
I01
sg7
I5
sg8
S'ENODEV'
p145
sa(dp146
g3
I01
sg7
I5
sg8
S'ENOENT'
p147
sa(dp148
g3
I01
sg7
I5
sg8
S'ENOEXEC'
p149
sa(dp150
g3
I01
sg7
I5
sg8
S'ENOLCK'
p151
sa(dp152
g3
I01
sg7
I5
sg8
S'ENOLINK'
p153
sa(dp154
g3
I01
sg7
I5
sg8
S'ENOMEM'
p155
sa(dp156
g3
I01
sg7
I5
sg8
S'ENOMSG'
p157
sa(dp158
g3
I01
sg7
I5
sg8
S'ENONET'
p159
sa(dp160
g3
I01
sg7
I5
sg8
S'ENOPKG'
p161
sa(dp162
g3
I01
sg7
I5
sg8
S'ENOPROTOOPT'
p163
sa(dp164
g3
I01
sg7
I5
sg8
S'ENOSPC'
p165
sa(dp166
g3
I01
sg7
I5
sg8
S'ENOSR'
p167
sa(dp168
g3
I01
sg7
I5
sg8
S'ENOSTR'
p169
sa(dp170
g3
I01
sg7
I5
sg8
S'ENOSYS'
p171
sa(dp172
g3
I01
sg7
I5
sg8
S'ENOTBLK'
p173
sa(dp174
g3
I01
sg7
I5
sg8
S'ENOTCONN'
p175
sa(dp176
g3
I01
sg7
I5
sg8
S'ENOTDIR'
p177
sa(dp178
g3
I01
sg7
I5
sg8
S'ENOTEMPTY'
p179
sa(dp180
g3
I01
sg7
I5
sg8
S'ENOTNAM'
p181
sa(dp182
g3
I01
sg7
I5
sg8
S'ENOTSOCK'
p183
sa(dp184
g3
I01
sg7
I5
sg8
S'ENOTSUP'
p185
sa(dp186
g3
I01
sg7
I5
sg8
S'ENOTTY'
p187
sa(dp188
g3
I01
sg7
I5
sg8
S'ENOTUNIQ'
p189
sa(dp190
g3
I01
sg7
I5
sg8
S'ENXIO'
p191
sa(dp192
g3
I01
sg7
I5
sg8
S'EOPNOTSUPP'
p193
sa(dp194
g3
I01
sg7
I5
sg8
S'EOVERFLOW'
p195
sa(dp196
g3
I01
sg7
I5
sg8
S'EPERM'
p197
sa(dp198
g3
I01
sg7
I5
sg8
S'EPFNOSUPPORT'
p199
sa(dp200
g3
I01
sg7
I5
sg8
S'EPIPE'
p201
sa(dp202
g3
I01
sg7
I5
sg8
S'EPROTO'
p203
sa(dp204
g3
I01
sg7
I5
sg8
S'EPROTONOSUPPORT'
p205
sa(dp206
g3
I01
sg7
I5
sg8
S'EPROTOTYPE'
p207
sa(dp208
g3
I01
sg7
I5
sg8
S'ERANGE'
p209
sa(dp210
g3
I01
sg7
I5
sg8
S'EREMCHG'
p211
sa(dp212
g3
I01
sg7
I5
sg8
S'EREMOTE'
p213
sa(dp214
g3
I01
sg7
I5
sg8
S'EREMOTEIO'
p215
sa(dp216
g3
I01
sg7
I5
sg8
S'ERESTART'
p217
sa(dp218
g3
I01
sg7
I5
sg8
S'EROFS'
p219
sa(dp220
g3
I01
sg7
I5
sg8
S'ESHUTDOWN'
p221
sa(dp222
g3
I01
sg7
I5
sg8
S'ESOCKTNOSUPPORT'
p223
sa(dp224
g3
I01
sg7
I5
sg8
S'ESPIPE'
p225
sa(dp226
g3
I01
sg7
I5
sg8
S'ESRCH'
p227
sa(dp228
g3
I01
sg7
I5
sg8
S'ESRMNT'
p229
sa(dp230
g3
I01
sg7
I5
sg8
S'ESTALE'
p231
sa(dp232
g3
I01
sg7
I5
sg8
S'ESTRPIPE'
p233
sa(dp234
g3
I01
sg7
I5
sg8
S'ETIME'
p235
sa(dp236
g3
I01
sg7
I5
sg8
S'ETIMEDOUT'
p237
sa(dp238
g3
I01
sg7
I5
sg8
S'ETOOMANYREFS'
p239
sa(dp240
g3
I01
sg7
I5
sg8
S'ETXTBSY'
p241
sa(dp242
g3
I01
sg7
I5
sg8
S'EUCLEAN'
p243
sa(dp244
g3
I01
sg7
I5
sg8
S'EUNATCH'
p245
sa(dp246
g3
I01
sg7
I5
sg8
S'EUSERS'
p247
sa(dp248
g3
I01
sg7
I5
sg8
S'EWOULDBLOCK'
p249
sa(dp250
g3
I01
sg7
I5
sg8
S'EXDEV'
p251
sa(dp252
g3
I01
sg7
I5
sg8
S'EXFULL'
p253
sa(dp254
g3
I01
sg7
I5
sg8
S'__doc__'
p255
sa(dp256
g3
I01
sg7
I5
sg8
S'__name__'
p257
sa(dp258
g3
I01
sg7
I5
sg8
S'__package__'
p259
sa(dp260
g3
I01
sg7
I5
sg8
S'errorcode'
p261
sasg8
S'errno'
p262
s.