(dp0
S'is_builtin'
p1
I01
sS'childs'
p2
(lp3
(dp4
g1
I01
sg2
(lp5
(dp6
g1
I01
sS'type'
p7
I5
sS'name'
p8
S'__delattr__'
p9
sa(dp10
g1
I01
sg7
I5
sg8
S'__dict__'
p11
sa(dp12
g1
I01
sg7
I5
sg8
S'__doc__'
p13
sa(dp14
g1
I01
sg7
I2
sg8
S'__format__'
p15
sa(dp16
g1
I01
sg7
I5
sg8
S'__getattribute__'
p17
sa(dp18
g1
I01
sg7
I5
sg8
S'__getitem__'
p19
sa(dp20
g1
I01
sg7
I5
sg8
S'__getslice__'
p21
sa(dp22
g1
I01
sg7
I5
sg8
S'__hash__'
p23
sa(dp24
g1
I01
sg7
I5
sg8
S'__init__'
p25
sa(dp26
g1
I01
sg7
I2
sg8
S'__new__'
p27
sa(dp28
g1
I01
sg7
I2
sg8
S'__reduce__'
p29
sa(dp30
g1
I01
sg7
I2
sg8
S'__reduce_ex__'
p31
sa(dp32
g1
I01
sg7
I5
sg8
S'__repr__'
p33
sa(dp34
g1
I01
sg7
I5
sg8
S'__setattr__'
p35
sa(dp36
g1
I01
sg7
I2
sg8
S'__setstate__'
p37
sa(dp38
g1
I01
sg7
I2
sg8
S'__sizeof__'
p39
sa(dp40
g1
I01
sg7
I5
sg8
S'__str__'
p41
sa(dp42
g1
I01
sg7
I2
sg8
S'__subclasshook__'
p43
sa(dp44
g1
I01
sg7
I2
sg8
S'__unicode__'
p45
sa(dp46
g1
I01
sg7
I5
sg8
S'args'
p47
sa(dp48
g1
I01
sg7
I5
sg8
S'message'
p49
sasg7
I3
sg8
S'ArithmeticError'
p50
sa(dp51
g1
I01
sg2
(lp52
(dp53
g1
I01
sg7
I5
sg8
g9
sa(dp54
g1
I01
sg7
I5
sg8
g11
sa(dp55
g1
I01
sg7
I5
sg8
g13
sa(dp56
g1
I01
sg7
I2
sg8
g15
sa(dp57
g1
I01
sg7
I5
sg8
g17
sa(dp58
g1
I01
sg7
I5
sg8
g19
sa(dp59
g1
I01
sg7
I5
sg8
g21
sa(dp60
g1
I01
sg7
I5
sg8
g23
sa(dp61
g1
I01
sg7
I5
sg8
g25
sa(dp62
g1
I01
sg7
I2
sg8
g27
sa(dp63
g1
I01
sg7
I2
sg8
g29
sa(dp64
g1
I01
sg7
I2
sg8
g31
sa(dp65
g1
I01
sg7
I5
sg8
g33
sa(dp66
g1
I01
sg7
I5
sg8
g35
sa(dp67
g1
I01
sg7
I2
sg8
g37
sa(dp68
g1
I01
sg7
I2
sg8
g39
sa(dp69
g1
I01
sg7
I5
sg8
g41
sa(dp70
g1
I01
sg7
I2
sg8
g43
sa(dp71
g1
I01
sg7
I2
sg8
g45
sa(dp72
g1
I01
sg7
I5
sg8
g47
sa(dp73
g1
I01
sg7
I5
sg8
g49
sasg7
I3
sg8
S'AssertionError'
p74
sa(dp75
g1
I01
sg2
(lp76
(dp77
g1
I01
sg7
I5
sg8
g9
sa(dp78
g1
I01
sg7
I5
sg8
g11
sa(dp79
g1
I01
sg7
I5
sg8
g13
sa(dp80
g1
I01
sg7
I2
sg8
g15
sa(dp81
g1
I01
sg7
I5
sg8
g17
sa(dp82
g1
I01
sg7
I5
sg8
g19
sa(dp83
g1
I01
sg7
I5
sg8
g21
sa(dp84
g1
I01
sg7
I5
sg8
g23
sa(dp85
g1
I01
sg7
I5
sg8
g25
sa(dp86
g1
I01
sg7
I2
sg8
g27
sa(dp87
g1
I01
sg7
I2
sg8
g29
sa(dp88
g1
I01
sg7
I2
sg8
g31
sa(dp89
g1
I01
sg7
I5
sg8
g33
sa(dp90
g1
I01
sg7
I5
sg8
g35
sa(dp91
g1
I01
sg7
I2
sg8
g37
sa(dp92
g1
I01
sg7
I2
sg8
g39
sa(dp93
g1
I01
sg7
I5
sg8
g41
sa(dp94
g1
I01
sg7
I2
sg8
g43
sa(dp95
g1
I01
sg7
I2
sg8
g45
sa(dp96
g1
I01
sg7
I5
sg8
g47
sa(dp97
g1
I01
sg7
I5
sg8
g49
sasg7
I3
sg8
S'AttributeError'
p98
sa(dp99
g1
I01
sg2
(lp100
(dp101
g1
I01
sg7
I5
sg8
g9
sa(dp102
g1
I01
sg7
I5
sg8
g11
sa(dp103
g1
I01
sg7
I5
sg8
g13
sa(dp104
g1
I01
sg7
I2
sg8
g15
sa(dp105
g1
I01
sg7
I5
sg8
g17
sa(dp106
g1
I01
sg7
I5
sg8
g19
sa(dp107
g1
I01
sg7
I5
sg8
g21
sa(dp108
g1
I01
sg7
I5
sg8
g23
sa(dp109
g1
I01
sg7
I5
sg8
g25
sa(dp110
g1
I01
sg7
I2
sg8
g27
sa(dp111
g1
I01
sg7
I2
sg8
g29
sa(dp112
g1
I01
sg7
I2
sg8
g31
sa(dp113
g1
I01
sg7
I5
sg8
g33
sa(dp114
g1
I01
sg7
I5
sg8
g35
sa(dp115
g1
I01
sg7
I2
sg8
g37
sa(dp116
g1
I01
sg7
I2
sg8
g39
sa(dp117
g1
I01
sg7
I5
sg8
g41
sa(dp118
g1
I01
sg7
I2
sg8
g43
sa(dp119
g1
I01
sg7
I2
sg8
g45
sa(dp120
g1
I01
sg7
I5
sg8
g47
sa(dp121
g1
I01
sg7
I5
sg8
g49
sasg7
I3
sg8
S'BaseException'
p122
sa(dp123
g1
I01
sg2
(lp124
(dp125
g1
I01
sg7
I5
sg8
g9
sa(dp126
g1
I01
sg7
I5
sg8
g11
sa(dp127
g1
I01
sg7
I5
sg8
g13
sa(dp128
g1
I01
sg7
I2
sg8
g15
sa(dp129
g1
I01
sg7
I5
sg8
g17
sa(dp130
g1
I01
sg7
I5
sg8
g19
sa(dp131
g1
I01
sg7
I5
sg8
g21
sa(dp132
g1
I01
sg7
I5
sg8
g23
sa(dp133
g1
I01
sg7
I5
sg8
g25
sa(dp134
g1
I01
sg7
I2
sg8
g27
sa(dp135
g1
I01
sg7
I2
sg8
g29
sa(dp136
g1
I01
sg7
I2
sg8
g31
sa(dp137
g1
I01
sg7
I5
sg8
g33
sa(dp138
g1
I01
sg7
I5
sg8
g35
sa(dp139
g1
I01
sg7
I2
sg8
g37
sa(dp140
g1
I01
sg7
I2
sg8
g39
sa(dp141
g1
I01
sg7
I5
sg8
g41
sa(dp142
g1
I01
sg7
I2
sg8
g43
sa(dp143
g1
I01
sg7
I2
sg8
g45
sa(dp144
g1
I01
sg7
I5
sg8
g47
sa(dp145
g1
I01
sg7
I5
sg8
g49
sasg7
I3
sg8
S'BufferError'
p146
sa(dp147
g1
I01
sg2
(lp148
(dp149
g1
I01
sg7
I5
sg8
g9
sa(dp150
g1
I01
sg7
I5
sg8
g11
sa(dp151
g1
I01
sg7
I5
sg8
g13
sa(dp152
g1
I01
sg7
I2
sg8
g15
sa(dp153
g1
I01
sg7
I5
sg8
g17
sa(dp154
g1
I01
sg7
I5
sg8
g19
sa(dp155
g1
I01
sg7
I5
sg8
g21
sa(dp156
g1
I01
sg7
I5
sg8
g23
sa(dp157
g1
I01
sg7
I5
sg8
g25
sa(dp158
g1
I01
sg7
I2
sg8
g27
sa(dp159
g1
I01
sg7
I2
sg8
g29
sa(dp160
g1
I01
sg7
I2
sg8
g31
sa(dp161
g1
I01
sg7
I5
sg8
g33
sa(dp162
g1
I01
sg7
I5
sg8
g35
sa(dp163
g1
I01
sg7
I2
sg8
g37
sa(dp164
g1
I01
sg7
I2
sg8
g39
sa(dp165
g1
I01
sg7
I5
sg8
g41
sa(dp166
g1
I01
sg7
I2
sg8
g43
sa(dp167
g1
I01
sg7
I2
sg8
g45
sa(dp168
g1
I01
sg7
I5
sg8
g47
sa(dp169
g1
I01
sg7
I5
sg8
g49
sasg7
I3
sg8
S'BytesWarning'
p170
sa(dp171
g1
I01
sg2
(lp172
(dp173
g1
I01
sg7
I5
sg8
g9
sa(dp174
g1
I01
sg7
I5
sg8
g11
sa(dp175
g1
I01
sg7
I5
sg8
g13
sa(dp176
g1
I01
sg7
I2
sg8
g15
sa(dp177
g1
I01
sg7
I5
sg8
g17
sa(dp178
g1
I01
sg7
I5
sg8
g19
sa(dp179
g1
I01
sg7
I5
sg8
g21
sa(dp180
g1
I01
sg7
I5
sg8
g23
sa(dp181
g1
I01
sg7
I5
sg8
g25
sa(dp182
g1
I01
sg7
I2
sg8
g27
sa(dp183
g1
I01
sg7
I2
sg8
g29
sa(dp184
g1
I01
sg7
I2
sg8
g31
sa(dp185
g1
I01
sg7
I5
sg8
g33
sa(dp186
g1
I01
sg7
I5
sg8
g35
sa(dp187
g1
I01
sg7
I2
sg8
g37
sa(dp188
g1
I01
sg7
I2
sg8
g39
sa(dp189
g1
I01
sg7
I5
sg8
g41
sa(dp190
g1
I01
sg7
I2
sg8
g43
sa(dp191
g1
I01
sg7
I2
sg8
g45
sa(dp192
g1
I01
sg7
I5
sg8
g47
sa(dp193
g1
I01
sg7
I5
sg8
g49
sasg7
I3
sg8
S'DeprecationWarning'
p194
sa(dp195
g1
I01
sg2
(lp196
(dp197
g1
I01
sg7
I5
sg8
g9
sa(dp198
g1
I01
sg7
I5
sg8
g11
sa(dp199
g1
I01
sg7
I5
sg8
g13
sa(dp200
g1
I01
sg7
I2
sg8
g15
sa(dp201
g1
I01
sg7
I5
sg8
g17
sa(dp202
g1
I01
sg7
I5
sg8
g19
sa(dp203
g1
I01
sg7
I5
sg8
g21
sa(dp204
g1
I01
sg7
I5
sg8
g23
sa(dp205
g1
I01
sg7
I5
sg8
g25
sa(dp206
g1
I01
sg7
I2
sg8
g27
sa(dp207
g1
I01
sg7
I2
sg8
g29
sa(dp208
g1
I01
sg7
I2
sg8
g31
sa(dp209
g1
I01
sg7
I5
sg8
g33
sa(dp210
g1
I01
sg7
I5
sg8
g35
sa(dp211
g1
I01
sg7
I2
sg8
g37
sa(dp212
g1
I01
sg7
I2
sg8
g39
sa(dp213
g1
I01
sg7
I5
sg8
g41
sa(dp214
g1
I01
sg7
I2
sg8
g43
sa(dp215
g1
I01
sg7
I2
sg8
g45
sa(dp216
g1
I01
sg7
I5
sg8
g47
sa(dp217
g1
I01
sg7
I5
sg8
g49
sasg7
I3
sg8
S'EOFError'
p218
sa(dp219
g1
I01
sg2
(lp220
(dp221
g1
I01
sg7
I5
sg8
g9
sa(dp222
g1
I01
sg7
I5
sg8
g11
sa(dp223
g1
I01
sg7
I5
sg8
g13
sa(dp224
g1
I01
sg7
I2
sg8
g15
sa(dp225
g1
I01
sg7
I5
sg8
g17
sa(dp226
g1
I01
sg7
I5
sg8
g19
sa(dp227
g1
I01
sg7
I5
sg8
g21
sa(dp228
g1
I01
sg7
I5
sg8
g23
sa(dp229
g1
I01
sg7
I5
sg8
g25
sa(dp230
g1
I01
sg7
I2
sg8
g27
sa(dp231
g1
I01
sg7
I2
sg8
g29
sa(dp232
g1
I01
sg7
I2
sg8
g31
sa(dp233
g1
I01
sg7
I5
sg8
g33
sa(dp234
g1
I01
sg7
I5
sg8
g35
sa(dp235
g1
I01
sg7
I2
sg8
g37
sa(dp236
g1
I01
sg7
I2
sg8
g39
sa(dp237
g1
I01
sg7
I5
sg8
g41
sa(dp238
g1
I01
sg7
I2
sg8
g43
sa(dp239
g1
I01
sg7
I2
sg8
g45
sa(dp240
g1
I01
sg7
I5
sg8
g47
sa(dp241
g1
I01
sg7
I5
sg8
S'errno'
p242
sa(dp243
g1
I01
sg7
I5
sg8
S'filename'
p244
sa(dp245
g1
I01
sg7
I5
sg8
g49
sa(dp246
g1
I01
sg7
I5
sg8
S'strerror'
p247
sasg7
I3
sg8
S'EnvironmentError'
p248
sa(dp249
g1
I01
sg2
(lp250
(dp251
g1
I01
sg7
I5
sg8
g9
sa(dp252
g1
I01
sg7
I5
sg8
g11
sa(dp253
g1
I01
sg7
I5
sg8
g13
sa(dp254
g1
I01
sg7
I2
sg8
g15
sa(dp255
g1
I01
sg7
I5
sg8
g17
sa(dp256
g1
I01
sg7
I5
sg8
g19
sa(dp257
g1
I01
sg7
I5
sg8
g21
sa(dp258
g1
I01
sg7
I5
sg8
g23
sa(dp259
g1
I01
sg7
I5
sg8
g25
sa(dp260
g1
I01
sg7
I2
sg8
g27
sa(dp261
g1
I01
sg7
I2
sg8
g29
sa(dp262
g1
I01
sg7
I2
sg8
g31
sa(dp263
g1
I01
sg7
I5
sg8
g33
sa(dp264
g1
I01
sg7
I5
sg8
g35
sa(dp265
g1
I01
sg7
I2
sg8
g37
sa(dp266
g1
I01
sg7
I2
sg8
g39
sa(dp267
g1
I01
sg7
I5
sg8
g41
sa(dp268
g1
I01
sg7
I2
sg8
g43
sa(dp269
g1
I01
sg7
I2
sg8
g45
sa(dp270
g1
I01
sg7
I5
sg8
g47
sa(dp271
g1
I01
sg7
I5
sg8
g49
sasg7
I3
sg8
S'Exception'
p272
sa(dp273
g1
I01
sg2
(lp274
(dp275
g1
I01
sg7
I5
sg8
g9
sa(dp276
g1
I01
sg7
I5
sg8
g11
sa(dp277
g1
I01
sg7
I5
sg8
g13
sa(dp278
g1
I01
sg7
I2
sg8
g15
sa(dp279
g1
I01
sg7
I5
sg8
g17
sa(dp280
g1
I01
sg7
I5
sg8
g19
sa(dp281
g1
I01
sg7
I5
sg8
g21
sa(dp282
g1
I01
sg7
I5
sg8
g23
sa(dp283
g1
I01
sg7
I5
sg8
g25
sa(dp284
g1
I01
sg7
I2
sg8
g27
sa(dp285
g1
I01
sg7
I2
sg8
g29
sa(dp286
g1
I01
sg7
I2
sg8
g31
sa(dp287
g1
I01
sg7
I5
sg8
g33
sa(dp288
g1
I01
sg7
I5
sg8
g35
sa(dp289
g1
I01
sg7
I2
sg8
g37
sa(dp290
g1
I01
sg7
I2
sg8
g39
sa(dp291
g1
I01
sg7
I5
sg8
g41
sa(dp292
g1
I01
sg7
I2
sg8
g43
sa(dp293
g1
I01
sg7
I2
sg8
g45
sa(dp294
g1
I01
sg7
I5
sg8
g47
sa(dp295
g1
I01
sg7
I5
sg8
g49
sasg7
I3
sg8
S'FloatingPointError'
p296
sa(dp297
g1
I01
sg2
(lp298
(dp299
g1
I01
sg7
I5
sg8
g9
sa(dp300
g1
I01
sg7
I5
sg8
g11
sa(dp301
g1
I01
sg7
I5
sg8
g13
sa(dp302
g1
I01
sg7
I2
sg8
g15
sa(dp303
g1
I01
sg7
I5
sg8
g17
sa(dp304
g1
I01
sg7
I5
sg8
g19
sa(dp305
g1
I01
sg7
I5
sg8
g21
sa(dp306
g1
I01
sg7
I5
sg8
g23
sa(dp307
g1
I01
sg7
I5
sg8
g25
sa(dp308
g1
I01
sg7
I2
sg8
g27
sa(dp309
g1
I01
sg7
I2
sg8
g29
sa(dp310
g1
I01
sg7
I2
sg8
g31
sa(dp311
g1
I01
sg7
I5
sg8
g33
sa(dp312
g1
I01
sg7
I5
sg8
g35
sa(dp313
g1
I01
sg7
I2
sg8
g37
sa(dp314
g1
I01
sg7
I2
sg8
g39
sa(dp315
g1
I01
sg7
I5
sg8
g41
sa(dp316
g1
I01
sg7
I2
sg8
g43
sa(dp317
g1
I01
sg7
I2
sg8
g45
sa(dp318
g1
I01
sg7
I5
sg8
g47
sa(dp319
g1
I01
sg7
I5
sg8
g49
sasg7
I3
sg8
S'FutureWarning'
p320
sa(dp321
g1
I01
sg2
(lp322
(dp323
g1
I01
sg7
I5
sg8
g9
sa(dp324
g1
I01
sg7
I5
sg8
g11
sa(dp325
g1
I01
sg7
I5
sg8
g13
sa(dp326
g1
I01
sg7
I2
sg8
g15
sa(dp327
g1
I01
sg7
I5
sg8
g17
sa(dp328
g1
I01
sg7
I5
sg8
g19
sa(dp329
g1
I01
sg7
I5
sg8
g21
sa(dp330
g1
I01
sg7
I5
sg8
g23
sa(dp331
g1
I01
sg7
I5
sg8
g25
sa(dp332
g1
I01
sg7
I2
sg8
g27
sa(dp333
g1
I01
sg7
I2
sg8
g29
sa(dp334
g1
I01
sg7
I2
sg8
g31
sa(dp335
g1
I01
sg7
I5
sg8
g33
sa(dp336
g1
I01
sg7
I5
sg8
g35
sa(dp337
g1
I01
sg7
I2
sg8
g37
sa(dp338
g1
I01
sg7
I2
sg8
g39
sa(dp339
g1
I01
sg7
I5
sg8
g41
sa(dp340
g1
I01
sg7
I2
sg8
g43
sa(dp341
g1
I01
sg7
I2
sg8
g45
sa(dp342
g1
I01
sg7
I5
sg8
g47
sa(dp343
g1
I01
sg7
I5
sg8
g49
sasg7
I3
sg8
S'GeneratorExit'
p344
sa(dp345
g1
I01
sg2
(lp346
(dp347
g1
I01
sg7
I5
sg8
g9
sa(dp348
g1
I01
sg7
I5
sg8
g11
sa(dp349
g1
I01
sg7
I5
sg8
g13
sa(dp350
g1
I01
sg7
I2
sg8
g15
sa(dp351
g1
I01
sg7
I5
sg8
g17
sa(dp352
g1
I01
sg7
I5
sg8
g19
sa(dp353
g1
I01
sg7
I5
sg8
g21
sa(dp354
g1
I01
sg7
I5
sg8
g23
sa(dp355
g1
I01
sg7
I5
sg8
g25
sa(dp356
g1
I01
sg7
I2
sg8
g27
sa(dp357
g1
I01
sg7
I2
sg8
g29
sa(dp358
g1
I01
sg7
I2
sg8
g31
sa(dp359
g1
I01
sg7
I5
sg8
g33
sa(dp360
g1
I01
sg7
I5
sg8
g35
sa(dp361
g1
I01
sg7
I2
sg8
g37
sa(dp362
g1
I01
sg7
I2
sg8
g39
sa(dp363
g1
I01
sg7
I5
sg8
g41
sa(dp364
g1
I01
sg7
I2
sg8
g43
sa(dp365
g1
I01
sg7
I2
sg8
g45
sa(dp366
g1
I01
sg7
I5
sg8
g47
sa(dp367
g1
I01
sg7
I5
sg8
g242
sa(dp368
g1
I01
sg7
I5
sg8
g244
sa(dp369
g1
I01
sg7
I5
sg8
g49
sa(dp370
g1
I01
sg7
I5
sg8
g247
sasg7
I3
sg8
S'IOError'
p371
sa(dp372
g1
I01
sg2
(lp373
(dp374
g1
I01
sg7
I5
sg8
g9
sa(dp375
g1
I01
sg7
I5
sg8
g11
sa(dp376
g1
I01
sg7
I5
sg8
g13
sa(dp377
g1
I01
sg7
I2
sg8
g15
sa(dp378
g1
I01
sg7
I5
sg8
g17
sa(dp379
g1
I01
sg7
I5
sg8
g19
sa(dp380
g1
I01
sg7
I5
sg8
g21
sa(dp381
g1
I01
sg7
I5
sg8
g23
sa(dp382
g1
I01
sg7
I5
sg8
g25
sa(dp383
g1
I01
sg7
I2
sg8
g27
sa(dp384
g1
I01
sg7
I2
sg8
g29
sa(dp385
g1
I01
sg7
I2
sg8
g31
sa(dp386
g1
I01
sg7
I5
sg8
g33
sa(dp387
g1
I01
sg7
I5
sg8
g35
sa(dp388
g1
I01
sg7
I2
sg8
g37
sa(dp389
g1
I01
sg7
I2
sg8
g39
sa(dp390
g1
I01
sg7
I5
sg8
g41
sa(dp391
g1
I01
sg7
I2
sg8
g43
sa(dp392
g1
I01
sg7
I2
sg8
g45
sa(dp393
g1
I01
sg7
I5
sg8
g47
sa(dp394
g1
I01
sg7
I5
sg8
g49
sasg7
I3
sg8
S'ImportError'
p395
sa(dp396
g1
I01
sg2
(lp397
(dp398
g1
I01
sg7
I5
sg8
g9
sa(dp399
g1
I01
sg7
I5
sg8
g11
sa(dp400
g1
I01
sg7
I5
sg8
g13
sa(dp401
g1
I01
sg7
I2
sg8
g15
sa(dp402
g1
I01
sg7
I5
sg8
g17
sa(dp403
g1
I01
sg7
I5
sg8
g19
sa(dp404
g1
I01
sg7
I5
sg8
g21
sa(dp405
g1
I01
sg7
I5
sg8
g23
sa(dp406
g1
I01
sg7
I5
sg8
g25
sa(dp407
g1
I01
sg7
I2
sg8
g27
sa(dp408
g1
I01
sg7
I2
sg8
g29
sa(dp409
g1
I01
sg7
I2
sg8
g31
sa(dp410
g1
I01
sg7
I5
sg8
g33
sa(dp411
g1
I01
sg7
I5
sg8
g35
sa(dp412
g1
I01
sg7
I2
sg8
g37
sa(dp413
g1
I01
sg7
I2
sg8
g39
sa(dp414
g1
I01
sg7
I5
sg8
g41
sa(dp415
g1
I01
sg7
I2
sg8
g43
sa(dp416
g1
I01
sg7
I2
sg8
g45
sa(dp417
g1
I01
sg7
I5
sg8
g47
sa(dp418
g1
I01
sg7
I5
sg8
g49
sasg7
I3
sg8
S'ImportWarning'
p419
sa(dp420
g1
I01
sg2
(lp421
(dp422
g1
I01
sg7
I5
sg8
g9
sa(dp423
g1
I01
sg7
I5
sg8
g11
sa(dp424
g1
I01
sg7
I5
sg8
g13
sa(dp425
g1
I01
sg7
I2
sg8
g15
sa(dp426
g1
I01
sg7
I5
sg8
g17
sa(dp427
g1
I01
sg7
I5
sg8
g19
sa(dp428
g1
I01
sg7
I5
sg8
g21
sa(dp429
g1
I01
sg7
I5
sg8
g23
sa(dp430
g1
I01
sg7
I5
sg8
g25
sa(dp431
g1
I01
sg7
I2
sg8
g27
sa(dp432
g1
I01
sg7
I2
sg8
g29
sa(dp433
g1
I01
sg7
I2
sg8
g31
sa(dp434
g1
I01
sg7
I5
sg8
g33
sa(dp435
g1
I01
sg7
I5
sg8
g35
sa(dp436
g1
I01
sg7
I2
sg8
g37
sa(dp437
g1
I01
sg7
I2
sg8
g39
sa(dp438
g1
I01
sg7
I5
sg8
g41
sa(dp439
g1
I01
sg7
I2
sg8
g43
sa(dp440
g1
I01
sg7
I2
sg8
g45
sa(dp441
g1
I01
sg7
I5
sg8
g47
sa(dp442
g1
I01
sg7
I5
sg8
g244
sa(dp443
g1
I01
sg7
I5
sg8
S'lineno'
p444
sa(dp445
g1
I01
sg7
I5
sg8
g49
sa(dp446
g1
I01
sg7
I5
sg8
S'msg'
p447
sa(dp448
g1
I01
sg7
I5
sg8
S'offset'
p449
sa(dp450
g1
I01
sg7
I5
sg8
S'print_file_and_line'
p451
sa(dp452
g1
I01
sg7
I5
sg8
S'text'
p453
sasg7
I3
sg8
S'IndentationError'
p454
sa(dp455
g1
I01
sg2
(lp456
(dp457
g1
I01
sg7
I5
sg8
g9
sa(dp458
g1
I01
sg7
I5
sg8
g11
sa(dp459
g1
I01
sg7
I5
sg8
g13
sa(dp460
g1
I01
sg7
I2
sg8
g15
sa(dp461
g1
I01
sg7
I5
sg8
g17
sa(dp462
g1
I01
sg7
I5
sg8
g19
sa(dp463
g1
I01
sg7
I5
sg8
g21
sa(dp464
g1
I01
sg7
I5
sg8
g23
sa(dp465
g1
I01
sg7
I5
sg8
g25
sa(dp466
g1
I01
sg7
I2
sg8
g27
sa(dp467
g1
I01
sg7
I2
sg8
g29
sa(dp468
g1
I01
sg7
I2
sg8
g31
sa(dp469
g1
I01
sg7
I5
sg8
g33
sa(dp470
g1
I01
sg7
I5
sg8
g35
sa(dp471
g1
I01
sg7
I2
sg8
g37
sa(dp472
g1
I01
sg7
I2
sg8
g39
sa(dp473
g1
I01
sg7
I5
sg8
g41
sa(dp474
g1
I01
sg7
I2
sg8
g43
sa(dp475
g1
I01
sg7
I2
sg8
g45
sa(dp476
g1
I01
sg7
I5
sg8
g47
sa(dp477
g1
I01
sg7
I5
sg8
g49
sasg7
I3
sg8
S'IndexError'
p478
sa(dp479
g1
I01
sg2
(lp480
(dp481
g1
I01
sg7
I5
sg8
g9
sa(dp482
g1
I01
sg7
I5
sg8
g11
sa(dp483
g1
I01
sg7
I5
sg8
g13
sa(dp484
g1
I01
sg7
I2
sg8
g15
sa(dp485
g1
I01
sg7
I5
sg8
g17
sa(dp486
g1
I01
sg7
I5
sg8
g19
sa(dp487
g1
I01
sg7
I5
sg8
g21
sa(dp488
g1
I01
sg7
I5
sg8
g23
sa(dp489
g1
I01
sg7
I5
sg8
g25
sa(dp490
g1
I01
sg7
I2
sg8
g27
sa(dp491
g1
I01
sg7
I2
sg8
g29
sa(dp492
g1
I01
sg7
I2
sg8
g31
sa(dp493
g1
I01
sg7
I5
sg8
g33
sa(dp494
g1
I01
sg7
I5
sg8
g35
sa(dp495
g1
I01
sg7
I2
sg8
g37
sa(dp496
g1
I01
sg7
I2
sg8
g39
sa(dp497
g1
I01
sg7
I5
sg8
g41
sa(dp498
g1
I01
sg7
I2
sg8
g43
sa(dp499
g1
I01
sg7
I2
sg8
g45
sa(dp500
g1
I01
sg7
I5
sg8
g47
sa(dp501
g1
I01
sg7
I5
sg8
g49
sasg7
I3
sg8
S'KeyError'
p502
sa(dp503
g1
I01
sg2
(lp504
(dp505
g1
I01
sg7
I5
sg8
g9
sa(dp506
g1
I01
sg7
I5
sg8
g11
sa(dp507
g1
I01
sg7
I5
sg8
g13
sa(dp508
g1
I01
sg7
I2
sg8
g15
sa(dp509
g1
I01
sg7
I5
sg8
g17
sa(dp510
g1
I01
sg7
I5
sg8
g19
sa(dp511
g1
I01
sg7
I5
sg8
g21
sa(dp512
g1
I01
sg7
I5
sg8
g23
sa(dp513
g1
I01
sg7
I5
sg8
g25
sa(dp514
g1
I01
sg7
I2
sg8
g27
sa(dp515
g1
I01
sg7
I2
sg8
g29
sa(dp516
g1
I01
sg7
I2
sg8
g31
sa(dp517
g1
I01
sg7
I5
sg8
g33
sa(dp518
g1
I01
sg7
I5
sg8
g35
sa(dp519
g1
I01
sg7
I2
sg8
g37
sa(dp520
g1
I01
sg7
I2
sg8
g39
sa(dp521
g1
I01
sg7
I5
sg8
g41
sa(dp522
g1
I01
sg7
I2
sg8
g43
sa(dp523
g1
I01
sg7
I2
sg8
g45
sa(dp524
g1
I01
sg7
I5
sg8
g47
sa(dp525
g1
I01
sg7
I5
sg8
g49
sasg7
I3
sg8
S'KeyboardInterrupt'
p526
sa(dp527
g1
I01
sg2
(lp528
(dp529
g1
I01
sg7
I5
sg8
g9
sa(dp530
g1
I01
sg7
I5
sg8
g11
sa(dp531
g1
I01
sg7
I5
sg8
g13
sa(dp532
g1
I01
sg7
I2
sg8
g15
sa(dp533
g1
I01
sg7
I5
sg8
g17
sa(dp534
g1
I01
sg7
I5
sg8
g19
sa(dp535
g1
I01
sg7
I5
sg8
g21
sa(dp536
g1
I01
sg7
I5
sg8
g23
sa(dp537
g1
I01
sg7
I5
sg8
g25
sa(dp538
g1
I01
sg7
I2
sg8
g27
sa(dp539
g1
I01
sg7
I2
sg8
g29
sa(dp540
g1
I01
sg7
I2
sg8
g31
sa(dp541
g1
I01
sg7
I5
sg8
g33
sa(dp542
g1
I01
sg7
I5
sg8
g35
sa(dp543
g1
I01
sg7
I2
sg8
g37
sa(dp544
g1
I01
sg7
I2
sg8
g39
sa(dp545
g1
I01
sg7
I5
sg8
g41
sa(dp546
g1
I01
sg7
I2
sg8
g43
sa(dp547
g1
I01
sg7
I2
sg8
g45
sa(dp548
g1
I01
sg7
I5
sg8
g47
sa(dp549
g1
I01
sg7
I5
sg8
g49
sasg7
I3
sg8
S'LookupError'
p550
sa(dp551
g1
I01
sg2
(lp552
(dp553
g1
I01
sg7
I5
sg8
g9
sa(dp554
g1
I01
sg7
I5
sg8
g11
sa(dp555
g1
I01
sg7
I5
sg8
g13
sa(dp556
g1
I01
sg7
I2
sg8
g15
sa(dp557
g1
I01
sg7
I5
sg8
g17
sa(dp558
g1
I01
sg7
I5
sg8
g19
sa(dp559
g1
I01
sg7
I5
sg8
g21
sa(dp560
g1
I01
sg7
I5
sg8
g23
sa(dp561
g1
I01
sg7
I5
sg8
g25
sa(dp562
g1
I01
sg7
I2
sg8
g27
sa(dp563
g1
I01
sg7
I2
sg8
g29
sa(dp564
g1
I01
sg7
I2
sg8
g31
sa(dp565
g1
I01
sg7
I5
sg8
g33
sa(dp566
g1
I01
sg7
I5
sg8
g35
sa(dp567
g1
I01
sg7
I2
sg8
g37
sa(dp568
g1
I01
sg7
I2
sg8
g39
sa(dp569
g1
I01
sg7
I5
sg8
g41
sa(dp570
g1
I01
sg7
I2
sg8
g43
sa(dp571
g1
I01
sg7
I2
sg8
g45
sa(dp572
g1
I01
sg7
I5
sg8
g47
sa(dp573
g1
I01
sg7
I5
sg8
g49
sasg7
I3
sg8
S'MemoryError'
p574
sa(dp575
g1
I01
sg2
(lp576
(dp577
g1
I01
sg7
I5
sg8
g9
sa(dp578
g1
I01
sg7
I5
sg8
g11
sa(dp579
g1
I01
sg7
I5
sg8
g13
sa(dp580
g1
I01
sg7
I2
sg8
g15
sa(dp581
g1
I01
sg7
I5
sg8
g17
sa(dp582
g1
I01
sg7
I5
sg8
g19
sa(dp583
g1
I01
sg7
I5
sg8
g21
sa(dp584
g1
I01
sg7
I5
sg8
g23
sa(dp585
g1
I01
sg7
I5
sg8
g25
sa(dp586
g1
I01
sg7
I2
sg8
g27
sa(dp587
g1
I01
sg7
I2
sg8
g29
sa(dp588
g1
I01
sg7
I2
sg8
g31
sa(dp589
g1
I01
sg7
I5
sg8
g33
sa(dp590
g1
I01
sg7
I5
sg8
g35
sa(dp591
g1
I01
sg7
I2
sg8
g37
sa(dp592
g1
I01
sg7
I2
sg8
g39
sa(dp593
g1
I01
sg7
I5
sg8
g41
sa(dp594
g1
I01
sg7
I2
sg8
g43
sa(dp595
g1
I01
sg7
I2
sg8
g45
sa(dp596
g1
I01
sg7
I5
sg8
g47
sa(dp597
g1
I01
sg7
I5
sg8
g49
sasg7
I3
sg8
S'NameError'
p598
sa(dp599
g1
I01
sg2
(lp600
(dp601
g1
I01
sg7
I5
sg8
g9
sa(dp602
g1
I01
sg7
I5
sg8
g11
sa(dp603
g1
I01
sg7
I5
sg8
g13
sa(dp604
g1
I01
sg7
I2
sg8
g15
sa(dp605
g1
I01
sg7
I5
sg8
g17
sa(dp606
g1
I01
sg7
I5
sg8
g19
sa(dp607
g1
I01
sg7
I5
sg8
g21
sa(dp608
g1
I01
sg7
I5
sg8
g23
sa(dp609
g1
I01
sg7
I5
sg8
g25
sa(dp610
g1
I01
sg7
I2
sg8
g27
sa(dp611
g1
I01
sg7
I2
sg8
g29
sa(dp612
g1
I01
sg7
I2
sg8
g31
sa(dp613
g1
I01
sg7
I5
sg8
g33
sa(dp614
g1
I01
sg7
I5
sg8
g35
sa(dp615
g1
I01
sg7
I2
sg8
g37
sa(dp616
g1
I01
sg7
I2
sg8
g39
sa(dp617
g1
I01
sg7
I5
sg8
g41
sa(dp618
g1
I01
sg7
I2
sg8
g43
sa(dp619
g1
I01
sg7
I2
sg8
g45
sa(dp620
g1
I01
sg7
I5
sg8
g47
sa(dp621
g1
I01
sg7
I5
sg8
g49
sasg7
I3
sg8
S'NotImplementedError'
p622
sa(dp623
g1
I01
sg2
(lp624
(dp625
g1
I01
sg7
I5
sg8
g9
sa(dp626
g1
I01
sg7
I5
sg8
g11
sa(dp627
g1
I01
sg7
I5
sg8
g13
sa(dp628
g1
I01
sg7
I2
sg8
g15
sa(dp629
g1
I01
sg7
I5
sg8
g17
sa(dp630
g1
I01
sg7
I5
sg8
g19
sa(dp631
g1
I01
sg7
I5
sg8
g21
sa(dp632
g1
I01
sg7
I5
sg8
g23
sa(dp633
g1
I01
sg7
I5
sg8
g25
sa(dp634
g1
I01
sg7
I2
sg8
g27
sa(dp635
g1
I01
sg7
I2
sg8
g29
sa(dp636
g1
I01
sg7
I2
sg8
g31
sa(dp637
g1
I01
sg7
I5
sg8
g33
sa(dp638
g1
I01
sg7
I5
sg8
g35
sa(dp639
g1
I01
sg7
I2
sg8
g37
sa(dp640
g1
I01
sg7
I2
sg8
g39
sa(dp641
g1
I01
sg7
I5
sg8
g41
sa(dp642
g1
I01
sg7
I2
sg8
g43
sa(dp643
g1
I01
sg7
I2
sg8
g45
sa(dp644
g1
I01
sg7
I5
sg8
g47
sa(dp645
g1
I01
sg7
I5
sg8
g242
sa(dp646
g1
I01
sg7
I5
sg8
g244
sa(dp647
g1
I01
sg7
I5
sg8
g49
sa(dp648
g1
I01
sg7
I5
sg8
g247
sasg7
I3
sg8
S'OSError'
p649
sa(dp650
g1
I01
sg2
(lp651
(dp652
g1
I01
sg7
I5
sg8
g9
sa(dp653
g1
I01
sg7
I5
sg8
g11
sa(dp654
g1
I01
sg7
I5
sg8
g13
sa(dp655
g1
I01
sg7
I2
sg8
g15
sa(dp656
g1
I01
sg7
I5
sg8
g17
sa(dp657
g1
I01
sg7
I5
sg8
g19
sa(dp658
g1
I01
sg7
I5
sg8
g21
sa(dp659
g1
I01
sg7
I5
sg8
g23
sa(dp660
g1
I01
sg7
I5
sg8
g25
sa(dp661
g1
I01
sg7
I2
sg8
g27
sa(dp662
g1
I01
sg7
I2
sg8
g29
sa(dp663
g1
I01
sg7
I2
sg8
g31
sa(dp664
g1
I01
sg7
I5
sg8
g33
sa(dp665
g1
I01
sg7
I5
sg8
g35
sa(dp666
g1
I01
sg7
I2
sg8
g37
sa(dp667
g1
I01
sg7
I2
sg8
g39
sa(dp668
g1
I01
sg7
I5
sg8
g41
sa(dp669
g1
I01
sg7
I2
sg8
g43
sa(dp670
g1
I01
sg7
I2
sg8
g45
sa(dp671
g1
I01
sg7
I5
sg8
g47
sa(dp672
g1
I01
sg7
I5
sg8
g49
sasg7
I3
sg8
S'OverflowError'
p673
sa(dp674
g1
I01
sg2
(lp675
(dp676
g1
I01
sg7
I5
sg8
g9
sa(dp677
g1
I01
sg7
I5
sg8
g11
sa(dp678
g1
I01
sg7
I5
sg8
g13
sa(dp679
g1
I01
sg7
I2
sg8
g15
sa(dp680
g1
I01
sg7
I5
sg8
g17
sa(dp681
g1
I01
sg7
I5
sg8
g19
sa(dp682
g1
I01
sg7
I5
sg8
g21
sa(dp683
g1
I01
sg7
I5
sg8
g23
sa(dp684
g1
I01
sg7
I5
sg8
g25
sa(dp685
g1
I01
sg7
I2
sg8
g27
sa(dp686
g1
I01
sg7
I2
sg8
g29
sa(dp687
g1
I01
sg7
I2
sg8
g31
sa(dp688
g1
I01
sg7
I5
sg8
g33
sa(dp689
g1
I01
sg7
I5
sg8
g35
sa(dp690
g1
I01
sg7
I2
sg8
g37
sa(dp691
g1
I01
sg7
I2
sg8
g39
sa(dp692
g1
I01
sg7
I5
sg8
g41
sa(dp693
g1
I01
sg7
I2
sg8
g43
sa(dp694
g1
I01
sg7
I2
sg8
g45
sa(dp695
g1
I01
sg7
I5
sg8
g47
sa(dp696
g1
I01
sg7
I5
sg8
g49
sasg7
I3
sg8
S'PendingDeprecationWarning'
p697
sa(dp698
g1
I01
sg2
(lp699
(dp700
g1
I01
sg7
I5
sg8
g9
sa(dp701
g1
I01
sg7
I5
sg8
g11
sa(dp702
g1
I01
sg7
I5
sg8
g13
sa(dp703
g1
I01
sg7
I2
sg8
g15
sa(dp704
g1
I01
sg7
I5
sg8
g17
sa(dp705
g1
I01
sg7
I5
sg8
g19
sa(dp706
g1
I01
sg7
I5
sg8
g21
sa(dp707
g1
I01
sg7
I5
sg8
g23
sa(dp708
g1
I01
sg7
I5
sg8
g25
sa(dp709
g1
I01
sg7
I2
sg8
g27
sa(dp710
g1
I01
sg7
I2
sg8
g29
sa(dp711
g1
I01
sg7
I2
sg8
g31
sa(dp712
g1
I01
sg7
I5
sg8
g33
sa(dp713
g1
I01
sg7
I5
sg8
g35
sa(dp714
g1
I01
sg7
I2
sg8
g37
sa(dp715
g1
I01
sg7
I2
sg8
g39
sa(dp716
g1
I01
sg7
I5
sg8
g41
sa(dp717
g1
I01
sg7
I2
sg8
g43
sa(dp718
g1
I01
sg7
I2
sg8
g45
sa(dp719
g1
I01
sg7
I5
sg8
g47
sa(dp720
g1
I01
sg7
I5
sg8
g49
sasg7
I3
sg8
S'ReferenceError'
p721
sa(dp722
g1
I01
sg2
(lp723
(dp724
g1
I01
sg7
I5
sg8
g9
sa(dp725
g1
I01
sg7
I5
sg8
g11
sa(dp726
g1
I01
sg7
I5
sg8
g13
sa(dp727
g1
I01
sg7
I2
sg8
g15
sa(dp728
g1
I01
sg7
I5
sg8
g17
sa(dp729
g1
I01
sg7
I5
sg8
g19
sa(dp730
g1
I01
sg7
I5
sg8
g21
sa(dp731
g1
I01
sg7
I5
sg8
g23
sa(dp732
g1
I01
sg7
I5
sg8
g25
sa(dp733
g1
I01
sg7
I2
sg8
g27
sa(dp734
g1
I01
sg7
I2
sg8
g29
sa(dp735
g1
I01
sg7
I2
sg8
g31
sa(dp736
g1
I01
sg7
I5
sg8
g33
sa(dp737
g1
I01
sg7
I5
sg8
g35
sa(dp738
g1
I01
sg7
I2
sg8
g37
sa(dp739
g1
I01
sg7
I2
sg8
g39
sa(dp740
g1
I01
sg7
I5
sg8
g41
sa(dp741
g1
I01
sg7
I2
sg8
g43
sa(dp742
g1
I01
sg7
I2
sg8
g45
sa(dp743
g1
I01
sg7
I5
sg8
g47
sa(dp744
g1
I01
sg7
I5
sg8
g49
sasg7
I3
sg8
S'RuntimeError'
p745
sa(dp746
g1
I01
sg2
(lp747
(dp748
g1
I01
sg7
I5
sg8
g9
sa(dp749
g1
I01
sg7
I5
sg8
g11
sa(dp750
g1
I01
sg7
I5
sg8
g13
sa(dp751
g1
I01
sg7
I2
sg8
g15
sa(dp752
g1
I01
sg7
I5
sg8
g17
sa(dp753
g1
I01
sg7
I5
sg8
g19
sa(dp754
g1
I01
sg7
I5
sg8
g21
sa(dp755
g1
I01
sg7
I5
sg8
g23
sa(dp756
g1
I01
sg7
I5
sg8
g25
sa(dp757
g1
I01
sg7
I2
sg8
g27
sa(dp758
g1
I01
sg7
I2
sg8
g29
sa(dp759
g1
I01
sg7
I2
sg8
g31
sa(dp760
g1
I01
sg7
I5
sg8
g33
sa(dp761
g1
I01
sg7
I5
sg8
g35
sa(dp762
g1
I01
sg7
I2
sg8
g37
sa(dp763
g1
I01
sg7
I2
sg8
g39
sa(dp764
g1
I01
sg7
I5
sg8
g41
sa(dp765
g1
I01
sg7
I2
sg8
g43
sa(dp766
g1
I01
sg7
I2
sg8
g45
sa(dp767
g1
I01
sg7
I5
sg8
g47
sa(dp768
g1
I01
sg7
I5
sg8
g49
sasg7
I3
sg8
S'RuntimeWarning'
p769
sa(dp770
g1
I01
sg2
(lp771
(dp772
g1
I01
sg7
I5
sg8
g9
sa(dp773
g1
I01
sg7
I5
sg8
g11
sa(dp774
g1
I01
sg7
I5
sg8
g13
sa(dp775
g1
I01
sg7
I2
sg8
g15
sa(dp776
g1
I01
sg7
I5
sg8
g17
sa(dp777
g1
I01
sg7
I5
sg8
g19
sa(dp778
g1
I01
sg7
I5
sg8
g21
sa(dp779
g1
I01
sg7
I5
sg8
g23
sa(dp780
g1
I01
sg7
I5
sg8
g25
sa(dp781
g1
I01
sg7
I2
sg8
g27
sa(dp782
g1
I01
sg7
I2
sg8
g29
sa(dp783
g1
I01
sg7
I2
sg8
g31
sa(dp784
g1
I01
sg7
I5
sg8
g33
sa(dp785
g1
I01
sg7
I5
sg8
g35
sa(dp786
g1
I01
sg7
I2
sg8
g37
sa(dp787
g1
I01
sg7
I2
sg8
g39
sa(dp788
g1
I01
sg7
I5
sg8
g41
sa(dp789
g1
I01
sg7
I2
sg8
g43
sa(dp790
g1
I01
sg7
I2
sg8
g45
sa(dp791
g1
I01
sg7
I5
sg8
g47
sa(dp792
g1
I01
sg7
I5
sg8
g49
sasg7
I3
sg8
S'StandardError'
p793
sa(dp794
g1
I01
sg2
(lp795
(dp796
g1
I01
sg7
I5
sg8
g9
sa(dp797
g1
I01
sg7
I5
sg8
g11
sa(dp798
g1
I01
sg7
I5
sg8
g13
sa(dp799
g1
I01
sg7
I2
sg8
g15
sa(dp800
g1
I01
sg7
I5
sg8
g17
sa(dp801
g1
I01
sg7
I5
sg8
g19
sa(dp802
g1
I01
sg7
I5
sg8
g21
sa(dp803
g1
I01
sg7
I5
sg8
g23
sa(dp804
g1
I01
sg7
I5
sg8
g25
sa(dp805
g1
I01
sg7
I2
sg8
g27
sa(dp806
g1
I01
sg7
I2
sg8
g29
sa(dp807
g1
I01
sg7
I2
sg8
g31
sa(dp808
g1
I01
sg7
I5
sg8
g33
sa(dp809
g1
I01
sg7
I5
sg8
g35
sa(dp810
g1
I01
sg7
I2
sg8
g37
sa(dp811
g1
I01
sg7
I2
sg8
g39
sa(dp812
g1
I01
sg7
I5
sg8
g41
sa(dp813
g1
I01
sg7
I2
sg8
g43
sa(dp814
g1
I01
sg7
I2
sg8
g45
sa(dp815
g1
I01
sg7
I5
sg8
g47
sa(dp816
g1
I01
sg7
I5
sg8
g49
sasg7
I3
sg8
S'StopIteration'
p817
sa(dp818
g1
I01
sg2
(lp819
(dp820
g1
I01
sg7
I5
sg8
g9
sa(dp821
g1
I01
sg7
I5
sg8
g11
sa(dp822
g1
I01
sg7
I5
sg8
g13
sa(dp823
g1
I01
sg7
I2
sg8
g15
sa(dp824
g1
I01
sg7
I5
sg8
g17
sa(dp825
g1
I01
sg7
I5
sg8
g19
sa(dp826
g1
I01
sg7
I5
sg8
g21
sa(dp827
g1
I01
sg7
I5
sg8
g23
sa(dp828
g1
I01
sg7
I5
sg8
g25
sa(dp829
g1
I01
sg7
I2
sg8
g27
sa(dp830
g1
I01
sg7
I2
sg8
g29
sa(dp831
g1
I01
sg7
I2
sg8
g31
sa(dp832
g1
I01
sg7
I5
sg8
g33
sa(dp833
g1
I01
sg7
I5
sg8
g35
sa(dp834
g1
I01
sg7
I2
sg8
g37
sa(dp835
g1
I01
sg7
I2
sg8
g39
sa(dp836
g1
I01
sg7
I5
sg8
g41
sa(dp837
g1
I01
sg7
I2
sg8
g43
sa(dp838
g1
I01
sg7
I2
sg8
g45
sa(dp839
g1
I01
sg7
I5
sg8
g47
sa(dp840
g1
I01
sg7
I5
sg8
g244
sa(dp841
g1
I01
sg7
I5
sg8
g444
sa(dp842
g1
I01
sg7
I5
sg8
g49
sa(dp843
g1
I01
sg7
I5
sg8
g447
sa(dp844
g1
I01
sg7
I5
sg8
g449
sa(dp845
g1
I01
sg7
I5
sg8
g451
sa(dp846
g1
I01
sg7
I5
sg8
g453
sasg7
I3
sg8
S'SyntaxError'
p847
sa(dp848
g1
I01
sg2
(lp849
(dp850
g1
I01
sg7
I5
sg8
g9
sa(dp851
g1
I01
sg7
I5
sg8
g11
sa(dp852
g1
I01
sg7
I5
sg8
g13
sa(dp853
g1
I01
sg7
I2
sg8
g15
sa(dp854
g1
I01
sg7
I5
sg8
g17
sa(dp855
g1
I01
sg7
I5
sg8
g19
sa(dp856
g1
I01
sg7
I5
sg8
g21
sa(dp857
g1
I01
sg7
I5
sg8
g23
sa(dp858
g1
I01
sg7
I5
sg8
g25
sa(dp859
g1
I01
sg7
I2
sg8
g27
sa(dp860
g1
I01
sg7
I2
sg8
g29
sa(dp861
g1
I01
sg7
I2
sg8
g31
sa(dp862
g1
I01
sg7
I5
sg8
g33
sa(dp863
g1
I01
sg7
I5
sg8
g35
sa(dp864
g1
I01
sg7
I2
sg8
g37
sa(dp865
g1
I01
sg7
I2
sg8
g39
sa(dp866
g1
I01
sg7
I5
sg8
g41
sa(dp867
g1
I01
sg7
I2
sg8
g43
sa(dp868
g1
I01
sg7
I2
sg8
g45
sa(dp869
g1
I01
sg7
I5
sg8
g47
sa(dp870
g1
I01
sg7
I5
sg8
g49
sasg7
I3
sg8
S'SyntaxWarning'
p871
sa(dp872
g1
I01
sg2
(lp873
(dp874
g1
I01
sg7
I5
sg8
g9
sa(dp875
g1
I01
sg7
I5
sg8
g11
sa(dp876
g1
I01
sg7
I5
sg8
g13
sa(dp877
g1
I01
sg7
I2
sg8
g15
sa(dp878
g1
I01
sg7
I5
sg8
g17
sa(dp879
g1
I01
sg7
I5
sg8
g19
sa(dp880
g1
I01
sg7
I5
sg8
g21
sa(dp881
g1
I01
sg7
I5
sg8
g23
sa(dp882
g1
I01
sg7
I5
sg8
g25
sa(dp883
g1
I01
sg7
I2
sg8
g27
sa(dp884
g1
I01
sg7
I2
sg8
g29
sa(dp885
g1
I01
sg7
I2
sg8
g31
sa(dp886
g1
I01
sg7
I5
sg8
g33
sa(dp887
g1
I01
sg7
I5
sg8
g35
sa(dp888
g1
I01
sg7
I2
sg8
g37
sa(dp889
g1
I01
sg7
I2
sg8
g39
sa(dp890
g1
I01
sg7
I5
sg8
g41
sa(dp891
g1
I01
sg7
I2
sg8
g43
sa(dp892
g1
I01
sg7
I2
sg8
g45
sa(dp893
g1
I01
sg7
I5
sg8
g47
sa(dp894
g1
I01
sg7
I5
sg8
g49
sasg7
I3
sg8
S'SystemError'
p895
sa(dp896
g1
I01
sg2
(lp897
(dp898
g1
I01
sg7
I5
sg8
g9
sa(dp899
g1
I01
sg7
I5
sg8
g11
sa(dp900
g1
I01
sg7
I5
sg8
g13
sa(dp901
g1
I01
sg7
I2
sg8
g15
sa(dp902
g1
I01
sg7
I5
sg8
g17
sa(dp903
g1
I01
sg7
I5
sg8
g19
sa(dp904
g1
I01
sg7
I5
sg8
g21
sa(dp905
g1
I01
sg7
I5
sg8
g23
sa(dp906
g1
I01
sg7
I5
sg8
g25
sa(dp907
g1
I01
sg7
I2
sg8
g27
sa(dp908
g1
I01
sg7
I2
sg8
g29
sa(dp909
g1
I01
sg7
I2
sg8
g31
sa(dp910
g1
I01
sg7
I5
sg8
g33
sa(dp911
g1
I01
sg7
I5
sg8
g35
sa(dp912
g1
I01
sg7
I2
sg8
g37
sa(dp913
g1
I01
sg7
I2
sg8
g39
sa(dp914
g1
I01
sg7
I5
sg8
g41
sa(dp915
g1
I01
sg7
I2
sg8
g43
sa(dp916
g1
I01
sg7
I2
sg8
g45
sa(dp917
g1
I01
sg7
I5
sg8
g47
sa(dp918
g1
I01
sg7
I5
sg8
S'code'
p919
sa(dp920
g1
I01
sg7
I5
sg8
g49
sasg7
I3
sg8
S'SystemExit'
p921
sa(dp922
g1
I01
sg2
(lp923
(dp924
g1
I01
sg7
I5
sg8
g9
sa(dp925
g1
I01
sg7
I5
sg8
g11
sa(dp926
g1
I01
sg7
I5
sg8
g13
sa(dp927
g1
I01
sg7
I2
sg8
g15
sa(dp928
g1
I01
sg7
I5
sg8
g17
sa(dp929
g1
I01
sg7
I5
sg8
g19
sa(dp930
g1
I01
sg7
I5
sg8
g21
sa(dp931
g1
I01
sg7
I5
sg8
g23
sa(dp932
g1
I01
sg7
I5
sg8
g25
sa(dp933
g1
I01
sg7
I2
sg8
g27
sa(dp934
g1
I01
sg7
I2
sg8
g29
sa(dp935
g1
I01
sg7
I2
sg8
g31
sa(dp936
g1
I01
sg7
I5
sg8
g33
sa(dp937
g1
I01
sg7
I5
sg8
g35
sa(dp938
g1
I01
sg7
I2
sg8
g37
sa(dp939
g1
I01
sg7
I2
sg8
g39
sa(dp940
g1
I01
sg7
I5
sg8
g41
sa(dp941
g1
I01
sg7
I2
sg8
g43
sa(dp942
g1
I01
sg7
I2
sg8
g45
sa(dp943
g1
I01
sg7
I5
sg8
g47
sa(dp944
g1
I01
sg7
I5
sg8
g244
sa(dp945
g1
I01
sg7
I5
sg8
g444
sa(dp946
g1
I01
sg7
I5
sg8
g49
sa(dp947
g1
I01
sg7
I5
sg8
g447
sa(dp948
g1
I01
sg7
I5
sg8
g449
sa(dp949
g1
I01
sg7
I5
sg8
g451
sa(dp950
g1
I01
sg7
I5
sg8
g453
sasg7
I3
sg8
S'TabError'
p951
sa(dp952
g1
I01
sg2
(lp953
(dp954
g1
I01
sg7
I5
sg8
g9
sa(dp955
g1
I01
sg7
I5
sg8
g11
sa(dp956
g1
I01
sg7
I5
sg8
g13
sa(dp957
g1
I01
sg7
I2
sg8
g15
sa(dp958
g1
I01
sg7
I5
sg8
g17
sa(dp959
g1
I01
sg7
I5
sg8
g19
sa(dp960
g1
I01
sg7
I5
sg8
g21
sa(dp961
g1
I01
sg7
I5
sg8
g23
sa(dp962
g1
I01
sg7
I5
sg8
g25
sa(dp963
g1
I01
sg7
I2
sg8
g27
sa(dp964
g1
I01
sg7
I2
sg8
g29
sa(dp965
g1
I01
sg7
I2
sg8
g31
sa(dp966
g1
I01
sg7
I5
sg8
g33
sa(dp967
g1
I01
sg7
I5
sg8
g35
sa(dp968
g1
I01
sg7
I2
sg8
g37
sa(dp969
g1
I01
sg7
I2
sg8
g39
sa(dp970
g1
I01
sg7
I5
sg8
g41
sa(dp971
g1
I01
sg7
I2
sg8
g43
sa(dp972
g1
I01
sg7
I2
sg8
g45
sa(dp973
g1
I01
sg7
I5
sg8
g47
sa(dp974
g1
I01
sg7
I5
sg8
g49
sasg7
I3
sg8
S'TypeError'
p975
sa(dp976
g1
I01
sg2
(lp977
(dp978
g1
I01
sg7
I5
sg8
g9
sa(dp979
g1
I01
sg7
I5
sg8
g11
sa(dp980
g1
I01
sg7
I5
sg8
g13
sa(dp981
g1
I01
sg7
I2
sg8
g15
sa(dp982
g1
I01
sg7
I5
sg8
g17
sa(dp983
g1
I01
sg7
I5
sg8
g19
sa(dp984
g1
I01
sg7
I5
sg8
g21
sa(dp985
g1
I01
sg7
I5
sg8
g23
sa(dp986
g1
I01
sg7
I5
sg8
g25
sa(dp987
g1
I01
sg7
I2
sg8
g27
sa(dp988
g1
I01
sg7
I2
sg8
g29
sa(dp989
g1
I01
sg7
I2
sg8
g31
sa(dp990
g1
I01
sg7
I5
sg8
g33
sa(dp991
g1
I01
sg7
I5
sg8
g35
sa(dp992
g1
I01
sg7
I2
sg8
g37
sa(dp993
g1
I01
sg7
I2
sg8
g39
sa(dp994
g1
I01
sg7
I5
sg8
g41
sa(dp995
g1
I01
sg7
I2
sg8
g43
sa(dp996
g1
I01
sg7
I2
sg8
g45
sa(dp997
g1
I01
sg7
I5
sg8
g47
sa(dp998
g1
I01
sg7
I5
sg8
g49
sasg7
I3
sg8
S'UnboundLocalError'
p999
sa(dp1000
g1
I01
sg2
(lp1001
(dp1002
g1
I01
sg7
I5
sg8
g9
sa(dp1003
g1
I01
sg7
I5
sg8
g11
sa(dp1004
g1
I01
sg7
I5
sg8
g13
sa(dp1005
g1
I01
sg7
I2
sg8
g15
sa(dp1006
g1
I01
sg7
I5
sg8
g17
sa(dp1007
g1
I01
sg7
I5
sg8
g19
sa(dp1008
g1
I01
sg7
I5
sg8
g21
sa(dp1009
g1
I01
sg7
I5
sg8
g23
sa(dp1010
g1
I01
sg7
I5
sg8
g25
sa(dp1011
g1
I01
sg7
I2
sg8
g27
sa(dp1012
g1
I01
sg7
I2
sg8
g29
sa(dp1013
g1
I01
sg7
I2
sg8
g31
sa(dp1014
g1
I01
sg7
I5
sg8
g33
sa(dp1015
g1
I01
sg7
I5
sg8
g35
sa(dp1016
g1
I01
sg7
I2
sg8
g37
sa(dp1017
g1
I01
sg7
I2
sg8
g39
sa(dp1018
g1
I01
sg7
I5
sg8
g41
sa(dp1019
g1
I01
sg7
I2
sg8
g43
sa(dp1020
g1
I01
sg7
I2
sg8
g45
sa(dp1021
g1
I01
sg7
I5
sg8
g47
sa(dp1022
g1
I01
sg7
I5
sg8
S'encoding'
p1023
sa(dp1024
g1
I01
sg7
I5
sg8
S'end'
p1025
sa(dp1026
g1
I01
sg7
I5
sg8
g49
sa(dp1027
g1
I01
sg7
I5
sg8
S'object'
p1028
sa(dp1029
g1
I01
sg7
I5
sg8
S'reason'
p1030
sa(dp1031
g1
I01
sg7
I5
sg8
S'start'
p1032
sasg7
I3
sg8
S'UnicodeDecodeError'
p1033
sa(dp1034
g1
I01
sg2
(lp1035
(dp1036
g1
I01
sg7
I5
sg8
g9
sa(dp1037
g1
I01
sg7
I5
sg8
g11
sa(dp1038
g1
I01
sg7
I5
sg8
g13
sa(dp1039
g1
I01
sg7
I2
sg8
g15
sa(dp1040
g1
I01
sg7
I5
sg8
g17
sa(dp1041
g1
I01
sg7
I5
sg8
g19
sa(dp1042
g1
I01
sg7
I5
sg8
g21
sa(dp1043
g1
I01
sg7
I5
sg8
g23
sa(dp1044
g1
I01
sg7
I5
sg8
g25
sa(dp1045
g1
I01
sg7
I2
sg8
g27
sa(dp1046
g1
I01
sg7
I2
sg8
g29
sa(dp1047
g1
I01
sg7
I2
sg8
g31
sa(dp1048
g1
I01
sg7
I5
sg8
g33
sa(dp1049
g1
I01
sg7
I5
sg8
g35
sa(dp1050
g1
I01
sg7
I2
sg8
g37
sa(dp1051
g1
I01
sg7
I2
sg8
g39
sa(dp1052
g1
I01
sg7
I5
sg8
g41
sa(dp1053
g1
I01
sg7
I2
sg8
g43
sa(dp1054
g1
I01
sg7
I2
sg8
g45
sa(dp1055
g1
I01
sg7
I5
sg8
g47
sa(dp1056
g1
I01
sg7
I5
sg8
g1023
sa(dp1057
g1
I01
sg7
I5
sg8
g1025
sa(dp1058
g1
I01
sg7
I5
sg8
g49
sa(dp1059
g1
I01
sg7
I5
sg8
g1028
sa(dp1060
g1
I01
sg7
I5
sg8
g1030
sa(dp1061
g1
I01
sg7
I5
sg8
g1032
sasg7
I3
sg8
S'UnicodeEncodeError'
p1062
sa(dp1063
g1
I01
sg2
(lp1064
(dp1065
g1
I01
sg7
I5
sg8
g9
sa(dp1066
g1
I01
sg7
I5
sg8
g11
sa(dp1067
g1
I01
sg7
I5
sg8
g13
sa(dp1068
g1
I01
sg7
I2
sg8
g15
sa(dp1069
g1
I01
sg7
I5
sg8
g17
sa(dp1070
g1
I01
sg7
I5
sg8
g19
sa(dp1071
g1
I01
sg7
I5
sg8
g21
sa(dp1072
g1
I01
sg7
I5
sg8
g23
sa(dp1073
g1
I01
sg7
I5
sg8
g25
sa(dp1074
g1
I01
sg7
I2
sg8
g27
sa(dp1075
g1
I01
sg7
I2
sg8
g29
sa(dp1076
g1
I01
sg7
I2
sg8
g31
sa(dp1077
g1
I01
sg7
I5
sg8
g33
sa(dp1078
g1
I01
sg7
I5
sg8
g35
sa(dp1079
g1
I01
sg7
I2
sg8
g37
sa(dp1080
g1
I01
sg7
I2
sg8
g39
sa(dp1081
g1
I01
sg7
I5
sg8
g41
sa(dp1082
g1
I01
sg7
I2
sg8
g43
sa(dp1083
g1
I01
sg7
I2
sg8
g45
sa(dp1084
g1
I01
sg7
I5
sg8
g47
sa(dp1085
g1
I01
sg7
I5
sg8
g49
sasg7
I3
sg8
S'UnicodeError'
p1086
sa(dp1087
g1
I01
sg2
(lp1088
(dp1089
g1
I01
sg7
I5
sg8
g9
sa(dp1090
g1
I01
sg7
I5
sg8
g11
sa(dp1091
g1
I01
sg7
I5
sg8
g13
sa(dp1092
g1
I01
sg7
I2
sg8
g15
sa(dp1093
g1
I01
sg7
I5
sg8
g17
sa(dp1094
g1
I01
sg7
I5
sg8
g19
sa(dp1095
g1
I01
sg7
I5
sg8
g21
sa(dp1096
g1
I01
sg7
I5
sg8
g23
sa(dp1097
g1
I01
sg7
I5
sg8
g25
sa(dp1098
g1
I01
sg7
I2
sg8
g27
sa(dp1099
g1
I01
sg7
I2
sg8
g29
sa(dp1100
g1
I01
sg7
I2
sg8
g31
sa(dp1101
g1
I01
sg7
I5
sg8
g33
sa(dp1102
g1
I01
sg7
I5
sg8
g35
sa(dp1103
g1
I01
sg7
I2
sg8
g37
sa(dp1104
g1
I01
sg7
I2
sg8
g39
sa(dp1105
g1
I01
sg7
I5
sg8
g41
sa(dp1106
g1
I01
sg7
I2
sg8
g43
sa(dp1107
g1
I01
sg7
I2
sg8
g45
sa(dp1108
g1
I01
sg7
I5
sg8
g47
sa(dp1109
g1
I01
sg7
I5
sg8
g1023
sa(dp1110
g1
I01
sg7
I5
sg8
g1025
sa(dp1111
g1
I01
sg7
I5
sg8
g49
sa(dp1112
g1
I01
sg7
I5
sg8
g1028
sa(dp1113
g1
I01
sg7
I5
sg8
g1030
sa(dp1114
g1
I01
sg7
I5
sg8
g1032
sasg7
I3
sg8
S'UnicodeTranslateError'
p1115
sa(dp1116
g1
I01
sg2
(lp1117
(dp1118
g1
I01
sg7
I5
sg8
g9
sa(dp1119
g1
I01
sg7
I5
sg8
g11
sa(dp1120
g1
I01
sg7
I5
sg8
g13
sa(dp1121
g1
I01
sg7
I2
sg8
g15
sa(dp1122
g1
I01
sg7
I5
sg8
g17
sa(dp1123
g1
I01
sg7
I5
sg8
g19
sa(dp1124
g1
I01
sg7
I5
sg8
g21
sa(dp1125
g1
I01
sg7
I5
sg8
g23
sa(dp1126
g1
I01
sg7
I5
sg8
g25
sa(dp1127
g1
I01
sg7
I2
sg8
g27
sa(dp1128
g1
I01
sg7
I2
sg8
g29
sa(dp1129
g1
I01
sg7
I2
sg8
g31
sa(dp1130
g1
I01
sg7
I5
sg8
g33
sa(dp1131
g1
I01
sg7
I5
sg8
g35
sa(dp1132
g1
I01
sg7
I2
sg8
g37
sa(dp1133
g1
I01
sg7
I2
sg8
g39
sa(dp1134
g1
I01
sg7
I5
sg8
g41
sa(dp1135
g1
I01
sg7
I2
sg8
g43
sa(dp1136
g1
I01
sg7
I2
sg8
g45
sa(dp1137
g1
I01
sg7
I5
sg8
g47
sa(dp1138
g1
I01
sg7
I5
sg8
g49
sasg7
I3
sg8
S'UnicodeWarning'
p1139
sa(dp1140
g1
I01
sg2
(lp1141
(dp1142
g1
I01
sg7
I5
sg8
g9
sa(dp1143
g1
I01
sg7
I5
sg8
g11
sa(dp1144
g1
I01
sg7
I5
sg8
g13
sa(dp1145
g1
I01
sg7
I2
sg8
g15
sa(dp1146
g1
I01
sg7
I5
sg8
g17
sa(dp1147
g1
I01
sg7
I5
sg8
g19
sa(dp1148
g1
I01
sg7
I5
sg8
g21
sa(dp1149
g1
I01
sg7
I5
sg8
g23
sa(dp1150
g1
I01
sg7
I5
sg8
g25
sa(dp1151
g1
I01
sg7
I2
sg8
g27
sa(dp1152
g1
I01
sg7
I2
sg8
g29
sa(dp1153
g1
I01
sg7
I2
sg8
g31
sa(dp1154
g1
I01
sg7
I5
sg8
g33
sa(dp1155
g1
I01
sg7
I5
sg8
g35
sa(dp1156
g1
I01
sg7
I2
sg8
g37
sa(dp1157
g1
I01
sg7
I2
sg8
g39
sa(dp1158
g1
I01
sg7
I5
sg8
g41
sa(dp1159
g1
I01
sg7
I2
sg8
g43
sa(dp1160
g1
I01
sg7
I2
sg8
g45
sa(dp1161
g1
I01
sg7
I5
sg8
g47
sa(dp1162
g1
I01
sg7
I5
sg8
g49
sasg7
I3
sg8
S'UserWarning'
p1163
sa(dp1164
g1
I01
sg2
(lp1165
(dp1166
g1
I01
sg7
I5
sg8
g9
sa(dp1167
g1
I01
sg7
I5
sg8
g11
sa(dp1168
g1
I01
sg7
I5
sg8
g13
sa(dp1169
g1
I01
sg7
I2
sg8
g15
sa(dp1170
g1
I01
sg7
I5
sg8
g17
sa(dp1171
g1
I01
sg7
I5
sg8
g19
sa(dp1172
g1
I01
sg7
I5
sg8
g21
sa(dp1173
g1
I01
sg7
I5
sg8
g23
sa(dp1174
g1
I01
sg7
I5
sg8
g25
sa(dp1175
g1
I01
sg7
I2
sg8
g27
sa(dp1176
g1
I01
sg7
I2
sg8
g29
sa(dp1177
g1
I01
sg7
I2
sg8
g31
sa(dp1178
g1
I01
sg7
I5
sg8
g33
sa(dp1179
g1
I01
sg7
I5
sg8
g35
sa(dp1180
g1
I01
sg7
I2
sg8
g37
sa(dp1181
g1
I01
sg7
I2
sg8
g39
sa(dp1182
g1
I01
sg7
I5
sg8
g41
sa(dp1183
g1
I01
sg7
I2
sg8
g43
sa(dp1184
g1
I01
sg7
I2
sg8
g45
sa(dp1185
g1
I01
sg7
I5
sg8
g47
sa(dp1186
g1
I01
sg7
I5
sg8
g49
sasg7
I3
sg8
S'ValueError'
p1187
sa(dp1188
g1
I01
sg2
(lp1189
(dp1190
g1
I01
sg7
I5
sg8
g9
sa(dp1191
g1
I01
sg7
I5
sg8
g11
sa(dp1192
g1
I01
sg7
I5
sg8
g13
sa(dp1193
g1
I01
sg7
I2
sg8
g15
sa(dp1194
g1
I01
sg7
I5
sg8
g17
sa(dp1195
g1
I01
sg7
I5
sg8
g19
sa(dp1196
g1
I01
sg7
I5
sg8
g21
sa(dp1197
g1
I01
sg7
I5
sg8
g23
sa(dp1198
g1
I01
sg7
I5
sg8
g25
sa(dp1199
g1
I01
sg7
I2
sg8
g27
sa(dp1200
g1
I01
sg7
I2
sg8
g29
sa(dp1201
g1
I01
sg7
I2
sg8
g31
sa(dp1202
g1
I01
sg7
I5
sg8
g33
sa(dp1203
g1
I01
sg7
I5
sg8
g35
sa(dp1204
g1
I01
sg7
I2
sg8
g37
sa(dp1205
g1
I01
sg7
I2
sg8
g39
sa(dp1206
g1
I01
sg7
I5
sg8
g41
sa(dp1207
g1
I01
sg7
I2
sg8
g43
sa(dp1208
g1
I01
sg7
I2
sg8
g45
sa(dp1209
g1
I01
sg7
I5
sg8
g47
sa(dp1210
g1
I01
sg7
I5
sg8
g49
sasg7
I3
sg8
S'Warning'
p1211
sa(dp1212
g1
I01
sg2
(lp1213
(dp1214
g1
I01
sg7
I5
sg8
g9
sa(dp1215
g1
I01
sg7
I5
sg8
g11
sa(dp1216
g1
I01
sg7
I5
sg8
g13
sa(dp1217
g1
I01
sg7
I2
sg8
g15
sa(dp1218
g1
I01
sg7
I5
sg8
g17
sa(dp1219
g1
I01
sg7
I5
sg8
g19
sa(dp1220
g1
I01
sg7
I5
sg8
g21
sa(dp1221
g1
I01
sg7
I5
sg8
g23
sa(dp1222
g1
I01
sg7
I5
sg8
g25
sa(dp1223
g1
I01
sg7
I2
sg8
g27
sa(dp1224
g1
I01
sg7
I2
sg8
g29
sa(dp1225
g1
I01
sg7
I2
sg8
g31
sa(dp1226
g1
I01
sg7
I5
sg8
g33
sa(dp1227
g1
I01
sg7
I5
sg8
g35
sa(dp1228
g1
I01
sg7
I2
sg8
g37
sa(dp1229
g1
I01
sg7
I2
sg8
g39
sa(dp1230
g1
I01
sg7
I5
sg8
g41
sa(dp1231
g1
I01
sg7
I2
sg8
g43
sa(dp1232
g1
I01
sg7
I2
sg8
g45
sa(dp1233
g1
I01
sg7
I5
sg8
g47
sa(dp1234
g1
I01
sg7
I5
sg8
g49
sasg7
I3
sg8
S'ZeroDivisionError'
p1235
sa(dp1236
g1
I01
sg7
I5
sg8
g13
sa(dp1237
g1
I01
sg7
I5
sg8
S'__name__'
p1238
sa(dp1239
g1
I01
sg7
I5
sg8
S'__package__'
p1240
sasg8
S'exceptions'
p1241
s.