(dp0
S'doc'
p1
S"Python's standard exception class hierarchy.\n\nExceptions found here are defined both in the exceptions module and the\nbuilt-in namespace.  It is recommended that user-defined exceptions\ninherit from Exception.  See the documentation for the exception\ninheritance hierarchy.\n"
p2
sS'is_builtin'
p3
I01
sS'childs'
p4
(lp5
(dp6
g1
S'Base class for arithmetic errors.'
p7
sg3
I01
sg4
(lp8
(dp9
g3
I01
sS'type'
p10
I5
sS'name'
p11
S'__delattr__'
p12
sa(dp13
g3
I01
sg10
I5
sg11
S'__dict__'
p14
sa(dp15
g3
I01
sg10
I5
sg11
S'__doc__'
p16
sa(dp17
g1
S'default object formatter'
p18
sg3
I01
sg10
I2
sg11
S'__format__'
p19
sa(dp20
g3
I01
sg10
I5
sg11
S'__getattribute__'
p21
sa(dp22
g3
I01
sg10
I5
sg11
S'__getitem__'
p23
sa(dp24
g3
I01
sg10
I5
sg11
S'__getslice__'
p25
sa(dp26
g3
I01
sg10
I5
sg11
S'__hash__'
p27
sa(dp28
g3
I01
sg10
I5
sg11
S'__init__'
p29
sa(dp30
g1
S'T.__new__(S, ...) -> a new object with type S, a subtype of T'
p31
sg3
I01
sg10
I2
sg11
S'__new__'
p32
sa(dp33
g1
Nsg3
I01
sg10
I2
sg11
S'__reduce__'
p34
sa(dp35
g1
S'helper for pickle'
p36
sg3
I01
sg10
I2
sg11
S'__reduce_ex__'
p37
sa(dp38
g3
I01
sg10
I5
sg11
S'__repr__'
p39
sa(dp40
g3
I01
sg10
I5
sg11
S'__setattr__'
p41
sa(dp42
g1
Nsg3
I01
sg10
I2
sg11
S'__setstate__'
p43
sa(dp44
g1
S'__sizeof__() -> int\nsize of object in memory, in bytes'
p45
sg3
I01
sg10
I2
sg11
S'__sizeof__'
p46
sa(dp47
g3
I01
sg10
I5
sg11
S'__str__'
p48
sa(dp49
g1
S'Abstract classes can override this to customize issubclass().\n\nThis is invoked early on by abc.ABCMeta.__subclasscheck__().\nIt should return True, False or NotImplemented.  If it returns\nNotImplemented, the normal algorithm is used.  Otherwise, it\noverrides the normal algorithm (and the outcome is cached).\n'
p50
sg3
I01
sg10
I2
sg11
S'__subclasshook__'
p51
sa(dp52
g1
Nsg3
I01
sg10
I2
sg11
S'__unicode__'
p53
sa(dp54
g3
I01
sg10
I5
sg11
S'args'
p55
sa(dp56
g3
I01
sg10
I5
sg11
S'message'
p57
sasg10
I3
sg11
S'ArithmeticError'
p58
sa(dp59
g1
S'Assertion failed.'
p60
sg3
I01
sg4
(lp61
(dp62
g3
I01
sg10
I5
sg11
g12
sa(dp63
g3
I01
sg10
I5
sg11
g14
sa(dp64
g3
I01
sg10
I5
sg11
g16
sa(dp65
g1
S'default object formatter'
p66
sg3
I01
sg10
I2
sg11
g19
sa(dp67
g3
I01
sg10
I5
sg11
g21
sa(dp68
g3
I01
sg10
I5
sg11
g23
sa(dp69
g3
I01
sg10
I5
sg11
g25
sa(dp70
g3
I01
sg10
I5
sg11
g27
sa(dp71
g3
I01
sg10
I5
sg11
g29
sa(dp72
g1
S'T.__new__(S, ...) -> a new object with type S, a subtype of T'
p73
sg3
I01
sg10
I2
sg11
g32
sa(dp74
g1
Nsg3
I01
sg10
I2
sg11
g34
sa(dp75
g1
S'helper for pickle'
p76
sg3
I01
sg10
I2
sg11
g37
sa(dp77
g3
I01
sg10
I5
sg11
g39
sa(dp78
g3
I01
sg10
I5
sg11
g41
sa(dp79
g1
Nsg3
I01
sg10
I2
sg11
g43
sa(dp80
g1
S'__sizeof__() -> int\nsize of object in memory, in bytes'
p81
sg3
I01
sg10
I2
sg11
g46
sa(dp82
g3
I01
sg10
I5
sg11
g48
sa(dp83
g1
S'Abstract classes can override this to customize issubclass().\n\nThis is invoked early on by abc.ABCMeta.__subclasscheck__().\nIt should return True, False or NotImplemented.  If it returns\nNotImplemented, the normal algorithm is used.  Otherwise, it\noverrides the normal algorithm (and the outcome is cached).\n'
p84
sg3
I01
sg10
I2
sg11
g51
sa(dp85
g1
Nsg3
I01
sg10
I2
sg11
g53
sa(dp86
g3
I01
sg10
I5
sg11
g55
sa(dp87
g3
I01
sg10
I5
sg11
g57
sasg10
I3
sg11
S'AssertionError'
p88
sa(dp89
g1
S'Attribute not found.'
p90
sg3
I01
sg4
(lp91
(dp92
g3
I01
sg10
I5
sg11
g12
sa(dp93
g3
I01
sg10
I5
sg11
g14
sa(dp94
g3
I01
sg10
I5
sg11
g16
sa(dp95
g1
S'default object formatter'
p96
sg3
I01
sg10
I2
sg11
g19
sa(dp97
g3
I01
sg10
I5
sg11
g21
sa(dp98
g3
I01
sg10
I5
sg11
g23
sa(dp99
g3
I01
sg10
I5
sg11
g25
sa(dp100
g3
I01
sg10
I5
sg11
g27
sa(dp101
g3
I01
sg10
I5
sg11
g29
sa(dp102
g1
S'T.__new__(S, ...) -> a new object with type S, a subtype of T'
p103
sg3
I01
sg10
I2
sg11
g32
sa(dp104
g1
Nsg3
I01
sg10
I2
sg11
g34
sa(dp105
g1
S'helper for pickle'
p106
sg3
I01
sg10
I2
sg11
g37
sa(dp107
g3
I01
sg10
I5
sg11
g39
sa(dp108
g3
I01
sg10
I5
sg11
g41
sa(dp109
g1
Nsg3
I01
sg10
I2
sg11
g43
sa(dp110
g1
S'__sizeof__() -> int\nsize of object in memory, in bytes'
p111
sg3
I01
sg10
I2
sg11
g46
sa(dp112
g3
I01
sg10
I5
sg11
g48
sa(dp113
g1
S'Abstract classes can override this to customize issubclass().\n\nThis is invoked early on by abc.ABCMeta.__subclasscheck__().\nIt should return True, False or NotImplemented.  If it returns\nNotImplemented, the normal algorithm is used.  Otherwise, it\noverrides the normal algorithm (and the outcome is cached).\n'
p114
sg3
I01
sg10
I2
sg11
g51
sa(dp115
g1
Nsg3
I01
sg10
I2
sg11
g53
sa(dp116
g3
I01
sg10
I5
sg11
g55
sa(dp117
g3
I01
sg10
I5
sg11
g57
sasg10
I3
sg11
S'AttributeError'
p118
sa(dp119
g1
S'Common base class for all exceptions'
p120
sg3
I01
sg4
(lp121
(dp122
g3
I01
sg10
I5
sg11
g12
sa(dp123
g3
I01
sg10
I5
sg11
g14
sa(dp124
g3
I01
sg10
I5
sg11
g16
sa(dp125
g1
S'default object formatter'
p126
sg3
I01
sg10
I2
sg11
g19
sa(dp127
g3
I01
sg10
I5
sg11
g21
sa(dp128
g3
I01
sg10
I5
sg11
g23
sa(dp129
g3
I01
sg10
I5
sg11
g25
sa(dp130
g3
I01
sg10
I5
sg11
g27
sa(dp131
g3
I01
sg10
I5
sg11
g29
sa(dp132
g1
S'T.__new__(S, ...) -> a new object with type S, a subtype of T'
p133
sg3
I01
sg10
I2
sg11
g32
sa(dp134
g1
Nsg3
I01
sg10
I2
sg11
g34
sa(dp135
g1
S'helper for pickle'
p136
sg3
I01
sg10
I2
sg11
g37
sa(dp137
g3
I01
sg10
I5
sg11
g39
sa(dp138
g3
I01
sg10
I5
sg11
g41
sa(dp139
g1
Nsg3
I01
sg10
I2
sg11
g43
sa(dp140
g1
S'__sizeof__() -> int\nsize of object in memory, in bytes'
p141
sg3
I01
sg10
I2
sg11
g46
sa(dp142
g3
I01
sg10
I5
sg11
g48
sa(dp143
g1
S'Abstract classes can override this to customize issubclass().\n\nThis is invoked early on by abc.ABCMeta.__subclasscheck__().\nIt should return True, False or NotImplemented.  If it returns\nNotImplemented, the normal algorithm is used.  Otherwise, it\noverrides the normal algorithm (and the outcome is cached).\n'
p144
sg3
I01
sg10
I2
sg11
g51
sa(dp145
g1
Nsg3
I01
sg10
I2
sg11
g53
sa(dp146
g3
I01
sg10
I5
sg11
g55
sa(dp147
g3
I01
sg10
I5
sg11
g57
sasg10
I3
sg11
S'BaseException'
p148
sa(dp149
g1
S'Buffer error.'
p150
sg3
I01
sg4
(lp151
(dp152
g3
I01
sg10
I5
sg11
g12
sa(dp153
g3
I01
sg10
I5
sg11
g14
sa(dp154
g3
I01
sg10
I5
sg11
g16
sa(dp155
g1
S'default object formatter'
p156
sg3
I01
sg10
I2
sg11
g19
sa(dp157
g3
I01
sg10
I5
sg11
g21
sa(dp158
g3
I01
sg10
I5
sg11
g23
sa(dp159
g3
I01
sg10
I5
sg11
g25
sa(dp160
g3
I01
sg10
I5
sg11
g27
sa(dp161
g3
I01
sg10
I5
sg11
g29
sa(dp162
g1
S'T.__new__(S, ...) -> a new object with type S, a subtype of T'
p163
sg3
I01
sg10
I2
sg11
g32
sa(dp164
g1
Nsg3
I01
sg10
I2
sg11
g34
sa(dp165
g1
S'helper for pickle'
p166
sg3
I01
sg10
I2
sg11
g37
sa(dp167
g3
I01
sg10
I5
sg11
g39
sa(dp168
g3
I01
sg10
I5
sg11
g41
sa(dp169
g1
Nsg3
I01
sg10
I2
sg11
g43
sa(dp170
g1
S'__sizeof__() -> int\nsize of object in memory, in bytes'
p171
sg3
I01
sg10
I2
sg11
g46
sa(dp172
g3
I01
sg10
I5
sg11
g48
sa(dp173
g1
S'Abstract classes can override this to customize issubclass().\n\nThis is invoked early on by abc.ABCMeta.__subclasscheck__().\nIt should return True, False or NotImplemented.  If it returns\nNotImplemented, the normal algorithm is used.  Otherwise, it\noverrides the normal algorithm (and the outcome is cached).\n'
p174
sg3
I01
sg10
I2
sg11
g51
sa(dp175
g1
Nsg3
I01
sg10
I2
sg11
g53
sa(dp176
g3
I01
sg10
I5
sg11
g55
sa(dp177
g3
I01
sg10
I5
sg11
g57
sasg10
I3
sg11
S'BufferError'
p178
sa(dp179
g1
S'Base class for warnings about bytes and buffer related problems, mostly\nrelated to conversion from str or comparing to str.'
p180
sg3
I01
sg4
(lp181
(dp182
g3
I01
sg10
I5
sg11
g12
sa(dp183
g3
I01
sg10
I5
sg11
g14
sa(dp184
g3
I01
sg10
I5
sg11
g16
sa(dp185
g1
S'default object formatter'
p186
sg3
I01
sg10
I2
sg11
g19
sa(dp187
g3
I01
sg10
I5
sg11
g21
sa(dp188
g3
I01
sg10
I5
sg11
g23
sa(dp189
g3
I01
sg10
I5
sg11
g25
sa(dp190
g3
I01
sg10
I5
sg11
g27
sa(dp191
g3
I01
sg10
I5
sg11
g29
sa(dp192
g1
S'T.__new__(S, ...) -> a new object with type S, a subtype of T'
p193
sg3
I01
sg10
I2
sg11
g32
sa(dp194
g1
Nsg3
I01
sg10
I2
sg11
g34
sa(dp195
g1
S'helper for pickle'
p196
sg3
I01
sg10
I2
sg11
g37
sa(dp197
g3
I01
sg10
I5
sg11
g39
sa(dp198
g3
I01
sg10
I5
sg11
g41
sa(dp199
g1
Nsg3
I01
sg10
I2
sg11
g43
sa(dp200
g1
S'__sizeof__() -> int\nsize of object in memory, in bytes'
p201
sg3
I01
sg10
I2
sg11
g46
sa(dp202
g3
I01
sg10
I5
sg11
g48
sa(dp203
g1
S'Abstract classes can override this to customize issubclass().\n\nThis is invoked early on by abc.ABCMeta.__subclasscheck__().\nIt should return True, False or NotImplemented.  If it returns\nNotImplemented, the normal algorithm is used.  Otherwise, it\noverrides the normal algorithm (and the outcome is cached).\n'
p204
sg3
I01
sg10
I2
sg11
g51
sa(dp205
g1
Nsg3
I01
sg10
I2
sg11
g53
sa(dp206
g3
I01
sg10
I5
sg11
g55
sa(dp207
g3
I01
sg10
I5
sg11
g57
sasg10
I3
sg11
S'BytesWarning'
p208
sa(dp209
g1
S'Base class for warnings about deprecated features.'
p210
sg3
I01
sg4
(lp211
(dp212
g3
I01
sg10
I5
sg11
g12
sa(dp213
g3
I01
sg10
I5
sg11
g14
sa(dp214
g3
I01
sg10
I5
sg11
g16
sa(dp215
g1
S'default object formatter'
p216
sg3
I01
sg10
I2
sg11
g19
sa(dp217
g3
I01
sg10
I5
sg11
g21
sa(dp218
g3
I01
sg10
I5
sg11
g23
sa(dp219
g3
I01
sg10
I5
sg11
g25
sa(dp220
g3
I01
sg10
I5
sg11
g27
sa(dp221
g3
I01
sg10
I5
sg11
g29
sa(dp222
g1
S'T.__new__(S, ...) -> a new object with type S, a subtype of T'
p223
sg3
I01
sg10
I2
sg11
g32
sa(dp224
g1
Nsg3
I01
sg10
I2
sg11
g34
sa(dp225
g1
S'helper for pickle'
p226
sg3
I01
sg10
I2
sg11
g37
sa(dp227
g3
I01
sg10
I5
sg11
g39
sa(dp228
g3
I01
sg10
I5
sg11
g41
sa(dp229
g1
Nsg3
I01
sg10
I2
sg11
g43
sa(dp230
g1
S'__sizeof__() -> int\nsize of object in memory, in bytes'
p231
sg3
I01
sg10
I2
sg11
g46
sa(dp232
g3
I01
sg10
I5
sg11
g48
sa(dp233
g1
S'Abstract classes can override this to customize issubclass().\n\nThis is invoked early on by abc.ABCMeta.__subclasscheck__().\nIt should return True, False or NotImplemented.  If it returns\nNotImplemented, the normal algorithm is used.  Otherwise, it\noverrides the normal algorithm (and the outcome is cached).\n'
p234
sg3
I01
sg10
I2
sg11
g51
sa(dp235
g1
Nsg3
I01
sg10
I2
sg11
g53
sa(dp236
g3
I01
sg10
I5
sg11
g55
sa(dp237
g3
I01
sg10
I5
sg11
g57
sasg10
I3
sg11
S'DeprecationWarning'
p238
sa(dp239
g1
S'Read beyond end of file.'
p240
sg3
I01
sg4
(lp241
(dp242
g3
I01
sg10
I5
sg11
g12
sa(dp243
g3
I01
sg10
I5
sg11
g14
sa(dp244
g3
I01
sg10
I5
sg11
g16
sa(dp245
g1
S'default object formatter'
p246
sg3
I01
sg10
I2
sg11
g19
sa(dp247
g3
I01
sg10
I5
sg11
g21
sa(dp248
g3
I01
sg10
I5
sg11
g23
sa(dp249
g3
I01
sg10
I5
sg11
g25
sa(dp250
g3
I01
sg10
I5
sg11
g27
sa(dp251
g3
I01
sg10
I5
sg11
g29
sa(dp252
g1
S'T.__new__(S, ...) -> a new object with type S, a subtype of T'
p253
sg3
I01
sg10
I2
sg11
g32
sa(dp254
g1
Nsg3
I01
sg10
I2
sg11
g34
sa(dp255
g1
S'helper for pickle'
p256
sg3
I01
sg10
I2
sg11
g37
sa(dp257
g3
I01
sg10
I5
sg11
g39
sa(dp258
g3
I01
sg10
I5
sg11
g41
sa(dp259
g1
Nsg3
I01
sg10
I2
sg11
g43
sa(dp260
g1
S'__sizeof__() -> int\nsize of object in memory, in bytes'
p261
sg3
I01
sg10
I2
sg11
g46
sa(dp262
g3
I01
sg10
I5
sg11
g48
sa(dp263
g1
S'Abstract classes can override this to customize issubclass().\n\nThis is invoked early on by abc.ABCMeta.__subclasscheck__().\nIt should return True, False or NotImplemented.  If it returns\nNotImplemented, the normal algorithm is used.  Otherwise, it\noverrides the normal algorithm (and the outcome is cached).\n'
p264
sg3
I01
sg10
I2
sg11
g51
sa(dp265
g1
Nsg3
I01
sg10
I2
sg11
g53
sa(dp266
g3
I01
sg10
I5
sg11
g55
sa(dp267
g3
I01
sg10
I5
sg11
g57
sasg10
I3
sg11
S'EOFError'
p268
sa(dp269
g1
S'Base class for I/O related errors.'
p270
sg3
I01
sg4
(lp271
(dp272
g3
I01
sg10
I5
sg11
g12
sa(dp273
g3
I01
sg10
I5
sg11
g14
sa(dp274
g3
I01
sg10
I5
sg11
g16
sa(dp275
g1
S'default object formatter'
p276
sg3
I01
sg10
I2
sg11
g19
sa(dp277
g3
I01
sg10
I5
sg11
g21
sa(dp278
g3
I01
sg10
I5
sg11
g23
sa(dp279
g3
I01
sg10
I5
sg11
g25
sa(dp280
g3
I01
sg10
I5
sg11
g27
sa(dp281
g3
I01
sg10
I5
sg11
g29
sa(dp282
g1
S'T.__new__(S, ...) -> a new object with type S, a subtype of T'
p283
sg3
I01
sg10
I2
sg11
g32
sa(dp284
g1
Nsg3
I01
sg10
I2
sg11
g34
sa(dp285
g1
S'helper for pickle'
p286
sg3
I01
sg10
I2
sg11
g37
sa(dp287
g3
I01
sg10
I5
sg11
g39
sa(dp288
g3
I01
sg10
I5
sg11
g41
sa(dp289
g1
Nsg3
I01
sg10
I2
sg11
g43
sa(dp290
g1
S'__sizeof__() -> int\nsize of object in memory, in bytes'
p291
sg3
I01
sg10
I2
sg11
g46
sa(dp292
g3
I01
sg10
I5
sg11
g48
sa(dp293
g1
S'Abstract classes can override this to customize issubclass().\n\nThis is invoked early on by abc.ABCMeta.__subclasscheck__().\nIt should return True, False or NotImplemented.  If it returns\nNotImplemented, the normal algorithm is used.  Otherwise, it\noverrides the normal algorithm (and the outcome is cached).\n'
p294
sg3
I01
sg10
I2
sg11
g51
sa(dp295
g1
Nsg3
I01
sg10
I2
sg11
g53
sa(dp296
g3
I01
sg10
I5
sg11
g55
sa(dp297
g3
I01
sg10
I5
sg11
S'errno'
p298
sa(dp299
g3
I01
sg10
I5
sg11
S'filename'
p300
sa(dp301
g3
I01
sg10
I5
sg11
g57
sa(dp302
g3
I01
sg10
I5
sg11
S'strerror'
p303
sasg10
I3
sg11
S'EnvironmentError'
p304
sa(dp305
g1
S'Common base class for all non-exit exceptions.'
p306
sg3
I01
sg4
(lp307
(dp308
g3
I01
sg10
I5
sg11
g12
sa(dp309
g3
I01
sg10
I5
sg11
g14
sa(dp310
g3
I01
sg10
I5
sg11
g16
sa(dp311
g1
S'default object formatter'
p312
sg3
I01
sg10
I2
sg11
g19
sa(dp313
g3
I01
sg10
I5
sg11
g21
sa(dp314
g3
I01
sg10
I5
sg11
g23
sa(dp315
g3
I01
sg10
I5
sg11
g25
sa(dp316
g3
I01
sg10
I5
sg11
g27
sa(dp317
g3
I01
sg10
I5
sg11
g29
sa(dp318
g1
S'T.__new__(S, ...) -> a new object with type S, a subtype of T'
p319
sg3
I01
sg10
I2
sg11
g32
sa(dp320
g1
Nsg3
I01
sg10
I2
sg11
g34
sa(dp321
g1
S'helper for pickle'
p322
sg3
I01
sg10
I2
sg11
g37
sa(dp323
g3
I01
sg10
I5
sg11
g39
sa(dp324
g3
I01
sg10
I5
sg11
g41
sa(dp325
g1
Nsg3
I01
sg10
I2
sg11
g43
sa(dp326
g1
S'__sizeof__() -> int\nsize of object in memory, in bytes'
p327
sg3
I01
sg10
I2
sg11
g46
sa(dp328
g3
I01
sg10
I5
sg11
g48
sa(dp329
g1
S'Abstract classes can override this to customize issubclass().\n\nThis is invoked early on by abc.ABCMeta.__subclasscheck__().\nIt should return True, False or NotImplemented.  If it returns\nNotImplemented, the normal algorithm is used.  Otherwise, it\noverrides the normal algorithm (and the outcome is cached).\n'
p330
sg3
I01
sg10
I2
sg11
g51
sa(dp331
g1
Nsg3
I01
sg10
I2
sg11
g53
sa(dp332
g3
I01
sg10
I5
sg11
g55
sa(dp333
g3
I01
sg10
I5
sg11
g57
sasg10
I3
sg11
S'Exception'
p334
sa(dp335
g1
S'Floating point operation failed.'
p336
sg3
I01
sg4
(lp337
(dp338
g3
I01
sg10
I5
sg11
g12
sa(dp339
g3
I01
sg10
I5
sg11
g14
sa(dp340
g3
I01
sg10
I5
sg11
g16
sa(dp341
g1
S'default object formatter'
p342
sg3
I01
sg10
I2
sg11
g19
sa(dp343
g3
I01
sg10
I5
sg11
g21
sa(dp344
g3
I01
sg10
I5
sg11
g23
sa(dp345
g3
I01
sg10
I5
sg11
g25
sa(dp346
g3
I01
sg10
I5
sg11
g27
sa(dp347
g3
I01
sg10
I5
sg11
g29
sa(dp348
g1
S'T.__new__(S, ...) -> a new object with type S, a subtype of T'
p349
sg3
I01
sg10
I2
sg11
g32
sa(dp350
g1
Nsg3
I01
sg10
I2
sg11
g34
sa(dp351
g1
S'helper for pickle'
p352
sg3
I01
sg10
I2
sg11
g37
sa(dp353
g3
I01
sg10
I5
sg11
g39
sa(dp354
g3
I01
sg10
I5
sg11
g41
sa(dp355
g1
Nsg3
I01
sg10
I2
sg11
g43
sa(dp356
g1
S'__sizeof__() -> int\nsize of object in memory, in bytes'
p357
sg3
I01
sg10
I2
sg11
g46
sa(dp358
g3
I01
sg10
I5
sg11
g48
sa(dp359
g1
S'Abstract classes can override this to customize issubclass().\n\nThis is invoked early on by abc.ABCMeta.__subclasscheck__().\nIt should return True, False or NotImplemented.  If it returns\nNotImplemented, the normal algorithm is used.  Otherwise, it\noverrides the normal algorithm (and the outcome is cached).\n'
p360
sg3
I01
sg10
I2
sg11
g51
sa(dp361
g1
Nsg3
I01
sg10
I2
sg11
g53
sa(dp362
g3
I01
sg10
I5
sg11
g55
sa(dp363
g3
I01
sg10
I5
sg11
g57
sasg10
I3
sg11
S'FloatingPointError'
p364
sa(dp365
g1
S'Base class for warnings about constructs that will change semantically\nin the future.'
p366
sg3
I01
sg4
(lp367
(dp368
g3
I01
sg10
I5
sg11
g12
sa(dp369
g3
I01
sg10
I5
sg11
g14
sa(dp370
g3
I01
sg10
I5
sg11
g16
sa(dp371
g1
S'default object formatter'
p372
sg3
I01
sg10
I2
sg11
g19
sa(dp373
g3
I01
sg10
I5
sg11
g21
sa(dp374
g3
I01
sg10
I5
sg11
g23
sa(dp375
g3
I01
sg10
I5
sg11
g25
sa(dp376
g3
I01
sg10
I5
sg11
g27
sa(dp377
g3
I01
sg10
I5
sg11
g29
sa(dp378
g1
S'T.__new__(S, ...) -> a new object with type S, a subtype of T'
p379
sg3
I01
sg10
I2
sg11
g32
sa(dp380
g1
Nsg3
I01
sg10
I2
sg11
g34
sa(dp381
g1
S'helper for pickle'
p382
sg3
I01
sg10
I2
sg11
g37
sa(dp383
g3
I01
sg10
I5
sg11
g39
sa(dp384
g3
I01
sg10
I5
sg11
g41
sa(dp385
g1
Nsg3
I01
sg10
I2
sg11
g43
sa(dp386
g1
S'__sizeof__() -> int\nsize of object in memory, in bytes'
p387
sg3
I01
sg10
I2
sg11
g46
sa(dp388
g3
I01
sg10
I5
sg11
g48
sa(dp389
g1
S'Abstract classes can override this to customize issubclass().\n\nThis is invoked early on by abc.ABCMeta.__subclasscheck__().\nIt should return True, False or NotImplemented.  If it returns\nNotImplemented, the normal algorithm is used.  Otherwise, it\noverrides the normal algorithm (and the outcome is cached).\n'
p390
sg3
I01
sg10
I2
sg11
g51
sa(dp391
g1
Nsg3
I01
sg10
I2
sg11
g53
sa(dp392
g3
I01
sg10
I5
sg11
g55
sa(dp393
g3
I01
sg10
I5
sg11
g57
sasg10
I3
sg11
S'FutureWarning'
p394
sa(dp395
g1
S'Request that a generator exit.'
p396
sg3
I01
sg4
(lp397
(dp398
g3
I01
sg10
I5
sg11
g12
sa(dp399
g3
I01
sg10
I5
sg11
g14
sa(dp400
g3
I01
sg10
I5
sg11
g16
sa(dp401
g1
S'default object formatter'
p402
sg3
I01
sg10
I2
sg11
g19
sa(dp403
g3
I01
sg10
I5
sg11
g21
sa(dp404
g3
I01
sg10
I5
sg11
g23
sa(dp405
g3
I01
sg10
I5
sg11
g25
sa(dp406
g3
I01
sg10
I5
sg11
g27
sa(dp407
g3
I01
sg10
I5
sg11
g29
sa(dp408
g1
S'T.__new__(S, ...) -> a new object with type S, a subtype of T'
p409
sg3
I01
sg10
I2
sg11
g32
sa(dp410
g1
Nsg3
I01
sg10
I2
sg11
g34
sa(dp411
g1
S'helper for pickle'
p412
sg3
I01
sg10
I2
sg11
g37
sa(dp413
g3
I01
sg10
I5
sg11
g39
sa(dp414
g3
I01
sg10
I5
sg11
g41
sa(dp415
g1
Nsg3
I01
sg10
I2
sg11
g43
sa(dp416
g1
S'__sizeof__() -> int\nsize of object in memory, in bytes'
p417
sg3
I01
sg10
I2
sg11
g46
sa(dp418
g3
I01
sg10
I5
sg11
g48
sa(dp419
g1
S'Abstract classes can override this to customize issubclass().\n\nThis is invoked early on by abc.ABCMeta.__subclasscheck__().\nIt should return True, False or NotImplemented.  If it returns\nNotImplemented, the normal algorithm is used.  Otherwise, it\noverrides the normal algorithm (and the outcome is cached).\n'
p420
sg3
I01
sg10
I2
sg11
g51
sa(dp421
g1
Nsg3
I01
sg10
I2
sg11
g53
sa(dp422
g3
I01
sg10
I5
sg11
g55
sa(dp423
g3
I01
sg10
I5
sg11
g57
sasg10
I3
sg11
S'GeneratorExit'
p424
sa(dp425
g1
S'I/O operation failed.'
p426
sg3
I01
sg4
(lp427
(dp428
g3
I01
sg10
I5
sg11
g12
sa(dp429
g3
I01
sg10
I5
sg11
g14
sa(dp430
g3
I01
sg10
I5
sg11
g16
sa(dp431
g1
S'default object formatter'
p432
sg3
I01
sg10
I2
sg11
g19
sa(dp433
g3
I01
sg10
I5
sg11
g21
sa(dp434
g3
I01
sg10
I5
sg11
g23
sa(dp435
g3
I01
sg10
I5
sg11
g25
sa(dp436
g3
I01
sg10
I5
sg11
g27
sa(dp437
g3
I01
sg10
I5
sg11
g29
sa(dp438
g1
S'T.__new__(S, ...) -> a new object with type S, a subtype of T'
p439
sg3
I01
sg10
I2
sg11
g32
sa(dp440
g1
Nsg3
I01
sg10
I2
sg11
g34
sa(dp441
g1
S'helper for pickle'
p442
sg3
I01
sg10
I2
sg11
g37
sa(dp443
g3
I01
sg10
I5
sg11
g39
sa(dp444
g3
I01
sg10
I5
sg11
g41
sa(dp445
g1
Nsg3
I01
sg10
I2
sg11
g43
sa(dp446
g1
S'__sizeof__() -> int\nsize of object in memory, in bytes'
p447
sg3
I01
sg10
I2
sg11
g46
sa(dp448
g3
I01
sg10
I5
sg11
g48
sa(dp449
g1
S'Abstract classes can override this to customize issubclass().\n\nThis is invoked early on by abc.ABCMeta.__subclasscheck__().\nIt should return True, False or NotImplemented.  If it returns\nNotImplemented, the normal algorithm is used.  Otherwise, it\noverrides the normal algorithm (and the outcome is cached).\n'
p450
sg3
I01
sg10
I2
sg11
g51
sa(dp451
g1
Nsg3
I01
sg10
I2
sg11
g53
sa(dp452
g3
I01
sg10
I5
sg11
g55
sa(dp453
g3
I01
sg10
I5
sg11
g298
sa(dp454
g3
I01
sg10
I5
sg11
g300
sa(dp455
g3
I01
sg10
I5
sg11
g57
sa(dp456
g3
I01
sg10
I5
sg11
g303
sasg10
I3
sg11
S'IOError'
p457
sa(dp458
g1
S"Import can't find module, or can't find name in module."
p459
sg3
I01
sg4
(lp460
(dp461
g3
I01
sg10
I5
sg11
g12
sa(dp462
g3
I01
sg10
I5
sg11
g14
sa(dp463
g3
I01
sg10
I5
sg11
g16
sa(dp464
g1
S'default object formatter'
p465
sg3
I01
sg10
I2
sg11
g19
sa(dp466
g3
I01
sg10
I5
sg11
g21
sa(dp467
g3
I01
sg10
I5
sg11
g23
sa(dp468
g3
I01
sg10
I5
sg11
g25
sa(dp469
g3
I01
sg10
I5
sg11
g27
sa(dp470
g3
I01
sg10
I5
sg11
g29
sa(dp471
g1
S'T.__new__(S, ...) -> a new object with type S, a subtype of T'
p472
sg3
I01
sg10
I2
sg11
g32
sa(dp473
g1
Nsg3
I01
sg10
I2
sg11
g34
sa(dp474
g1
S'helper for pickle'
p475
sg3
I01
sg10
I2
sg11
g37
sa(dp476
g3
I01
sg10
I5
sg11
g39
sa(dp477
g3
I01
sg10
I5
sg11
g41
sa(dp478
g1
Nsg3
I01
sg10
I2
sg11
g43
sa(dp479
g1
S'__sizeof__() -> int\nsize of object in memory, in bytes'
p480
sg3
I01
sg10
I2
sg11
g46
sa(dp481
g3
I01
sg10
I5
sg11
g48
sa(dp482
g1
S'Abstract classes can override this to customize issubclass().\n\nThis is invoked early on by abc.ABCMeta.__subclasscheck__().\nIt should return True, False or NotImplemented.  If it returns\nNotImplemented, the normal algorithm is used.  Otherwise, it\noverrides the normal algorithm (and the outcome is cached).\n'
p483
sg3
I01
sg10
I2
sg11
g51
sa(dp484
g1
Nsg3
I01
sg10
I2
sg11
g53
sa(dp485
g3
I01
sg10
I5
sg11
g55
sa(dp486
g3
I01
sg10
I5
sg11
g57
sasg10
I3
sg11
S'ImportError'
p487
sa(dp488
g1
S'Base class for warnings about probable mistakes in module imports'
p489
sg3
I01
sg4
(lp490
(dp491
g3
I01
sg10
I5
sg11
g12
sa(dp492
g3
I01
sg10
I5
sg11
g14
sa(dp493
g3
I01
sg10
I5
sg11
g16
sa(dp494
g1
S'default object formatter'
p495
sg3
I01
sg10
I2
sg11
g19
sa(dp496
g3
I01
sg10
I5
sg11
g21
sa(dp497
g3
I01
sg10
I5
sg11
g23
sa(dp498
g3
I01
sg10
I5
sg11
g25
sa(dp499
g3
I01
sg10
I5
sg11
g27
sa(dp500
g3
I01
sg10
I5
sg11
g29
sa(dp501
g1
S'T.__new__(S, ...) -> a new object with type S, a subtype of T'
p502
sg3
I01
sg10
I2
sg11
g32
sa(dp503
g1
Nsg3
I01
sg10
I2
sg11
g34
sa(dp504
g1
S'helper for pickle'
p505
sg3
I01
sg10
I2
sg11
g37
sa(dp506
g3
I01
sg10
I5
sg11
g39
sa(dp507
g3
I01
sg10
I5
sg11
g41
sa(dp508
g1
Nsg3
I01
sg10
I2
sg11
g43
sa(dp509
g1
S'__sizeof__() -> int\nsize of object in memory, in bytes'
p510
sg3
I01
sg10
I2
sg11
g46
sa(dp511
g3
I01
sg10
I5
sg11
g48
sa(dp512
g1
S'Abstract classes can override this to customize issubclass().\n\nThis is invoked early on by abc.ABCMeta.__subclasscheck__().\nIt should return True, False or NotImplemented.  If it returns\nNotImplemented, the normal algorithm is used.  Otherwise, it\noverrides the normal algorithm (and the outcome is cached).\n'
p513
sg3
I01
sg10
I2
sg11
g51
sa(dp514
g1
Nsg3
I01
sg10
I2
sg11
g53
sa(dp515
g3
I01
sg10
I5
sg11
g55
sa(dp516
g3
I01
sg10
I5
sg11
g57
sasg10
I3
sg11
S'ImportWarning'
p517
sa(dp518
g1
S'Improper indentation.'
p519
sg3
I01
sg4
(lp520
(dp521
g3
I01
sg10
I5
sg11
g12
sa(dp522
g3
I01
sg10
I5
sg11
g14
sa(dp523
g3
I01
sg10
I5
sg11
g16
sa(dp524
g1
S'default object formatter'
p525
sg3
I01
sg10
I2
sg11
g19
sa(dp526
g3
I01
sg10
I5
sg11
g21
sa(dp527
g3
I01
sg10
I5
sg11
g23
sa(dp528
g3
I01
sg10
I5
sg11
g25
sa(dp529
g3
I01
sg10
I5
sg11
g27
sa(dp530
g3
I01
sg10
I5
sg11
g29
sa(dp531
g1
S'T.__new__(S, ...) -> a new object with type S, a subtype of T'
p532
sg3
I01
sg10
I2
sg11
g32
sa(dp533
g1
Nsg3
I01
sg10
I2
sg11
g34
sa(dp534
g1
S'helper for pickle'
p535
sg3
I01
sg10
I2
sg11
g37
sa(dp536
g3
I01
sg10
I5
sg11
g39
sa(dp537
g3
I01
sg10
I5
sg11
g41
sa(dp538
g1
Nsg3
I01
sg10
I2
sg11
g43
sa(dp539
g1
S'__sizeof__() -> int\nsize of object in memory, in bytes'
p540
sg3
I01
sg10
I2
sg11
g46
sa(dp541
g3
I01
sg10
I5
sg11
g48
sa(dp542
g1
S'Abstract classes can override this to customize issubclass().\n\nThis is invoked early on by abc.ABCMeta.__subclasscheck__().\nIt should return True, False or NotImplemented.  If it returns\nNotImplemented, the normal algorithm is used.  Otherwise, it\noverrides the normal algorithm (and the outcome is cached).\n'
p543
sg3
I01
sg10
I2
sg11
g51
sa(dp544
g1
Nsg3
I01
sg10
I2
sg11
g53
sa(dp545
g3
I01
sg10
I5
sg11
g55
sa(dp546
g3
I01
sg10
I5
sg11
g300
sa(dp547
g3
I01
sg10
I5
sg11
S'lineno'
p548
sa(dp549
g3
I01
sg10
I5
sg11
g57
sa(dp550
g3
I01
sg10
I5
sg11
S'msg'
p551
sa(dp552
g3
I01
sg10
I5
sg11
S'offset'
p553
sa(dp554
g3
I01
sg10
I5
sg11
S'print_file_and_line'
p555
sa(dp556
g3
I01
sg10
I5
sg11
S'text'
p557
sasg10
I3
sg11
S'IndentationError'
p558
sa(dp559
g1
S'Sequence index out of range.'
p560
sg3
I01
sg4
(lp561
(dp562
g3
I01
sg10
I5
sg11
g12
sa(dp563
g3
I01
sg10
I5
sg11
g14
sa(dp564
g3
I01
sg10
I5
sg11
g16
sa(dp565
g1
S'default object formatter'
p566
sg3
I01
sg10
I2
sg11
g19
sa(dp567
g3
I01
sg10
I5
sg11
g21
sa(dp568
g3
I01
sg10
I5
sg11
g23
sa(dp569
g3
I01
sg10
I5
sg11
g25
sa(dp570
g3
I01
sg10
I5
sg11
g27
sa(dp571
g3
I01
sg10
I5
sg11
g29
sa(dp572
g1
S'T.__new__(S, ...) -> a new object with type S, a subtype of T'
p573
sg3
I01
sg10
I2
sg11
g32
sa(dp574
g1
Nsg3
I01
sg10
I2
sg11
g34
sa(dp575
g1
S'helper for pickle'
p576
sg3
I01
sg10
I2
sg11
g37
sa(dp577
g3
I01
sg10
I5
sg11
g39
sa(dp578
g3
I01
sg10
I5
sg11
g41
sa(dp579
g1
Nsg3
I01
sg10
I2
sg11
g43
sa(dp580
g1
S'__sizeof__() -> int\nsize of object in memory, in bytes'
p581
sg3
I01
sg10
I2
sg11
g46
sa(dp582
g3
I01
sg10
I5
sg11
g48
sa(dp583
g1
S'Abstract classes can override this to customize issubclass().\n\nThis is invoked early on by abc.ABCMeta.__subclasscheck__().\nIt should return True, False or NotImplemented.  If it returns\nNotImplemented, the normal algorithm is used.  Otherwise, it\noverrides the normal algorithm (and the outcome is cached).\n'
p584
sg3
I01
sg10
I2
sg11
g51
sa(dp585
g1
Nsg3
I01
sg10
I2
sg11
g53
sa(dp586
g3
I01
sg10
I5
sg11
g55
sa(dp587
g3
I01
sg10
I5
sg11
g57
sasg10
I3
sg11
S'IndexError'
p588
sa(dp589
g1
S'Mapping key not found.'
p590
sg3
I01
sg4
(lp591
(dp592
g3
I01
sg10
I5
sg11
g12
sa(dp593
g3
I01
sg10
I5
sg11
g14
sa(dp594
g3
I01
sg10
I5
sg11
g16
sa(dp595
g1
S'default object formatter'
p596
sg3
I01
sg10
I2
sg11
g19
sa(dp597
g3
I01
sg10
I5
sg11
g21
sa(dp598
g3
I01
sg10
I5
sg11
g23
sa(dp599
g3
I01
sg10
I5
sg11
g25
sa(dp600
g3
I01
sg10
I5
sg11
g27
sa(dp601
g3
I01
sg10
I5
sg11
g29
sa(dp602
g1
S'T.__new__(S, ...) -> a new object with type S, a subtype of T'
p603
sg3
I01
sg10
I2
sg11
g32
sa(dp604
g1
Nsg3
I01
sg10
I2
sg11
g34
sa(dp605
g1
S'helper for pickle'
p606
sg3
I01
sg10
I2
sg11
g37
sa(dp607
g3
I01
sg10
I5
sg11
g39
sa(dp608
g3
I01
sg10
I5
sg11
g41
sa(dp609
g1
Nsg3
I01
sg10
I2
sg11
g43
sa(dp610
g1
S'__sizeof__() -> int\nsize of object in memory, in bytes'
p611
sg3
I01
sg10
I2
sg11
g46
sa(dp612
g3
I01
sg10
I5
sg11
g48
sa(dp613
g1
S'Abstract classes can override this to customize issubclass().\n\nThis is invoked early on by abc.ABCMeta.__subclasscheck__().\nIt should return True, False or NotImplemented.  If it returns\nNotImplemented, the normal algorithm is used.  Otherwise, it\noverrides the normal algorithm (and the outcome is cached).\n'
p614
sg3
I01
sg10
I2
sg11
g51
sa(dp615
g1
Nsg3
I01
sg10
I2
sg11
g53
sa(dp616
g3
I01
sg10
I5
sg11
g55
sa(dp617
g3
I01
sg10
I5
sg11
g57
sasg10
I3
sg11
S'KeyError'
p618
sa(dp619
g1
S'Program interrupted by user.'
p620
sg3
I01
sg4
(lp621
(dp622
g3
I01
sg10
I5
sg11
g12
sa(dp623
g3
I01
sg10
I5
sg11
g14
sa(dp624
g3
I01
sg10
I5
sg11
g16
sa(dp625
g1
S'default object formatter'
p626
sg3
I01
sg10
I2
sg11
g19
sa(dp627
g3
I01
sg10
I5
sg11
g21
sa(dp628
g3
I01
sg10
I5
sg11
g23
sa(dp629
g3
I01
sg10
I5
sg11
g25
sa(dp630
g3
I01
sg10
I5
sg11
g27
sa(dp631
g3
I01
sg10
I5
sg11
g29
sa(dp632
g1
S'T.__new__(S, ...) -> a new object with type S, a subtype of T'
p633
sg3
I01
sg10
I2
sg11
g32
sa(dp634
g1
Nsg3
I01
sg10
I2
sg11
g34
sa(dp635
g1
S'helper for pickle'
p636
sg3
I01
sg10
I2
sg11
g37
sa(dp637
g3
I01
sg10
I5
sg11
g39
sa(dp638
g3
I01
sg10
I5
sg11
g41
sa(dp639
g1
Nsg3
I01
sg10
I2
sg11
g43
sa(dp640
g1
S'__sizeof__() -> int\nsize of object in memory, in bytes'
p641
sg3
I01
sg10
I2
sg11
g46
sa(dp642
g3
I01
sg10
I5
sg11
g48
sa(dp643
g1
S'Abstract classes can override this to customize issubclass().\n\nThis is invoked early on by abc.ABCMeta.__subclasscheck__().\nIt should return True, False or NotImplemented.  If it returns\nNotImplemented, the normal algorithm is used.  Otherwise, it\noverrides the normal algorithm (and the outcome is cached).\n'
p644
sg3
I01
sg10
I2
sg11
g51
sa(dp645
g1
Nsg3
I01
sg10
I2
sg11
g53
sa(dp646
g3
I01
sg10
I5
sg11
g55
sa(dp647
g3
I01
sg10
I5
sg11
g57
sasg10
I3
sg11
S'KeyboardInterrupt'
p648
sa(dp649
g1
S'Base class for lookup errors.'
p650
sg3
I01
sg4
(lp651
(dp652
g3
I01
sg10
I5
sg11
g12
sa(dp653
g3
I01
sg10
I5
sg11
g14
sa(dp654
g3
I01
sg10
I5
sg11
g16
sa(dp655
g1
S'default object formatter'
p656
sg3
I01
sg10
I2
sg11
g19
sa(dp657
g3
I01
sg10
I5
sg11
g21
sa(dp658
g3
I01
sg10
I5
sg11
g23
sa(dp659
g3
I01
sg10
I5
sg11
g25
sa(dp660
g3
I01
sg10
I5
sg11
g27
sa(dp661
g3
I01
sg10
I5
sg11
g29
sa(dp662
g1
S'T.__new__(S, ...) -> a new object with type S, a subtype of T'
p663
sg3
I01
sg10
I2
sg11
g32
sa(dp664
g1
Nsg3
I01
sg10
I2
sg11
g34
sa(dp665
g1
S'helper for pickle'
p666
sg3
I01
sg10
I2
sg11
g37
sa(dp667
g3
I01
sg10
I5
sg11
g39
sa(dp668
g3
I01
sg10
I5
sg11
g41
sa(dp669
g1
Nsg3
I01
sg10
I2
sg11
g43
sa(dp670
g1
S'__sizeof__() -> int\nsize of object in memory, in bytes'
p671
sg3
I01
sg10
I2
sg11
g46
sa(dp672
g3
I01
sg10
I5
sg11
g48
sa(dp673
g1
S'Abstract classes can override this to customize issubclass().\n\nThis is invoked early on by abc.ABCMeta.__subclasscheck__().\nIt should return True, False or NotImplemented.  If it returns\nNotImplemented, the normal algorithm is used.  Otherwise, it\noverrides the normal algorithm (and the outcome is cached).\n'
p674
sg3
I01
sg10
I2
sg11
g51
sa(dp675
g1
Nsg3
I01
sg10
I2
sg11
g53
sa(dp676
g3
I01
sg10
I5
sg11
g55
sa(dp677
g3
I01
sg10
I5
sg11
g57
sasg10
I3
sg11
S'LookupError'
p678
sa(dp679
g1
S'Out of memory.'
p680
sg3
I01
sg4
(lp681
(dp682
g3
I01
sg10
I5
sg11
g12
sa(dp683
g3
I01
sg10
I5
sg11
g14
sa(dp684
g3
I01
sg10
I5
sg11
g16
sa(dp685
g1
S'default object formatter'
p686
sg3
I01
sg10
I2
sg11
g19
sa(dp687
g3
I01
sg10
I5
sg11
g21
sa(dp688
g3
I01
sg10
I5
sg11
g23
sa(dp689
g3
I01
sg10
I5
sg11
g25
sa(dp690
g3
I01
sg10
I5
sg11
g27
sa(dp691
g3
I01
sg10
I5
sg11
g29
sa(dp692
g1
S'T.__new__(S, ...) -> a new object with type S, a subtype of T'
p693
sg3
I01
sg10
I2
sg11
g32
sa(dp694
g1
Nsg3
I01
sg10
I2
sg11
g34
sa(dp695
g1
S'helper for pickle'
p696
sg3
I01
sg10
I2
sg11
g37
sa(dp697
g3
I01
sg10
I5
sg11
g39
sa(dp698
g3
I01
sg10
I5
sg11
g41
sa(dp699
g1
Nsg3
I01
sg10
I2
sg11
g43
sa(dp700
g1
S'__sizeof__() -> int\nsize of object in memory, in bytes'
p701
sg3
I01
sg10
I2
sg11
g46
sa(dp702
g3
I01
sg10
I5
sg11
g48
sa(dp703
g1
S'Abstract classes can override this to customize issubclass().\n\nThis is invoked early on by abc.ABCMeta.__subclasscheck__().\nIt should return True, False or NotImplemented.  If it returns\nNotImplemented, the normal algorithm is used.  Otherwise, it\noverrides the normal algorithm (and the outcome is cached).\n'
p704
sg3
I01
sg10
I2
sg11
g51
sa(dp705
g1
Nsg3
I01
sg10
I2
sg11
g53
sa(dp706
g3
I01
sg10
I5
sg11
g55
sa(dp707
g3
I01
sg10
I5
sg11
g57
sasg10
I3
sg11
S'MemoryError'
p708
sa(dp709
g1
S'Name not found globally.'
p710
sg3
I01
sg4
(lp711
(dp712
g3
I01
sg10
I5
sg11
g12
sa(dp713
g3
I01
sg10
I5
sg11
g14
sa(dp714
g3
I01
sg10
I5
sg11
g16
sa(dp715
g1
S'default object formatter'
p716
sg3
I01
sg10
I2
sg11
g19
sa(dp717
g3
I01
sg10
I5
sg11
g21
sa(dp718
g3
I01
sg10
I5
sg11
g23
sa(dp719
g3
I01
sg10
I5
sg11
g25
sa(dp720
g3
I01
sg10
I5
sg11
g27
sa(dp721
g3
I01
sg10
I5
sg11
g29
sa(dp722
g1
S'T.__new__(S, ...) -> a new object with type S, a subtype of T'
p723
sg3
I01
sg10
I2
sg11
g32
sa(dp724
g1
Nsg3
I01
sg10
I2
sg11
g34
sa(dp725
g1
S'helper for pickle'
p726
sg3
I01
sg10
I2
sg11
g37
sa(dp727
g3
I01
sg10
I5
sg11
g39
sa(dp728
g3
I01
sg10
I5
sg11
g41
sa(dp729
g1
Nsg3
I01
sg10
I2
sg11
g43
sa(dp730
g1
S'__sizeof__() -> int\nsize of object in memory, in bytes'
p731
sg3
I01
sg10
I2
sg11
g46
sa(dp732
g3
I01
sg10
I5
sg11
g48
sa(dp733
g1
S'Abstract classes can override this to customize issubclass().\n\nThis is invoked early on by abc.ABCMeta.__subclasscheck__().\nIt should return True, False or NotImplemented.  If it returns\nNotImplemented, the normal algorithm is used.  Otherwise, it\noverrides the normal algorithm (and the outcome is cached).\n'
p734
sg3
I01
sg10
I2
sg11
g51
sa(dp735
g1
Nsg3
I01
sg10
I2
sg11
g53
sa(dp736
g3
I01
sg10
I5
sg11
g55
sa(dp737
g3
I01
sg10
I5
sg11
g57
sasg10
I3
sg11
S'NameError'
p738
sa(dp739
g1
S"Method or function hasn't been implemented yet."
p740
sg3
I01
sg4
(lp741
(dp742
g3
I01
sg10
I5
sg11
g12
sa(dp743
g3
I01
sg10
I5
sg11
g14
sa(dp744
g3
I01
sg10
I5
sg11
g16
sa(dp745
g1
S'default object formatter'
p746
sg3
I01
sg10
I2
sg11
g19
sa(dp747
g3
I01
sg10
I5
sg11
g21
sa(dp748
g3
I01
sg10
I5
sg11
g23
sa(dp749
g3
I01
sg10
I5
sg11
g25
sa(dp750
g3
I01
sg10
I5
sg11
g27
sa(dp751
g3
I01
sg10
I5
sg11
g29
sa(dp752
g1
S'T.__new__(S, ...) -> a new object with type S, a subtype of T'
p753
sg3
I01
sg10
I2
sg11
g32
sa(dp754
g1
Nsg3
I01
sg10
I2
sg11
g34
sa(dp755
g1
S'helper for pickle'
p756
sg3
I01
sg10
I2
sg11
g37
sa(dp757
g3
I01
sg10
I5
sg11
g39
sa(dp758
g3
I01
sg10
I5
sg11
g41
sa(dp759
g1
Nsg3
I01
sg10
I2
sg11
g43
sa(dp760
g1
S'__sizeof__() -> int\nsize of object in memory, in bytes'
p761
sg3
I01
sg10
I2
sg11
g46
sa(dp762
g3
I01
sg10
I5
sg11
g48
sa(dp763
g1
S'Abstract classes can override this to customize issubclass().\n\nThis is invoked early on by abc.ABCMeta.__subclasscheck__().\nIt should return True, False or NotImplemented.  If it returns\nNotImplemented, the normal algorithm is used.  Otherwise, it\noverrides the normal algorithm (and the outcome is cached).\n'
p764
sg3
I01
sg10
I2
sg11
g51
sa(dp765
g1
Nsg3
I01
sg10
I2
sg11
g53
sa(dp766
g3
I01
sg10
I5
sg11
g55
sa(dp767
g3
I01
sg10
I5
sg11
g57
sasg10
I3
sg11
S'NotImplementedError'
p768
sa(dp769
g1
S'OS system call failed.'
p770
sg3
I01
sg4
(lp771
(dp772
g3
I01
sg10
I5
sg11
g12
sa(dp773
g3
I01
sg10
I5
sg11
g14
sa(dp774
g3
I01
sg10
I5
sg11
g16
sa(dp775
g1
S'default object formatter'
p776
sg3
I01
sg10
I2
sg11
g19
sa(dp777
g3
I01
sg10
I5
sg11
g21
sa(dp778
g3
I01
sg10
I5
sg11
g23
sa(dp779
g3
I01
sg10
I5
sg11
g25
sa(dp780
g3
I01
sg10
I5
sg11
g27
sa(dp781
g3
I01
sg10
I5
sg11
g29
sa(dp782
g1
S'T.__new__(S, ...) -> a new object with type S, a subtype of T'
p783
sg3
I01
sg10
I2
sg11
g32
sa(dp784
g1
Nsg3
I01
sg10
I2
sg11
g34
sa(dp785
g1
S'helper for pickle'
p786
sg3
I01
sg10
I2
sg11
g37
sa(dp787
g3
I01
sg10
I5
sg11
g39
sa(dp788
g3
I01
sg10
I5
sg11
g41
sa(dp789
g1
Nsg3
I01
sg10
I2
sg11
g43
sa(dp790
g1
S'__sizeof__() -> int\nsize of object in memory, in bytes'
p791
sg3
I01
sg10
I2
sg11
g46
sa(dp792
g3
I01
sg10
I5
sg11
g48
sa(dp793
g1
S'Abstract classes can override this to customize issubclass().\n\nThis is invoked early on by abc.ABCMeta.__subclasscheck__().\nIt should return True, False or NotImplemented.  If it returns\nNotImplemented, the normal algorithm is used.  Otherwise, it\noverrides the normal algorithm (and the outcome is cached).\n'
p794
sg3
I01
sg10
I2
sg11
g51
sa(dp795
g1
Nsg3
I01
sg10
I2
sg11
g53
sa(dp796
g3
I01
sg10
I5
sg11
g55
sa(dp797
g3
I01
sg10
I5
sg11
g298
sa(dp798
g3
I01
sg10
I5
sg11
g300
sa(dp799
g3
I01
sg10
I5
sg11
g57
sa(dp800
g3
I01
sg10
I5
sg11
g303
sasg10
I3
sg11
S'OSError'
p801
sa(dp802
g1
S'Result too large to be represented.'
p803
sg3
I01
sg4
(lp804
(dp805
g3
I01
sg10
I5
sg11
g12
sa(dp806
g3
I01
sg10
I5
sg11
g14
sa(dp807
g3
I01
sg10
I5
sg11
g16
sa(dp808
g1
S'default object formatter'
p809
sg3
I01
sg10
I2
sg11
g19
sa(dp810
g3
I01
sg10
I5
sg11
g21
sa(dp811
g3
I01
sg10
I5
sg11
g23
sa(dp812
g3
I01
sg10
I5
sg11
g25
sa(dp813
g3
I01
sg10
I5
sg11
g27
sa(dp814
g3
I01
sg10
I5
sg11
g29
sa(dp815
g1
S'T.__new__(S, ...) -> a new object with type S, a subtype of T'
p816
sg3
I01
sg10
I2
sg11
g32
sa(dp817
g1
Nsg3
I01
sg10
I2
sg11
g34
sa(dp818
g1
S'helper for pickle'
p819
sg3
I01
sg10
I2
sg11
g37
sa(dp820
g3
I01
sg10
I5
sg11
g39
sa(dp821
g3
I01
sg10
I5
sg11
g41
sa(dp822
g1
Nsg3
I01
sg10
I2
sg11
g43
sa(dp823
g1
S'__sizeof__() -> int\nsize of object in memory, in bytes'
p824
sg3
I01
sg10
I2
sg11
g46
sa(dp825
g3
I01
sg10
I5
sg11
g48
sa(dp826
g1
S'Abstract classes can override this to customize issubclass().\n\nThis is invoked early on by abc.ABCMeta.__subclasscheck__().\nIt should return True, False or NotImplemented.  If it returns\nNotImplemented, the normal algorithm is used.  Otherwise, it\noverrides the normal algorithm (and the outcome is cached).\n'
p827
sg3
I01
sg10
I2
sg11
g51
sa(dp828
g1
Nsg3
I01
sg10
I2
sg11
g53
sa(dp829
g3
I01
sg10
I5
sg11
g55
sa(dp830
g3
I01
sg10
I5
sg11
g57
sasg10
I3
sg11
S'OverflowError'
p831
sa(dp832
g1
S'Base class for warnings about features which will be deprecated\nin the future.'
p833
sg3
I01
sg4
(lp834
(dp835
g3
I01
sg10
I5
sg11
g12
sa(dp836
g3
I01
sg10
I5
sg11
g14
sa(dp837
g3
I01
sg10
I5
sg11
g16
sa(dp838
g1
S'default object formatter'
p839
sg3
I01
sg10
I2
sg11
g19
sa(dp840
g3
I01
sg10
I5
sg11
g21
sa(dp841
g3
I01
sg10
I5
sg11
g23
sa(dp842
g3
I01
sg10
I5
sg11
g25
sa(dp843
g3
I01
sg10
I5
sg11
g27
sa(dp844
g3
I01
sg10
I5
sg11
g29
sa(dp845
g1
S'T.__new__(S, ...) -> a new object with type S, a subtype of T'
p846
sg3
I01
sg10
I2
sg11
g32
sa(dp847
g1
Nsg3
I01
sg10
I2
sg11
g34
sa(dp848
g1
S'helper for pickle'
p849
sg3
I01
sg10
I2
sg11
g37
sa(dp850
g3
I01
sg10
I5
sg11
g39
sa(dp851
g3
I01
sg10
I5
sg11
g41
sa(dp852
g1
Nsg3
I01
sg10
I2
sg11
g43
sa(dp853
g1
S'__sizeof__() -> int\nsize of object in memory, in bytes'
p854
sg3
I01
sg10
I2
sg11
g46
sa(dp855
g3
I01
sg10
I5
sg11
g48
sa(dp856
g1
S'Abstract classes can override this to customize issubclass().\n\nThis is invoked early on by abc.ABCMeta.__subclasscheck__().\nIt should return True, False or NotImplemented.  If it returns\nNotImplemented, the normal algorithm is used.  Otherwise, it\noverrides the normal algorithm (and the outcome is cached).\n'
p857
sg3
I01
sg10
I2
sg11
g51
sa(dp858
g1
Nsg3
I01
sg10
I2
sg11
g53
sa(dp859
g3
I01
sg10
I5
sg11
g55
sa(dp860
g3
I01
sg10
I5
sg11
g57
sasg10
I3
sg11
S'PendingDeprecationWarning'
p861
sa(dp862
g1
S'Weak ref proxy used after referent went away.'
p863
sg3
I01
sg4
(lp864
(dp865
g3
I01
sg10
I5
sg11
g12
sa(dp866
g3
I01
sg10
I5
sg11
g14
sa(dp867
g3
I01
sg10
I5
sg11
g16
sa(dp868
g1
S'default object formatter'
p869
sg3
I01
sg10
I2
sg11
g19
sa(dp870
g3
I01
sg10
I5
sg11
g21
sa(dp871
g3
I01
sg10
I5
sg11
g23
sa(dp872
g3
I01
sg10
I5
sg11
g25
sa(dp873
g3
I01
sg10
I5
sg11
g27
sa(dp874
g3
I01
sg10
I5
sg11
g29
sa(dp875
g1
S'T.__new__(S, ...) -> a new object with type S, a subtype of T'
p876
sg3
I01
sg10
I2
sg11
g32
sa(dp877
g1
Nsg3
I01
sg10
I2
sg11
g34
sa(dp878
g1
S'helper for pickle'
p879
sg3
I01
sg10
I2
sg11
g37
sa(dp880
g3
I01
sg10
I5
sg11
g39
sa(dp881
g3
I01
sg10
I5
sg11
g41
sa(dp882
g1
Nsg3
I01
sg10
I2
sg11
g43
sa(dp883
g1
S'__sizeof__() -> int\nsize of object in memory, in bytes'
p884
sg3
I01
sg10
I2
sg11
g46
sa(dp885
g3
I01
sg10
I5
sg11
g48
sa(dp886
g1
S'Abstract classes can override this to customize issubclass().\n\nThis is invoked early on by abc.ABCMeta.__subclasscheck__().\nIt should return True, False or NotImplemented.  If it returns\nNotImplemented, the normal algorithm is used.  Otherwise, it\noverrides the normal algorithm (and the outcome is cached).\n'
p887
sg3
I01
sg10
I2
sg11
g51
sa(dp888
g1
Nsg3
I01
sg10
I2
sg11
g53
sa(dp889
g3
I01
sg10
I5
sg11
g55
sa(dp890
g3
I01
sg10
I5
sg11
g57
sasg10
I3
sg11
S'ReferenceError'
p891
sa(dp892
g1
S'Unspecified run-time error.'
p893
sg3
I01
sg4
(lp894
(dp895
g3
I01
sg10
I5
sg11
g12
sa(dp896
g3
I01
sg10
I5
sg11
g14
sa(dp897
g3
I01
sg10
I5
sg11
g16
sa(dp898
g1
S'default object formatter'
p899
sg3
I01
sg10
I2
sg11
g19
sa(dp900
g3
I01
sg10
I5
sg11
g21
sa(dp901
g3
I01
sg10
I5
sg11
g23
sa(dp902
g3
I01
sg10
I5
sg11
g25
sa(dp903
g3
I01
sg10
I5
sg11
g27
sa(dp904
g3
I01
sg10
I5
sg11
g29
sa(dp905
g1
S'T.__new__(S, ...) -> a new object with type S, a subtype of T'
p906
sg3
I01
sg10
I2
sg11
g32
sa(dp907
g1
Nsg3
I01
sg10
I2
sg11
g34
sa(dp908
g1
S'helper for pickle'
p909
sg3
I01
sg10
I2
sg11
g37
sa(dp910
g3
I01
sg10
I5
sg11
g39
sa(dp911
g3
I01
sg10
I5
sg11
g41
sa(dp912
g1
Nsg3
I01
sg10
I2
sg11
g43
sa(dp913
g1
S'__sizeof__() -> int\nsize of object in memory, in bytes'
p914
sg3
I01
sg10
I2
sg11
g46
sa(dp915
g3
I01
sg10
I5
sg11
g48
sa(dp916
g1
S'Abstract classes can override this to customize issubclass().\n\nThis is invoked early on by abc.ABCMeta.__subclasscheck__().\nIt should return True, False or NotImplemented.  If it returns\nNotImplemented, the normal algorithm is used.  Otherwise, it\noverrides the normal algorithm (and the outcome is cached).\n'
p917
sg3
I01
sg10
I2
sg11
g51
sa(dp918
g1
Nsg3
I01
sg10
I2
sg11
g53
sa(dp919
g3
I01
sg10
I5
sg11
g55
sa(dp920
g3
I01
sg10
I5
sg11
g57
sasg10
I3
sg11
S'RuntimeError'
p921
sa(dp922
g1
S'Base class for warnings about dubious runtime behavior.'
p923
sg3
I01
sg4
(lp924
(dp925
g3
I01
sg10
I5
sg11
g12
sa(dp926
g3
I01
sg10
I5
sg11
g14
sa(dp927
g3
I01
sg10
I5
sg11
g16
sa(dp928
g1
S'default object formatter'
p929
sg3
I01
sg10
I2
sg11
g19
sa(dp930
g3
I01
sg10
I5
sg11
g21
sa(dp931
g3
I01
sg10
I5
sg11
g23
sa(dp932
g3
I01
sg10
I5
sg11
g25
sa(dp933
g3
I01
sg10
I5
sg11
g27
sa(dp934
g3
I01
sg10
I5
sg11
g29
sa(dp935
g1
S'T.__new__(S, ...) -> a new object with type S, a subtype of T'
p936
sg3
I01
sg10
I2
sg11
g32
sa(dp937
g1
Nsg3
I01
sg10
I2
sg11
g34
sa(dp938
g1
S'helper for pickle'
p939
sg3
I01
sg10
I2
sg11
g37
sa(dp940
g3
I01
sg10
I5
sg11
g39
sa(dp941
g3
I01
sg10
I5
sg11
g41
sa(dp942
g1
Nsg3
I01
sg10
I2
sg11
g43
sa(dp943
g1
S'__sizeof__() -> int\nsize of object in memory, in bytes'
p944
sg3
I01
sg10
I2
sg11
g46
sa(dp945
g3
I01
sg10
I5
sg11
g48
sa(dp946
g1
S'Abstract classes can override this to customize issubclass().\n\nThis is invoked early on by abc.ABCMeta.__subclasscheck__().\nIt should return True, False or NotImplemented.  If it returns\nNotImplemented, the normal algorithm is used.  Otherwise, it\noverrides the normal algorithm (and the outcome is cached).\n'
p947
sg3
I01
sg10
I2
sg11
g51
sa(dp948
g1
Nsg3
I01
sg10
I2
sg11
g53
sa(dp949
g3
I01
sg10
I5
sg11
g55
sa(dp950
g3
I01
sg10
I5
sg11
g57
sasg10
I3
sg11
S'RuntimeWarning'
p951
sa(dp952
g1
S'Base class for all standard Python exceptions that do not represent\ninterpreter exiting.'
p953
sg3
I01
sg4
(lp954
(dp955
g3
I01
sg10
I5
sg11
g12
sa(dp956
g3
I01
sg10
I5
sg11
g14
sa(dp957
g3
I01
sg10
I5
sg11
g16
sa(dp958
g1
S'default object formatter'
p959
sg3
I01
sg10
I2
sg11
g19
sa(dp960
g3
I01
sg10
I5
sg11
g21
sa(dp961
g3
I01
sg10
I5
sg11
g23
sa(dp962
g3
I01
sg10
I5
sg11
g25
sa(dp963
g3
I01
sg10
I5
sg11
g27
sa(dp964
g3
I01
sg10
I5
sg11
g29
sa(dp965
g1
S'T.__new__(S, ...) -> a new object with type S, a subtype of T'
p966
sg3
I01
sg10
I2
sg11
g32
sa(dp967
g1
Nsg3
I01
sg10
I2
sg11
g34
sa(dp968
g1
S'helper for pickle'
p969
sg3
I01
sg10
I2
sg11
g37
sa(dp970
g3
I01
sg10
I5
sg11
g39
sa(dp971
g3
I01
sg10
I5
sg11
g41
sa(dp972
g1
Nsg3
I01
sg10
I2
sg11
g43
sa(dp973
g1
S'__sizeof__() -> int\nsize of object in memory, in bytes'
p974
sg3
I01
sg10
I2
sg11
g46
sa(dp975
g3
I01
sg10
I5
sg11
g48
sa(dp976
g1
S'Abstract classes can override this to customize issubclass().\n\nThis is invoked early on by abc.ABCMeta.__subclasscheck__().\nIt should return True, False or NotImplemented.  If it returns\nNotImplemented, the normal algorithm is used.  Otherwise, it\noverrides the normal algorithm (and the outcome is cached).\n'
p977
sg3
I01
sg10
I2
sg11
g51
sa(dp978
g1
Nsg3
I01
sg10
I2
sg11
g53
sa(dp979
g3
I01
sg10
I5
sg11
g55
sa(dp980
g3
I01
sg10
I5
sg11
g57
sasg10
I3
sg11
S'StandardError'
p981
sa(dp982
g1
S'Signal the end from iterator.next().'
p983
sg3
I01
sg4
(lp984
(dp985
g3
I01
sg10
I5
sg11
g12
sa(dp986
g3
I01
sg10
I5
sg11
g14
sa(dp987
g3
I01
sg10
I5
sg11
g16
sa(dp988
g1
S'default object formatter'
p989
sg3
I01
sg10
I2
sg11
g19
sa(dp990
g3
I01
sg10
I5
sg11
g21
sa(dp991
g3
I01
sg10
I5
sg11
g23
sa(dp992
g3
I01
sg10
I5
sg11
g25
sa(dp993
g3
I01
sg10
I5
sg11
g27
sa(dp994
g3
I01
sg10
I5
sg11
g29
sa(dp995
g1
S'T.__new__(S, ...) -> a new object with type S, a subtype of T'
p996
sg3
I01
sg10
I2
sg11
g32
sa(dp997
g1
Nsg3
I01
sg10
I2
sg11
g34
sa(dp998
g1
S'helper for pickle'
p999
sg3
I01
sg10
I2
sg11
g37
sa(dp1000
g3
I01
sg10
I5
sg11
g39
sa(dp1001
g3
I01
sg10
I5
sg11
g41
sa(dp1002
g1
Nsg3
I01
sg10
I2
sg11
g43
sa(dp1003
g1
S'__sizeof__() -> int\nsize of object in memory, in bytes'
p1004
sg3
I01
sg10
I2
sg11
g46
sa(dp1005
g3
I01
sg10
I5
sg11
g48
sa(dp1006
g1
S'Abstract classes can override this to customize issubclass().\n\nThis is invoked early on by abc.ABCMeta.__subclasscheck__().\nIt should return True, False or NotImplemented.  If it returns\nNotImplemented, the normal algorithm is used.  Otherwise, it\noverrides the normal algorithm (and the outcome is cached).\n'
p1007
sg3
I01
sg10
I2
sg11
g51
sa(dp1008
g1
Nsg3
I01
sg10
I2
sg11
g53
sa(dp1009
g3
I01
sg10
I5
sg11
g55
sa(dp1010
g3
I01
sg10
I5
sg11
g57
sasg10
I3
sg11
S'StopIteration'
p1011
sa(dp1012
g1
S'Invalid syntax.'
p1013
sg3
I01
sg4
(lp1014
(dp1015
g3
I01
sg10
I5
sg11
g12
sa(dp1016
g3
I01
sg10
I5
sg11
g14
sa(dp1017
g3
I01
sg10
I5
sg11
g16
sa(dp1018
g1
S'default object formatter'
p1019
sg3
I01
sg10
I2
sg11
g19
sa(dp1020
g3
I01
sg10
I5
sg11
g21
sa(dp1021
g3
I01
sg10
I5
sg11
g23
sa(dp1022
g3
I01
sg10
I5
sg11
g25
sa(dp1023
g3
I01
sg10
I5
sg11
g27
sa(dp1024
g3
I01
sg10
I5
sg11
g29
sa(dp1025
g1
S'T.__new__(S, ...) -> a new object with type S, a subtype of T'
p1026
sg3
I01
sg10
I2
sg11
g32
sa(dp1027
g1
Nsg3
I01
sg10
I2
sg11
g34
sa(dp1028
g1
S'helper for pickle'
p1029
sg3
I01
sg10
I2
sg11
g37
sa(dp1030
g3
I01
sg10
I5
sg11
g39
sa(dp1031
g3
I01
sg10
I5
sg11
g41
sa(dp1032
g1
Nsg3
I01
sg10
I2
sg11
g43
sa(dp1033
g1
S'__sizeof__() -> int\nsize of object in memory, in bytes'
p1034
sg3
I01
sg10
I2
sg11
g46
sa(dp1035
g3
I01
sg10
I5
sg11
g48
sa(dp1036
g1
S'Abstract classes can override this to customize issubclass().\n\nThis is invoked early on by abc.ABCMeta.__subclasscheck__().\nIt should return True, False or NotImplemented.  If it returns\nNotImplemented, the normal algorithm is used.  Otherwise, it\noverrides the normal algorithm (and the outcome is cached).\n'
p1037
sg3
I01
sg10
I2
sg11
g51
sa(dp1038
g1
Nsg3
I01
sg10
I2
sg11
g53
sa(dp1039
g3
I01
sg10
I5
sg11
g55
sa(dp1040
g3
I01
sg10
I5
sg11
g300
sa(dp1041
g3
I01
sg10
I5
sg11
g548
sa(dp1042
g3
I01
sg10
I5
sg11
g57
sa(dp1043
g3
I01
sg10
I5
sg11
g551
sa(dp1044
g3
I01
sg10
I5
sg11
g553
sa(dp1045
g3
I01
sg10
I5
sg11
g555
sa(dp1046
g3
I01
sg10
I5
sg11
g557
sasg10
I3
sg11
S'SyntaxError'
p1047
sa(dp1048
g1
S'Base class for warnings about dubious syntax.'
p1049
sg3
I01
sg4
(lp1050
(dp1051
g3
I01
sg10
I5
sg11
g12
sa(dp1052
g3
I01
sg10
I5
sg11
g14
sa(dp1053
g3
I01
sg10
I5
sg11
g16
sa(dp1054
g1
S'default object formatter'
p1055
sg3
I01
sg10
I2
sg11
g19
sa(dp1056
g3
I01
sg10
I5
sg11
g21
sa(dp1057
g3
I01
sg10
I5
sg11
g23
sa(dp1058
g3
I01
sg10
I5
sg11
g25
sa(dp1059
g3
I01
sg10
I5
sg11
g27
sa(dp1060
g3
I01
sg10
I5
sg11
g29
sa(dp1061
g1
S'T.__new__(S, ...) -> a new object with type S, a subtype of T'
p1062
sg3
I01
sg10
I2
sg11
g32
sa(dp1063
g1
Nsg3
I01
sg10
I2
sg11
g34
sa(dp1064
g1
S'helper for pickle'
p1065
sg3
I01
sg10
I2
sg11
g37
sa(dp1066
g3
I01
sg10
I5
sg11
g39
sa(dp1067
g3
I01
sg10
I5
sg11
g41
sa(dp1068
g1
Nsg3
I01
sg10
I2
sg11
g43
sa(dp1069
g1
S'__sizeof__() -> int\nsize of object in memory, in bytes'
p1070
sg3
I01
sg10
I2
sg11
g46
sa(dp1071
g3
I01
sg10
I5
sg11
g48
sa(dp1072
g1
S'Abstract classes can override this to customize issubclass().\n\nThis is invoked early on by abc.ABCMeta.__subclasscheck__().\nIt should return True, False or NotImplemented.  If it returns\nNotImplemented, the normal algorithm is used.  Otherwise, it\noverrides the normal algorithm (and the outcome is cached).\n'
p1073
sg3
I01
sg10
I2
sg11
g51
sa(dp1074
g1
Nsg3
I01
sg10
I2
sg11
g53
sa(dp1075
g3
I01
sg10
I5
sg11
g55
sa(dp1076
g3
I01
sg10
I5
sg11
g57
sasg10
I3
sg11
S'SyntaxWarning'
p1077
sa(dp1078
g1
S'Internal error in the Python interpreter.\n\nPlease report this to the Python maintainer, along with the traceback,\nthe Python version, and the hardware/OS platform and version.'
p1079
sg3
I01
sg4
(lp1080
(dp1081
g3
I01
sg10
I5
sg11
g12
sa(dp1082
g3
I01
sg10
I5
sg11
g14
sa(dp1083
g3
I01
sg10
I5
sg11
g16
sa(dp1084
g1
S'default object formatter'
p1085
sg3
I01
sg10
I2
sg11
g19
sa(dp1086
g3
I01
sg10
I5
sg11
g21
sa(dp1087
g3
I01
sg10
I5
sg11
g23
sa(dp1088
g3
I01
sg10
I5
sg11
g25
sa(dp1089
g3
I01
sg10
I5
sg11
g27
sa(dp1090
g3
I01
sg10
I5
sg11
g29
sa(dp1091
g1
S'T.__new__(S, ...) -> a new object with type S, a subtype of T'
p1092
sg3
I01
sg10
I2
sg11
g32
sa(dp1093
g1
Nsg3
I01
sg10
I2
sg11
g34
sa(dp1094
g1
S'helper for pickle'
p1095
sg3
I01
sg10
I2
sg11
g37
sa(dp1096
g3
I01
sg10
I5
sg11
g39
sa(dp1097
g3
I01
sg10
I5
sg11
g41
sa(dp1098
g1
Nsg3
I01
sg10
I2
sg11
g43
sa(dp1099
g1
S'__sizeof__() -> int\nsize of object in memory, in bytes'
p1100
sg3
I01
sg10
I2
sg11
g46
sa(dp1101
g3
I01
sg10
I5
sg11
g48
sa(dp1102
g1
S'Abstract classes can override this to customize issubclass().\n\nThis is invoked early on by abc.ABCMeta.__subclasscheck__().\nIt should return True, False or NotImplemented.  If it returns\nNotImplemented, the normal algorithm is used.  Otherwise, it\noverrides the normal algorithm (and the outcome is cached).\n'
p1103
sg3
I01
sg10
I2
sg11
g51
sa(dp1104
g1
Nsg3
I01
sg10
I2
sg11
g53
sa(dp1105
g3
I01
sg10
I5
sg11
g55
sa(dp1106
g3
I01
sg10
I5
sg11
g57
sasg10
I3
sg11
S'SystemError'
p1107
sa(dp1108
g1
S'Request to exit from the interpreter.'
p1109
sg3
I01
sg4
(lp1110
(dp1111
g3
I01
sg10
I5
sg11
g12
sa(dp1112
g3
I01
sg10
I5
sg11
g14
sa(dp1113
g3
I01
sg10
I5
sg11
g16
sa(dp1114
g1
S'default object formatter'
p1115
sg3
I01
sg10
I2
sg11
g19
sa(dp1116
g3
I01
sg10
I5
sg11
g21
sa(dp1117
g3
I01
sg10
I5
sg11
g23
sa(dp1118
g3
I01
sg10
I5
sg11
g25
sa(dp1119
g3
I01
sg10
I5
sg11
g27
sa(dp1120
g3
I01
sg10
I5
sg11
g29
sa(dp1121
g1
S'T.__new__(S, ...) -> a new object with type S, a subtype of T'
p1122
sg3
I01
sg10
I2
sg11
g32
sa(dp1123
g1
Nsg3
I01
sg10
I2
sg11
g34
sa(dp1124
g1
S'helper for pickle'
p1125
sg3
I01
sg10
I2
sg11
g37
sa(dp1126
g3
I01
sg10
I5
sg11
g39
sa(dp1127
g3
I01
sg10
I5
sg11
g41
sa(dp1128
g1
Nsg3
I01
sg10
I2
sg11
g43
sa(dp1129
g1
S'__sizeof__() -> int\nsize of object in memory, in bytes'
p1130
sg3
I01
sg10
I2
sg11
g46
sa(dp1131
g3
I01
sg10
I5
sg11
g48
sa(dp1132
g1
S'Abstract classes can override this to customize issubclass().\n\nThis is invoked early on by abc.ABCMeta.__subclasscheck__().\nIt should return True, False or NotImplemented.  If it returns\nNotImplemented, the normal algorithm is used.  Otherwise, it\noverrides the normal algorithm (and the outcome is cached).\n'
p1133
sg3
I01
sg10
I2
sg11
g51
sa(dp1134
g1
Nsg3
I01
sg10
I2
sg11
g53
sa(dp1135
g3
I01
sg10
I5
sg11
g55
sa(dp1136
g3
I01
sg10
I5
sg11
S'code'
p1137
sa(dp1138
g3
I01
sg10
I5
sg11
g57
sasg10
I3
sg11
S'SystemExit'
p1139
sa(dp1140
g1
S'Improper mixture of spaces and tabs.'
p1141
sg3
I01
sg4
(lp1142
(dp1143
g3
I01
sg10
I5
sg11
g12
sa(dp1144
g3
I01
sg10
I5
sg11
g14
sa(dp1145
g3
I01
sg10
I5
sg11
g16
sa(dp1146
g1
S'default object formatter'
p1147
sg3
I01
sg10
I2
sg11
g19
sa(dp1148
g3
I01
sg10
I5
sg11
g21
sa(dp1149
g3
I01
sg10
I5
sg11
g23
sa(dp1150
g3
I01
sg10
I5
sg11
g25
sa(dp1151
g3
I01
sg10
I5
sg11
g27
sa(dp1152
g3
I01
sg10
I5
sg11
g29
sa(dp1153
g1
S'T.__new__(S, ...) -> a new object with type S, a subtype of T'
p1154
sg3
I01
sg10
I2
sg11
g32
sa(dp1155
g1
Nsg3
I01
sg10
I2
sg11
g34
sa(dp1156
g1
S'helper for pickle'
p1157
sg3
I01
sg10
I2
sg11
g37
sa(dp1158
g3
I01
sg10
I5
sg11
g39
sa(dp1159
g3
I01
sg10
I5
sg11
g41
sa(dp1160
g1
Nsg3
I01
sg10
I2
sg11
g43
sa(dp1161
g1
S'__sizeof__() -> int\nsize of object in memory, in bytes'
p1162
sg3
I01
sg10
I2
sg11
g46
sa(dp1163
g3
I01
sg10
I5
sg11
g48
sa(dp1164
g1
S'Abstract classes can override this to customize issubclass().\n\nThis is invoked early on by abc.ABCMeta.__subclasscheck__().\nIt should return True, False or NotImplemented.  If it returns\nNotImplemented, the normal algorithm is used.  Otherwise, it\noverrides the normal algorithm (and the outcome is cached).\n'
p1165
sg3
I01
sg10
I2
sg11
g51
sa(dp1166
g1
Nsg3
I01
sg10
I2
sg11
g53
sa(dp1167
g3
I01
sg10
I5
sg11
g55
sa(dp1168
g3
I01
sg10
I5
sg11
g300
sa(dp1169
g3
I01
sg10
I5
sg11
g548
sa(dp1170
g3
I01
sg10
I5
sg11
g57
sa(dp1171
g3
I01
sg10
I5
sg11
g551
sa(dp1172
g3
I01
sg10
I5
sg11
g553
sa(dp1173
g3
I01
sg10
I5
sg11
g555
sa(dp1174
g3
I01
sg10
I5
sg11
g557
sasg10
I3
sg11
S'TabError'
p1175
sa(dp1176
g1
S'Inappropriate argument type.'
p1177
sg3
I01
sg4
(lp1178
(dp1179
g3
I01
sg10
I5
sg11
g12
sa(dp1180
g3
I01
sg10
I5
sg11
g14
sa(dp1181
g3
I01
sg10
I5
sg11
g16
sa(dp1182
g1
S'default object formatter'
p1183
sg3
I01
sg10
I2
sg11
g19
sa(dp1184
g3
I01
sg10
I5
sg11
g21
sa(dp1185
g3
I01
sg10
I5
sg11
g23
sa(dp1186
g3
I01
sg10
I5
sg11
g25
sa(dp1187
g3
I01
sg10
I5
sg11
g27
sa(dp1188
g3
I01
sg10
I5
sg11
g29
sa(dp1189
g1
S'T.__new__(S, ...) -> a new object with type S, a subtype of T'
p1190
sg3
I01
sg10
I2
sg11
g32
sa(dp1191
g1
Nsg3
I01
sg10
I2
sg11
g34
sa(dp1192
g1
S'helper for pickle'
p1193
sg3
I01
sg10
I2
sg11
g37
sa(dp1194
g3
I01
sg10
I5
sg11
g39
sa(dp1195
g3
I01
sg10
I5
sg11
g41
sa(dp1196
g1
Nsg3
I01
sg10
I2
sg11
g43
sa(dp1197
g1
S'__sizeof__() -> int\nsize of object in memory, in bytes'
p1198
sg3
I01
sg10
I2
sg11
g46
sa(dp1199
g3
I01
sg10
I5
sg11
g48
sa(dp1200
g1
S'Abstract classes can override this to customize issubclass().\n\nThis is invoked early on by abc.ABCMeta.__subclasscheck__().\nIt should return True, False or NotImplemented.  If it returns\nNotImplemented, the normal algorithm is used.  Otherwise, it\noverrides the normal algorithm (and the outcome is cached).\n'
p1201
sg3
I01
sg10
I2
sg11
g51
sa(dp1202
g1
Nsg3
I01
sg10
I2
sg11
g53
sa(dp1203
g3
I01
sg10
I5
sg11
g55
sa(dp1204
g3
I01
sg10
I5
sg11
g57
sasg10
I3
sg11
S'TypeError'
p1205
sa(dp1206
g1
S'Local name referenced but not bound to a value.'
p1207
sg3
I01
sg4
(lp1208
(dp1209
g3
I01
sg10
I5
sg11
g12
sa(dp1210
g3
I01
sg10
I5
sg11
g14
sa(dp1211
g3
I01
sg10
I5
sg11
g16
sa(dp1212
g1
S'default object formatter'
p1213
sg3
I01
sg10
I2
sg11
g19
sa(dp1214
g3
I01
sg10
I5
sg11
g21
sa(dp1215
g3
I01
sg10
I5
sg11
g23
sa(dp1216
g3
I01
sg10
I5
sg11
g25
sa(dp1217
g3
I01
sg10
I5
sg11
g27
sa(dp1218
g3
I01
sg10
I5
sg11
g29
sa(dp1219
g1
S'T.__new__(S, ...) -> a new object with type S, a subtype of T'
p1220
sg3
I01
sg10
I2
sg11
g32
sa(dp1221
g1
Nsg3
I01
sg10
I2
sg11
g34
sa(dp1222
g1
S'helper for pickle'
p1223
sg3
I01
sg10
I2
sg11
g37
sa(dp1224
g3
I01
sg10
I5
sg11
g39
sa(dp1225
g3
I01
sg10
I5
sg11
g41
sa(dp1226
g1
Nsg3
I01
sg10
I2
sg11
g43
sa(dp1227
g1
S'__sizeof__() -> int\nsize of object in memory, in bytes'
p1228
sg3
I01
sg10
I2
sg11
g46
sa(dp1229
g3
I01
sg10
I5
sg11
g48
sa(dp1230
g1
S'Abstract classes can override this to customize issubclass().\n\nThis is invoked early on by abc.ABCMeta.__subclasscheck__().\nIt should return True, False or NotImplemented.  If it returns\nNotImplemented, the normal algorithm is used.  Otherwise, it\noverrides the normal algorithm (and the outcome is cached).\n'
p1231
sg3
I01
sg10
I2
sg11
g51
sa(dp1232
g1
Nsg3
I01
sg10
I2
sg11
g53
sa(dp1233
g3
I01
sg10
I5
sg11
g55
sa(dp1234
g3
I01
sg10
I5
sg11
g57
sasg10
I3
sg11
S'UnboundLocalError'
p1235
sa(dp1236
g1
S'Unicode decoding error.'
p1237
sg3
I01
sg4
(lp1238
(dp1239
g3
I01
sg10
I5
sg11
g12
sa(dp1240
g3
I01
sg10
I5
sg11
g14
sa(dp1241
g3
I01
sg10
I5
sg11
g16
sa(dp1242
g1
S'default object formatter'
p1243
sg3
I01
sg10
I2
sg11
g19
sa(dp1244
g3
I01
sg10
I5
sg11
g21
sa(dp1245
g3
I01
sg10
I5
sg11
g23
sa(dp1246
g3
I01
sg10
I5
sg11
g25
sa(dp1247
g3
I01
sg10
I5
sg11
g27
sa(dp1248
g3
I01
sg10
I5
sg11
g29
sa(dp1249
g1
S'T.__new__(S, ...) -> a new object with type S, a subtype of T'
p1250
sg3
I01
sg10
I2
sg11
g32
sa(dp1251
g1
Nsg3
I01
sg10
I2
sg11
g34
sa(dp1252
g1
S'helper for pickle'
p1253
sg3
I01
sg10
I2
sg11
g37
sa(dp1254
g3
I01
sg10
I5
sg11
g39
sa(dp1255
g3
I01
sg10
I5
sg11
g41
sa(dp1256
g1
Nsg3
I01
sg10
I2
sg11
g43
sa(dp1257
g1
S'__sizeof__() -> int\nsize of object in memory, in bytes'
p1258
sg3
I01
sg10
I2
sg11
g46
sa(dp1259
g3
I01
sg10
I5
sg11
g48
sa(dp1260
g1
S'Abstract classes can override this to customize issubclass().\n\nThis is invoked early on by abc.ABCMeta.__subclasscheck__().\nIt should return True, False or NotImplemented.  If it returns\nNotImplemented, the normal algorithm is used.  Otherwise, it\noverrides the normal algorithm (and the outcome is cached).\n'
p1261
sg3
I01
sg10
I2
sg11
g51
sa(dp1262
g1
Nsg3
I01
sg10
I2
sg11
g53
sa(dp1263
g3
I01
sg10
I5
sg11
g55
sa(dp1264
g3
I01
sg10
I5
sg11
S'encoding'
p1265
sa(dp1266
g3
I01
sg10
I5
sg11
S'end'
p1267
sa(dp1268
g3
I01
sg10
I5
sg11
g57
sa(dp1269
g3
I01
sg10
I5
sg11
S'object'
p1270
sa(dp1271
g3
I01
sg10
I5
sg11
S'reason'
p1272
sa(dp1273
g3
I01
sg10
I5
sg11
S'start'
p1274
sasg10
I3
sg11
S'UnicodeDecodeError'
p1275
sa(dp1276
g1
S'Unicode encoding error.'
p1277
sg3
I01
sg4
(lp1278
(dp1279
g3
I01
sg10
I5
sg11
g12
sa(dp1280
g3
I01
sg10
I5
sg11
g14
sa(dp1281
g3
I01
sg10
I5
sg11
g16
sa(dp1282
g1
S'default object formatter'
p1283
sg3
I01
sg10
I2
sg11
g19
sa(dp1284
g3
I01
sg10
I5
sg11
g21
sa(dp1285
g3
I01
sg10
I5
sg11
g23
sa(dp1286
g3
I01
sg10
I5
sg11
g25
sa(dp1287
g3
I01
sg10
I5
sg11
g27
sa(dp1288
g3
I01
sg10
I5
sg11
g29
sa(dp1289
g1
S'T.__new__(S, ...) -> a new object with type S, a subtype of T'
p1290
sg3
I01
sg10
I2
sg11
g32
sa(dp1291
g1
Nsg3
I01
sg10
I2
sg11
g34
sa(dp1292
g1
S'helper for pickle'
p1293
sg3
I01
sg10
I2
sg11
g37
sa(dp1294
g3
I01
sg10
I5
sg11
g39
sa(dp1295
g3
I01
sg10
I5
sg11
g41
sa(dp1296
g1
Nsg3
I01
sg10
I2
sg11
g43
sa(dp1297
g1
S'__sizeof__() -> int\nsize of object in memory, in bytes'
p1298
sg3
I01
sg10
I2
sg11
g46
sa(dp1299
g3
I01
sg10
I5
sg11
g48
sa(dp1300
g1
S'Abstract classes can override this to customize issubclass().\n\nThis is invoked early on by abc.ABCMeta.__subclasscheck__().\nIt should return True, False or NotImplemented.  If it returns\nNotImplemented, the normal algorithm is used.  Otherwise, it\noverrides the normal algorithm (and the outcome is cached).\n'
p1301
sg3
I01
sg10
I2
sg11
g51
sa(dp1302
g1
Nsg3
I01
sg10
I2
sg11
g53
sa(dp1303
g3
I01
sg10
I5
sg11
g55
sa(dp1304
g3
I01
sg10
I5
sg11
g1265
sa(dp1305
g3
I01
sg10
I5
sg11
g1267
sa(dp1306
g3
I01
sg10
I5
sg11
g57
sa(dp1307
g3
I01
sg10
I5
sg11
g1270
sa(dp1308
g3
I01
sg10
I5
sg11
g1272
sa(dp1309
g3
I01
sg10
I5
sg11
g1274
sasg10
I3
sg11
S'UnicodeEncodeError'
p1310
sa(dp1311
g1
S'Unicode related error.'
p1312
sg3
I01
sg4
(lp1313
(dp1314
g3
I01
sg10
I5
sg11
g12
sa(dp1315
g3
I01
sg10
I5
sg11
g14
sa(dp1316
g3
I01
sg10
I5
sg11
g16
sa(dp1317
g1
S'default object formatter'
p1318
sg3
I01
sg10
I2
sg11
g19
sa(dp1319
g3
I01
sg10
I5
sg11
g21
sa(dp1320
g3
I01
sg10
I5
sg11
g23
sa(dp1321
g3
I01
sg10
I5
sg11
g25
sa(dp1322
g3
I01
sg10
I5
sg11
g27
sa(dp1323
g3
I01
sg10
I5
sg11
g29
sa(dp1324
g1
S'T.__new__(S, ...) -> a new object with type S, a subtype of T'
p1325
sg3
I01
sg10
I2
sg11
g32
sa(dp1326
g1
Nsg3
I01
sg10
I2
sg11
g34
sa(dp1327
g1
S'helper for pickle'
p1328
sg3
I01
sg10
I2
sg11
g37
sa(dp1329
g3
I01
sg10
I5
sg11
g39
sa(dp1330
g3
I01
sg10
I5
sg11
g41
sa(dp1331
g1
Nsg3
I01
sg10
I2
sg11
g43
sa(dp1332
g1
S'__sizeof__() -> int\nsize of object in memory, in bytes'
p1333
sg3
I01
sg10
I2
sg11
g46
sa(dp1334
g3
I01
sg10
I5
sg11
g48
sa(dp1335
g1
S'Abstract classes can override this to customize issubclass().\n\nThis is invoked early on by abc.ABCMeta.__subclasscheck__().\nIt should return True, False or NotImplemented.  If it returns\nNotImplemented, the normal algorithm is used.  Otherwise, it\noverrides the normal algorithm (and the outcome is cached).\n'
p1336
sg3
I01
sg10
I2
sg11
g51
sa(dp1337
g1
Nsg3
I01
sg10
I2
sg11
g53
sa(dp1338
g3
I01
sg10
I5
sg11
g55
sa(dp1339
g3
I01
sg10
I5
sg11
g57
sasg10
I3
sg11
S'UnicodeError'
p1340
sa(dp1341
g1
S'Unicode translation error.'
p1342
sg3
I01
sg4
(lp1343
(dp1344
g3
I01
sg10
I5
sg11
g12
sa(dp1345
g3
I01
sg10
I5
sg11
g14
sa(dp1346
g3
I01
sg10
I5
sg11
g16
sa(dp1347
g1
S'default object formatter'
p1348
sg3
I01
sg10
I2
sg11
g19
sa(dp1349
g3
I01
sg10
I5
sg11
g21
sa(dp1350
g3
I01
sg10
I5
sg11
g23
sa(dp1351
g3
I01
sg10
I5
sg11
g25
sa(dp1352
g3
I01
sg10
I5
sg11
g27
sa(dp1353
g3
I01
sg10
I5
sg11
g29
sa(dp1354
g1
S'T.__new__(S, ...) -> a new object with type S, a subtype of T'
p1355
sg3
I01
sg10
I2
sg11
g32
sa(dp1356
g1
Nsg3
I01
sg10
I2
sg11
g34
sa(dp1357
g1
S'helper for pickle'
p1358
sg3
I01
sg10
I2
sg11
g37
sa(dp1359
g3
I01
sg10
I5
sg11
g39
sa(dp1360
g3
I01
sg10
I5
sg11
g41
sa(dp1361
g1
Nsg3
I01
sg10
I2
sg11
g43
sa(dp1362
g1
S'__sizeof__() -> int\nsize of object in memory, in bytes'
p1363
sg3
I01
sg10
I2
sg11
g46
sa(dp1364
g3
I01
sg10
I5
sg11
g48
sa(dp1365
g1
S'Abstract classes can override this to customize issubclass().\n\nThis is invoked early on by abc.ABCMeta.__subclasscheck__().\nIt should return True, False or NotImplemented.  If it returns\nNotImplemented, the normal algorithm is used.  Otherwise, it\noverrides the normal algorithm (and the outcome is cached).\n'
p1366
sg3
I01
sg10
I2
sg11
g51
sa(dp1367
g1
Nsg3
I01
sg10
I2
sg11
g53
sa(dp1368
g3
I01
sg10
I5
sg11
g55
sa(dp1369
g3
I01
sg10
I5
sg11
g1265
sa(dp1370
g3
I01
sg10
I5
sg11
g1267
sa(dp1371
g3
I01
sg10
I5
sg11
g57
sa(dp1372
g3
I01
sg10
I5
sg11
g1270
sa(dp1373
g3
I01
sg10
I5
sg11
g1272
sa(dp1374
g3
I01
sg10
I5
sg11
g1274
sasg10
I3
sg11
S'UnicodeTranslateError'
p1375
sa(dp1376
g1
S'Base class for warnings about Unicode related problems, mostly\nrelated to conversion problems.'
p1377
sg3
I01
sg4
(lp1378
(dp1379
g3
I01
sg10
I5
sg11
g12
sa(dp1380
g3
I01
sg10
I5
sg11
g14
sa(dp1381
g3
I01
sg10
I5
sg11
g16
sa(dp1382
g1
S'default object formatter'
p1383
sg3
I01
sg10
I2
sg11
g19
sa(dp1384
g3
I01
sg10
I5
sg11
g21
sa(dp1385
g3
I01
sg10
I5
sg11
g23
sa(dp1386
g3
I01
sg10
I5
sg11
g25
sa(dp1387
g3
I01
sg10
I5
sg11
g27
sa(dp1388
g3
I01
sg10
I5
sg11
g29
sa(dp1389
g1
S'T.__new__(S, ...) -> a new object with type S, a subtype of T'
p1390
sg3
I01
sg10
I2
sg11
g32
sa(dp1391
g1
Nsg3
I01
sg10
I2
sg11
g34
sa(dp1392
g1
S'helper for pickle'
p1393
sg3
I01
sg10
I2
sg11
g37
sa(dp1394
g3
I01
sg10
I5
sg11
g39
sa(dp1395
g3
I01
sg10
I5
sg11
g41
sa(dp1396
g1
Nsg3
I01
sg10
I2
sg11
g43
sa(dp1397
g1
S'__sizeof__() -> int\nsize of object in memory, in bytes'
p1398
sg3
I01
sg10
I2
sg11
g46
sa(dp1399
g3
I01
sg10
I5
sg11
g48
sa(dp1400
g1
S'Abstract classes can override this to customize issubclass().\n\nThis is invoked early on by abc.ABCMeta.__subclasscheck__().\nIt should return True, False or NotImplemented.  If it returns\nNotImplemented, the normal algorithm is used.  Otherwise, it\noverrides the normal algorithm (and the outcome is cached).\n'
p1401
sg3
I01
sg10
I2
sg11
g51
sa(dp1402
g1
Nsg3
I01
sg10
I2
sg11
g53
sa(dp1403
g3
I01
sg10
I5
sg11
g55
sa(dp1404
g3
I01
sg10
I5
sg11
g57
sasg10
I3
sg11
S'UnicodeWarning'
p1405
sa(dp1406
g1
S'Base class for warnings generated by user code.'
p1407
sg3
I01
sg4
(lp1408
(dp1409
g3
I01
sg10
I5
sg11
g12
sa(dp1410
g3
I01
sg10
I5
sg11
g14
sa(dp1411
g3
I01
sg10
I5
sg11
g16
sa(dp1412
g1
S'default object formatter'
p1413
sg3
I01
sg10
I2
sg11
g19
sa(dp1414
g3
I01
sg10
I5
sg11
g21
sa(dp1415
g3
I01
sg10
I5
sg11
g23
sa(dp1416
g3
I01
sg10
I5
sg11
g25
sa(dp1417
g3
I01
sg10
I5
sg11
g27
sa(dp1418
g3
I01
sg10
I5
sg11
g29
sa(dp1419
g1
S'T.__new__(S, ...) -> a new object with type S, a subtype of T'
p1420
sg3
I01
sg10
I2
sg11
g32
sa(dp1421
g1
Nsg3
I01
sg10
I2
sg11
g34
sa(dp1422
g1
S'helper for pickle'
p1423
sg3
I01
sg10
I2
sg11
g37
sa(dp1424
g3
I01
sg10
I5
sg11
g39
sa(dp1425
g3
I01
sg10
I5
sg11
g41
sa(dp1426
g1
Nsg3
I01
sg10
I2
sg11
g43
sa(dp1427
g1
S'__sizeof__() -> int\nsize of object in memory, in bytes'
p1428
sg3
I01
sg10
I2
sg11
g46
sa(dp1429
g3
I01
sg10
I5
sg11
g48
sa(dp1430
g1
S'Abstract classes can override this to customize issubclass().\n\nThis is invoked early on by abc.ABCMeta.__subclasscheck__().\nIt should return True, False or NotImplemented.  If it returns\nNotImplemented, the normal algorithm is used.  Otherwise, it\noverrides the normal algorithm (and the outcome is cached).\n'
p1431
sg3
I01
sg10
I2
sg11
g51
sa(dp1432
g1
Nsg3
I01
sg10
I2
sg11
g53
sa(dp1433
g3
I01
sg10
I5
sg11
g55
sa(dp1434
g3
I01
sg10
I5
sg11
g57
sasg10
I3
sg11
S'UserWarning'
p1435
sa(dp1436
g1
S'Inappropriate argument value (of correct type).'
p1437
sg3
I01
sg4
(lp1438
(dp1439
g3
I01
sg10
I5
sg11
g12
sa(dp1440
g3
I01
sg10
I5
sg11
g14
sa(dp1441
g3
I01
sg10
I5
sg11
g16
sa(dp1442
g1
S'default object formatter'
p1443
sg3
I01
sg10
I2
sg11
g19
sa(dp1444
g3
I01
sg10
I5
sg11
g21
sa(dp1445
g3
I01
sg10
I5
sg11
g23
sa(dp1446
g3
I01
sg10
I5
sg11
g25
sa(dp1447
g3
I01
sg10
I5
sg11
g27
sa(dp1448
g3
I01
sg10
I5
sg11
g29
sa(dp1449
g1
S'T.__new__(S, ...) -> a new object with type S, a subtype of T'
p1450
sg3
I01
sg10
I2
sg11
g32
sa(dp1451
g1
Nsg3
I01
sg10
I2
sg11
g34
sa(dp1452
g1
S'helper for pickle'
p1453
sg3
I01
sg10
I2
sg11
g37
sa(dp1454
g3
I01
sg10
I5
sg11
g39
sa(dp1455
g3
I01
sg10
I5
sg11
g41
sa(dp1456
g1
Nsg3
I01
sg10
I2
sg11
g43
sa(dp1457
g1
S'__sizeof__() -> int\nsize of object in memory, in bytes'
p1458
sg3
I01
sg10
I2
sg11
g46
sa(dp1459
g3
I01
sg10
I5
sg11
g48
sa(dp1460
g1
S'Abstract classes can override this to customize issubclass().\n\nThis is invoked early on by abc.ABCMeta.__subclasscheck__().\nIt should return True, False or NotImplemented.  If it returns\nNotImplemented, the normal algorithm is used.  Otherwise, it\noverrides the normal algorithm (and the outcome is cached).\n'
p1461
sg3
I01
sg10
I2
sg11
g51
sa(dp1462
g1
Nsg3
I01
sg10
I2
sg11
g53
sa(dp1463
g3
I01
sg10
I5
sg11
g55
sa(dp1464
g3
I01
sg10
I5
sg11
g57
sasg10
I3
sg11
S'ValueError'
p1465
sa(dp1466
g1
S'Base class for warning categories.'
p1467
sg3
I01
sg4
(lp1468
(dp1469
g3
I01
sg10
I5
sg11
g12
sa(dp1470
g3
I01
sg10
I5
sg11
g14
sa(dp1471
g3
I01
sg10
I5
sg11
g16
sa(dp1472
g1
S'default object formatter'
p1473
sg3
I01
sg10
I2
sg11
g19
sa(dp1474
g3
I01
sg10
I5
sg11
g21
sa(dp1475
g3
I01
sg10
I5
sg11
g23
sa(dp1476
g3
I01
sg10
I5
sg11
g25
sa(dp1477
g3
I01
sg10
I5
sg11
g27
sa(dp1478
g3
I01
sg10
I5
sg11
g29
sa(dp1479
g1
S'T.__new__(S, ...) -> a new object with type S, a subtype of T'
p1480
sg3
I01
sg10
I2
sg11
g32
sa(dp1481
g1
Nsg3
I01
sg10
I2
sg11
g34
sa(dp1482
g1
S'helper for pickle'
p1483
sg3
I01
sg10
I2
sg11
g37
sa(dp1484
g3
I01
sg10
I5
sg11
g39
sa(dp1485
g3
I01
sg10
I5
sg11
g41
sa(dp1486
g1
Nsg3
I01
sg10
I2
sg11
g43
sa(dp1487
g1
S'__sizeof__() -> int\nsize of object in memory, in bytes'
p1488
sg3
I01
sg10
I2
sg11
g46
sa(dp1489
g3
I01
sg10
I5
sg11
g48
sa(dp1490
g1
S'Abstract classes can override this to customize issubclass().\n\nThis is invoked early on by abc.ABCMeta.__subclasscheck__().\nIt should return True, False or NotImplemented.  If it returns\nNotImplemented, the normal algorithm is used.  Otherwise, it\noverrides the normal algorithm (and the outcome is cached).\n'
p1491
sg3
I01
sg10
I2
sg11
g51
sa(dp1492
g1
Nsg3
I01
sg10
I2
sg11
g53
sa(dp1493
g3
I01
sg10
I5
sg11
g55
sa(dp1494
g3
I01
sg10
I5
sg11
g57
sasg10
I3
sg11
S'Warning'
p1495
sa(dp1496
g1
S'Second argument to a division or modulo operation was zero.'
p1497
sg3
I01
sg4
(lp1498
(dp1499
g3
I01
sg10
I5
sg11
g12
sa(dp1500
g3
I01
sg10
I5
sg11
g14
sa(dp1501
g3
I01
sg10
I5
sg11
g16
sa(dp1502
g1
S'default object formatter'
p1503
sg3
I01
sg10
I2
sg11
g19
sa(dp1504
g3
I01
sg10
I5
sg11
g21
sa(dp1505
g3
I01
sg10
I5
sg11
g23
sa(dp1506
g3
I01
sg10
I5
sg11
g25
sa(dp1507
g3
I01
sg10
I5
sg11
g27
sa(dp1508
g3
I01
sg10
I5
sg11
g29
sa(dp1509
g1
S'T.__new__(S, ...) -> a new object with type S, a subtype of T'
p1510
sg3
I01
sg10
I2
sg11
g32
sa(dp1511
g1
Nsg3
I01
sg10
I2
sg11
g34
sa(dp1512
g1
S'helper for pickle'
p1513
sg3
I01
sg10
I2
sg11
g37
sa(dp1514
g3
I01
sg10
I5
sg11
g39
sa(dp1515
g3
I01
sg10
I5
sg11
g41
sa(dp1516
g1
Nsg3
I01
sg10
I2
sg11
g43
sa(dp1517
g1
S'__sizeof__() -> int\nsize of object in memory, in bytes'
p1518
sg3
I01
sg10
I2
sg11
g46
sa(dp1519
g3
I01
sg10
I5
sg11
g48
sa(dp1520
g1
S'Abstract classes can override this to customize issubclass().\n\nThis is invoked early on by abc.ABCMeta.__subclasscheck__().\nIt should return True, False or NotImplemented.  If it returns\nNotImplemented, the normal algorithm is used.  Otherwise, it\noverrides the normal algorithm (and the outcome is cached).\n'
p1521
sg3
I01
sg10
I2
sg11
g51
sa(dp1522
g1
Nsg3
I01
sg10
I2
sg11
g53
sa(dp1523
g3
I01
sg10
I5
sg11
g55
sa(dp1524
g3
I01
sg10
I5
sg11
g57
sasg10
I3
sg11
S'ZeroDivisionError'
p1525
sa(dp1526
g3
I01
sg10
I5
sg11
g16
sa(dp1527
g3
I01
sg10
I5
sg11
S'__name__'
p1528
sa(dp1529
g3
I01
sg10
I5
sg11
S'__package__'
p1530
sasg11
S'exceptions'
p1531
s.