(dp0
S'is_builtin'
p1
I01
sS'childs'
p2
(lp3
(dp4
g1
I01
sS'type'
p5
I5
sS'name'
p6
S'C_BUILTIN'
p7
sa(dp8
g1
I01
sg5
I5
sg6
S'C_EXTENSION'
p9
sa(dp10
g1
I01
sg5
I5
sg6
S'IMP_HOOK'
p11
sa(dp12
g1
I01
sg2
(lp13
(dp14
g1
I01
sg5
I5
sg6
S'__delattr__'
p15
sa(dp16
g1
I01
sg5
I5
sg6
S'__doc__'
p17
sa(dp18
g1
I01
sg5
I2
sg6
S'__format__'
p19
sa(dp20
g1
I01
sg5
I5
sg6
S'__getattribute__'
p21
sa(dp22
g1
I01
sg5
I5
sg6
S'__hash__'
p23
sa(dp24
g1
I01
sg5
I5
sg6
S'__init__'
p25
sa(dp26
g1
I01
sg5
I2
sg6
S'__new__'
p27
sa(dp28
g1
I01
sg5
I2
sg6
S'__reduce__'
p29
sa(dp30
g1
I01
sg5
I2
sg6
S'__reduce_ex__'
p31
sa(dp32
g1
I01
sg5
I5
sg6
S'__repr__'
p33
sa(dp34
g1
I01
sg5
I5
sg6
S'__setattr__'
p35
sa(dp36
g1
I01
sg5
I2
sg6
S'__sizeof__'
p37
sa(dp38
g1
I01
sg5
I5
sg6
S'__str__'
p39
sa(dp40
g1
I01
sg5
I2
sg6
S'__subclasshook__'
p41
sa(dp42
g1
I01
sg5
I2
sg6
S'find_module'
p43
sasg5
I3
sg6
S'NullImporter'
p44
sa(dp45
g1
I01
sg5
I5
sg6
S'PKG_DIRECTORY'
p46
sa(dp47
g1
I01
sg5
I5
sg6
S'PY_CODERESOURCE'
p48
sa(dp49
g1
I01
sg5
I5
sg6
S'PY_COMPILED'
p50
sa(dp51
g1
I01
sg5
I5
sg6
S'PY_FROZEN'
p52
sa(dp53
g1
I01
sg5
I5
sg6
S'PY_RESOURCE'
p54
sa(dp55
g1
I01
sg5
I5
sg6
S'PY_SOURCE'
p56
sa(dp57
g1
I01
sg5
I5
sg6
S'SEARCH_ERROR'
p58
sa(dp59
g1
I01
sg5
I5
sg6
g17
sa(dp60
g1
I01
sg5
I5
sg6
S'__name__'
p61
sa(dp62
g1
I01
sg5
I5
sg6
S'__package__'
p63
sa(dp64
g1
I01
sg5
I2
sg6
S'acquire_lock'
p65
sa(dp66
g1
I01
sg5
I2
sg6
g43
sa(dp67
g1
I01
sg5
I2
sg6
S'get_frozen_object'
p68
sa(dp69
g1
I01
sg5
I2
sg6
S'get_magic'
p70
sa(dp71
g1
I01
sg5
I2
sg6
S'get_suffixes'
p72
sa(dp73
g1
I01
sg5
I2
sg6
S'init_builtin'
p74
sa(dp75
g1
I01
sg5
I2
sg6
S'init_frozen'
p76
sa(dp77
g1
I01
sg5
I2
sg6
g1
sa(dp78
g1
I01
sg5
I2
sg6
S'is_frozen'
p79
sa(dp80
g1
I01
sg5
I2
sg6
S'load_compiled'
p81
sa(dp82
g1
I01
sg5
I2
sg6
S'load_dynamic'
p83
sa(dp84
g1
I01
sg5
I2
sg6
S'load_module'
p85
sa(dp86
g1
I01
sg5
I2
sg6
S'load_package'
p87
sa(dp88
g1
I01
sg5
I2
sg6
S'load_source'
p89
sa(dp90
g1
I01
sg5
I2
sg6
S'lock_held'
p91
sa(dp92
g1
I01
sg5
I2
sg6
S'new_module'
p93
sa(dp94
g1
I01
sg5
I2
sg6
S'release_lock'
p95
sa(dp96
g1
I01
sg5
I2
sg6
S'reload'
p97
sasg6
S'imp'
p98
s.