(dp0
S'is_builtin'
p1
I01
sS'childs'
p2
(lp3
(dp4
g1
I01
sS'type'
p5
I5
sS'name'
p6
S'__doc__'
p7
sa(dp8
g1
I01
sg5
I5
sg6
S'__name__'
p9
sa(dp10
g1
I01
sg5
I5
sg6
S'__package__'
p11
sa(dp12
g1
I01
sg2
(lp13
(dp14
g1
I01
sg5
I5
sg6
S'__delattr__'
p15
sa(dp16
g1
I01
sg5
I5
sg6
g7
sa(dp17
g1
I01
sg5
I2
sg6
S'__format__'
p18
sa(dp19
g1
I01
sg5
I5
sg6
S'__getattribute__'
p20
sa(dp21
g1
I01
sg5
I5
sg6
S'__hash__'
p22
sa(dp23
g1
I01
sg5
I5
sg6
S'__init__'
p24
sa(dp25
g1
I01
sg5
I5
sg6
S'__iter__'
p26
sa(dp27
g1
I01
sg5
I2
sg6
S'__new__'
p28
sa(dp29
g1
I01
sg5
I2
sg6
S'__reduce__'
p30
sa(dp31
g1
I01
sg5
I2
sg6
S'__reduce_ex__'
p32
sa(dp33
g1
I01
sg5
I5
sg6
S'__repr__'
p34
sa(dp35
g1
I01
sg5
I5
sg6
S'__setattr__'
p36
sa(dp37
g1
I01
sg5
I2
sg6
S'__sizeof__'
p38
sa(dp39
g1
I01
sg5
I5
sg6
S'__str__'
p40
sa(dp41
g1
I01
sg5
I2
sg6
S'__subclasshook__'
p42
sa(dp43
g1
I01
sg5
I2
sg6
S'from_iterable'
p44
sa(dp45
g1
I01
sg5
I5
sg6
S'next'
p46
sasg5
I3
sg6
S'chain'
p47
sa(dp48
g1
I01
sg2
(lp49
(dp50
g1
I01
sg5
I5
sg6
g15
sa(dp51
g1
I01
sg5
I5
sg6
g7
sa(dp52
g1
I01
sg5
I2
sg6
g18
sa(dp53
g1
I01
sg5
I5
sg6
g20
sa(dp54
g1
I01
sg5
I5
sg6
g22
sa(dp55
g1
I01
sg5
I5
sg6
g24
sa(dp56
g1
I01
sg5
I5
sg6
g26
sa(dp57
g1
I01
sg5
I2
sg6
g28
sa(dp58
g1
I01
sg5
I2
sg6
g30
sa(dp59
g1
I01
sg5
I2
sg6
g32
sa(dp60
g1
I01
sg5
I5
sg6
g34
sa(dp61
g1
I01
sg5
I5
sg6
g36
sa(dp62
g1
I01
sg5
I2
sg6
g38
sa(dp63
g1
I01
sg5
I5
sg6
g40
sa(dp64
g1
I01
sg5
I2
sg6
g42
sa(dp65
g1
I01
sg5
I5
sg6
g46
sasg5
I3
sg6
S'combinations'
p66
sa(dp67
g1
I01
sg2
(lp68
(dp69
g1
I01
sg5
I5
sg6
g15
sa(dp70
g1
I01
sg5
I5
sg6
g7
sa(dp71
g1
I01
sg5
I2
sg6
g18
sa(dp72
g1
I01
sg5
I5
sg6
g20
sa(dp73
g1
I01
sg5
I5
sg6
g22
sa(dp74
g1
I01
sg5
I5
sg6
g24
sa(dp75
g1
I01
sg5
I5
sg6
g26
sa(dp76
g1
I01
sg5
I2
sg6
g28
sa(dp77
g1
I01
sg5
I2
sg6
g30
sa(dp78
g1
I01
sg5
I2
sg6
g32
sa(dp79
g1
I01
sg5
I5
sg6
g34
sa(dp80
g1
I01
sg5
I5
sg6
g36
sa(dp81
g1
I01
sg5
I2
sg6
g38
sa(dp82
g1
I01
sg5
I5
sg6
g40
sa(dp83
g1
I01
sg5
I2
sg6
g42
sa(dp84
g1
I01
sg5
I5
sg6
g46
sasg5
I3
sg6
S'combinations_with_replacement'
p85
sa(dp86
g1
I01
sg2
(lp87
(dp88
g1
I01
sg5
I5
sg6
g15
sa(dp89
g1
I01
sg5
I5
sg6
g7
sa(dp90
g1
I01
sg5
I2
sg6
g18
sa(dp91
g1
I01
sg5
I5
sg6
g20
sa(dp92
g1
I01
sg5
I5
sg6
g22
sa(dp93
g1
I01
sg5
I5
sg6
g24
sa(dp94
g1
I01
sg5
I5
sg6
g26
sa(dp95
g1
I01
sg5
I2
sg6
g28
sa(dp96
g1
I01
sg5
I2
sg6
g30
sa(dp97
g1
I01
sg5
I2
sg6
g32
sa(dp98
g1
I01
sg5
I5
sg6
g34
sa(dp99
g1
I01
sg5
I5
sg6
g36
sa(dp100
g1
I01
sg5
I2
sg6
g38
sa(dp101
g1
I01
sg5
I5
sg6
g40
sa(dp102
g1
I01
sg5
I2
sg6
g42
sa(dp103
g1
I01
sg5
I5
sg6
g46
sasg5
I3
sg6
S'compress'
p104
sa(dp105
g1
I01
sg2
(lp106
(dp107
g1
I01
sg5
I5
sg6
g15
sa(dp108
g1
I01
sg5
I5
sg6
g7
sa(dp109
g1
I01
sg5
I2
sg6
g18
sa(dp110
g1
I01
sg5
I5
sg6
g20
sa(dp111
g1
I01
sg5
I5
sg6
g22
sa(dp112
g1
I01
sg5
I5
sg6
g24
sa(dp113
g1
I01
sg5
I5
sg6
g26
sa(dp114
g1
I01
sg5
I2
sg6
g28
sa(dp115
g1
I01
sg5
I2
sg6
g30
sa(dp116
g1
I01
sg5
I2
sg6
g32
sa(dp117
g1
I01
sg5
I5
sg6
g34
sa(dp118
g1
I01
sg5
I5
sg6
g36
sa(dp119
g1
I01
sg5
I2
sg6
g38
sa(dp120
g1
I01
sg5
I5
sg6
g40
sa(dp121
g1
I01
sg5
I2
sg6
g42
sa(dp122
g1
I01
sg5
I5
sg6
g46
sasg5
I3
sg6
S'count'
p123
sa(dp124
g1
I01
sg2
(lp125
(dp126
g1
I01
sg5
I5
sg6
g15
sa(dp127
g1
I01
sg5
I5
sg6
g7
sa(dp128
g1
I01
sg5
I2
sg6
g18
sa(dp129
g1
I01
sg5
I5
sg6
g20
sa(dp130
g1
I01
sg5
I5
sg6
g22
sa(dp131
g1
I01
sg5
I5
sg6
g24
sa(dp132
g1
I01
sg5
I5
sg6
g26
sa(dp133
g1
I01
sg5
I2
sg6
g28
sa(dp134
g1
I01
sg5
I2
sg6
g30
sa(dp135
g1
I01
sg5
I2
sg6
g32
sa(dp136
g1
I01
sg5
I5
sg6
g34
sa(dp137
g1
I01
sg5
I5
sg6
g36
sa(dp138
g1
I01
sg5
I2
sg6
g38
sa(dp139
g1
I01
sg5
I5
sg6
g40
sa(dp140
g1
I01
sg5
I2
sg6
g42
sa(dp141
g1
I01
sg5
I5
sg6
g46
sasg5
I3
sg6
S'cycle'
p142
sa(dp143
g1
I01
sg2
(lp144
(dp145
g1
I01
sg5
I5
sg6
g15
sa(dp146
g1
I01
sg5
I5
sg6
g7
sa(dp147
g1
I01
sg5
I2
sg6
g18
sa(dp148
g1
I01
sg5
I5
sg6
g20
sa(dp149
g1
I01
sg5
I5
sg6
g22
sa(dp150
g1
I01
sg5
I5
sg6
g24
sa(dp151
g1
I01
sg5
I5
sg6
g26
sa(dp152
g1
I01
sg5
I2
sg6
g28
sa(dp153
g1
I01
sg5
I2
sg6
g30
sa(dp154
g1
I01
sg5
I2
sg6
g32
sa(dp155
g1
I01
sg5
I5
sg6
g34
sa(dp156
g1
I01
sg5
I5
sg6
g36
sa(dp157
g1
I01
sg5
I2
sg6
g38
sa(dp158
g1
I01
sg5
I5
sg6
g40
sa(dp159
g1
I01
sg5
I2
sg6
g42
sa(dp160
g1
I01
sg5
I5
sg6
g46
sasg5
I3
sg6
S'dropwhile'
p161
sa(dp162
g1
I01
sg2
(lp163
(dp164
g1
I01
sg5
I5
sg6
g15
sa(dp165
g1
I01
sg5
I5
sg6
g7
sa(dp166
g1
I01
sg5
I2
sg6
g18
sa(dp167
g1
I01
sg5
I5
sg6
g20
sa(dp168
g1
I01
sg5
I5
sg6
g22
sa(dp169
g1
I01
sg5
I5
sg6
g24
sa(dp170
g1
I01
sg5
I5
sg6
g26
sa(dp171
g1
I01
sg5
I2
sg6
g28
sa(dp172
g1
I01
sg5
I2
sg6
g30
sa(dp173
g1
I01
sg5
I2
sg6
g32
sa(dp174
g1
I01
sg5
I5
sg6
g34
sa(dp175
g1
I01
sg5
I5
sg6
g36
sa(dp176
g1
I01
sg5
I2
sg6
g38
sa(dp177
g1
I01
sg5
I5
sg6
g40
sa(dp178
g1
I01
sg5
I2
sg6
g42
sa(dp179
g1
I01
sg5
I5
sg6
g46
sasg5
I3
sg6
S'groupby'
p180
sa(dp181
g1
I01
sg2
(lp182
(dp183
g1
I01
sg5
I5
sg6
g15
sa(dp184
g1
I01
sg5
I5
sg6
g7
sa(dp185
g1
I01
sg5
I2
sg6
g18
sa(dp186
g1
I01
sg5
I5
sg6
g20
sa(dp187
g1
I01
sg5
I5
sg6
g22
sa(dp188
g1
I01
sg5
I5
sg6
g24
sa(dp189
g1
I01
sg5
I5
sg6
g26
sa(dp190
g1
I01
sg5
I2
sg6
g28
sa(dp191
g1
I01
sg5
I2
sg6
g30
sa(dp192
g1
I01
sg5
I2
sg6
g32
sa(dp193
g1
I01
sg5
I5
sg6
g34
sa(dp194
g1
I01
sg5
I5
sg6
g36
sa(dp195
g1
I01
sg5
I2
sg6
g38
sa(dp196
g1
I01
sg5
I5
sg6
g40
sa(dp197
g1
I01
sg5
I2
sg6
g42
sa(dp198
g1
I01
sg5
I5
sg6
g46
sasg5
I3
sg6
S'ifilter'
p199
sa(dp200
g1
I01
sg2
(lp201
(dp202
g1
I01
sg5
I5
sg6
g15
sa(dp203
g1
I01
sg5
I5
sg6
g7
sa(dp204
g1
I01
sg5
I2
sg6
g18
sa(dp205
g1
I01
sg5
I5
sg6
g20
sa(dp206
g1
I01
sg5
I5
sg6
g22
sa(dp207
g1
I01
sg5
I5
sg6
g24
sa(dp208
g1
I01
sg5
I5
sg6
g26
sa(dp209
g1
I01
sg5
I2
sg6
g28
sa(dp210
g1
I01
sg5
I2
sg6
g30
sa(dp211
g1
I01
sg5
I2
sg6
g32
sa(dp212
g1
I01
sg5
I5
sg6
g34
sa(dp213
g1
I01
sg5
I5
sg6
g36
sa(dp214
g1
I01
sg5
I2
sg6
g38
sa(dp215
g1
I01
sg5
I5
sg6
g40
sa(dp216
g1
I01
sg5
I2
sg6
g42
sa(dp217
g1
I01
sg5
I5
sg6
g46
sasg5
I3
sg6
S'ifilterfalse'
p218
sa(dp219
g1
I01
sg2
(lp220
(dp221
g1
I01
sg5
I5
sg6
g15
sa(dp222
g1
I01
sg5
I5
sg6
g7
sa(dp223
g1
I01
sg5
I2
sg6
g18
sa(dp224
g1
I01
sg5
I5
sg6
g20
sa(dp225
g1
I01
sg5
I5
sg6
g22
sa(dp226
g1
I01
sg5
I5
sg6
g24
sa(dp227
g1
I01
sg5
I5
sg6
g26
sa(dp228
g1
I01
sg5
I2
sg6
g28
sa(dp229
g1
I01
sg5
I2
sg6
g30
sa(dp230
g1
I01
sg5
I2
sg6
g32
sa(dp231
g1
I01
sg5
I5
sg6
g34
sa(dp232
g1
I01
sg5
I5
sg6
g36
sa(dp233
g1
I01
sg5
I2
sg6
g38
sa(dp234
g1
I01
sg5
I5
sg6
g40
sa(dp235
g1
I01
sg5
I2
sg6
g42
sa(dp236
g1
I01
sg5
I5
sg6
g46
sasg5
I3
sg6
S'imap'
p237
sa(dp238
g1
I01
sg2
(lp239
(dp240
g1
I01
sg5
I5
sg6
g15
sa(dp241
g1
I01
sg5
I5
sg6
g7
sa(dp242
g1
I01
sg5
I2
sg6
g18
sa(dp243
g1
I01
sg5
I5
sg6
g20
sa(dp244
g1
I01
sg5
I5
sg6
g22
sa(dp245
g1
I01
sg5
I5
sg6
g24
sa(dp246
g1
I01
sg5
I5
sg6
g26
sa(dp247
g1
I01
sg5
I2
sg6
g28
sa(dp248
g1
I01
sg5
I2
sg6
g30
sa(dp249
g1
I01
sg5
I2
sg6
g32
sa(dp250
g1
I01
sg5
I5
sg6
g34
sa(dp251
g1
I01
sg5
I5
sg6
g36
sa(dp252
g1
I01
sg5
I2
sg6
g38
sa(dp253
g1
I01
sg5
I5
sg6
g40
sa(dp254
g1
I01
sg5
I2
sg6
g42
sa(dp255
g1
I01
sg5
I5
sg6
g46
sasg5
I3
sg6
S'islice'
p256
sa(dp257
g1
I01
sg2
(lp258
(dp259
g1
I01
sg5
I5
sg6
g15
sa(dp260
g1
I01
sg5
I5
sg6
g7
sa(dp261
g1
I01
sg5
I2
sg6
g18
sa(dp262
g1
I01
sg5
I5
sg6
g20
sa(dp263
g1
I01
sg5
I5
sg6
g22
sa(dp264
g1
I01
sg5
I5
sg6
g24
sa(dp265
g1
I01
sg5
I5
sg6
g26
sa(dp266
g1
I01
sg5
I2
sg6
g28
sa(dp267
g1
I01
sg5
I2
sg6
g30
sa(dp268
g1
I01
sg5
I2
sg6
g32
sa(dp269
g1
I01
sg5
I5
sg6
g34
sa(dp270
g1
I01
sg5
I5
sg6
g36
sa(dp271
g1
I01
sg5
I2
sg6
g38
sa(dp272
g1
I01
sg5
I5
sg6
g40
sa(dp273
g1
I01
sg5
I2
sg6
g42
sa(dp274
g1
I01
sg5
I5
sg6
g46
sasg5
I3
sg6
S'izip'
p275
sa(dp276
g1
I01
sg2
(lp277
(dp278
g1
I01
sg5
I5
sg6
g15
sa(dp279
g1
I01
sg5
I5
sg6
g7
sa(dp280
g1
I01
sg5
I2
sg6
g18
sa(dp281
g1
I01
sg5
I5
sg6
g20
sa(dp282
g1
I01
sg5
I5
sg6
g22
sa(dp283
g1
I01
sg5
I5
sg6
g24
sa(dp284
g1
I01
sg5
I5
sg6
g26
sa(dp285
g1
I01
sg5
I2
sg6
g28
sa(dp286
g1
I01
sg5
I2
sg6
g30
sa(dp287
g1
I01
sg5
I2
sg6
g32
sa(dp288
g1
I01
sg5
I5
sg6
g34
sa(dp289
g1
I01
sg5
I5
sg6
g36
sa(dp290
g1
I01
sg5
I2
sg6
g38
sa(dp291
g1
I01
sg5
I5
sg6
g40
sa(dp292
g1
I01
sg5
I2
sg6
g42
sa(dp293
g1
I01
sg5
I5
sg6
g46
sasg5
I3
sg6
S'izip_longest'
p294
sa(dp295
g1
I01
sg2
(lp296
(dp297
g1
I01
sg5
I5
sg6
g15
sa(dp298
g1
I01
sg5
I5
sg6
g7
sa(dp299
g1
I01
sg5
I2
sg6
g18
sa(dp300
g1
I01
sg5
I5
sg6
g20
sa(dp301
g1
I01
sg5
I5
sg6
g22
sa(dp302
g1
I01
sg5
I5
sg6
g24
sa(dp303
g1
I01
sg5
I5
sg6
g26
sa(dp304
g1
I01
sg5
I2
sg6
g28
sa(dp305
g1
I01
sg5
I2
sg6
g30
sa(dp306
g1
I01
sg5
I2
sg6
g32
sa(dp307
g1
I01
sg5
I5
sg6
g34
sa(dp308
g1
I01
sg5
I5
sg6
g36
sa(dp309
g1
I01
sg5
I2
sg6
g38
sa(dp310
g1
I01
sg5
I5
sg6
g40
sa(dp311
g1
I01
sg5
I2
sg6
g42
sa(dp312
g1
I01
sg5
I5
sg6
g46
sasg5
I3
sg6
S'permutations'
p313
sa(dp314
g1
I01
sg2
(lp315
(dp316
g1
I01
sg5
I5
sg6
g15
sa(dp317
g1
I01
sg5
I5
sg6
g7
sa(dp318
g1
I01
sg5
I2
sg6
g18
sa(dp319
g1
I01
sg5
I5
sg6
g20
sa(dp320
g1
I01
sg5
I5
sg6
g22
sa(dp321
g1
I01
sg5
I5
sg6
g24
sa(dp322
g1
I01
sg5
I5
sg6
g26
sa(dp323
g1
I01
sg5
I2
sg6
g28
sa(dp324
g1
I01
sg5
I2
sg6
g30
sa(dp325
g1
I01
sg5
I2
sg6
g32
sa(dp326
g1
I01
sg5
I5
sg6
g34
sa(dp327
g1
I01
sg5
I5
sg6
g36
sa(dp328
g1
I01
sg5
I2
sg6
g38
sa(dp329
g1
I01
sg5
I5
sg6
g40
sa(dp330
g1
I01
sg5
I2
sg6
g42
sa(dp331
g1
I01
sg5
I5
sg6
g46
sasg5
I3
sg6
S'product'
p332
sa(dp333
g1
I01
sg2
(lp334
(dp335
g1
I01
sg5
I5
sg6
g15
sa(dp336
g1
I01
sg5
I5
sg6
g7
sa(dp337
g1
I01
sg5
I2
sg6
g18
sa(dp338
g1
I01
sg5
I5
sg6
g20
sa(dp339
g1
I01
sg5
I5
sg6
g22
sa(dp340
g1
I01
sg5
I5
sg6
g24
sa(dp341
g1
I01
sg5
I5
sg6
g26
sa(dp342
g1
I01
sg5
I2
sg6
S'__length_hint__'
p343
sa(dp344
g1
I01
sg5
I2
sg6
g28
sa(dp345
g1
I01
sg5
I2
sg6
g30
sa(dp346
g1
I01
sg5
I2
sg6
g32
sa(dp347
g1
I01
sg5
I5
sg6
g34
sa(dp348
g1
I01
sg5
I5
sg6
g36
sa(dp349
g1
I01
sg5
I2
sg6
g38
sa(dp350
g1
I01
sg5
I5
sg6
g40
sa(dp351
g1
I01
sg5
I2
sg6
g42
sa(dp352
g1
I01
sg5
I5
sg6
g46
sasg5
I3
sg6
S'repeat'
p353
sa(dp354
g1
I01
sg2
(lp355
(dp356
g1
I01
sg5
I5
sg6
g15
sa(dp357
g1
I01
sg5
I5
sg6
g7
sa(dp358
g1
I01
sg5
I2
sg6
g18
sa(dp359
g1
I01
sg5
I5
sg6
g20
sa(dp360
g1
I01
sg5
I5
sg6
g22
sa(dp361
g1
I01
sg5
I5
sg6
g24
sa(dp362
g1
I01
sg5
I5
sg6
g26
sa(dp363
g1
I01
sg5
I2
sg6
g28
sa(dp364
g1
I01
sg5
I2
sg6
g30
sa(dp365
g1
I01
sg5
I2
sg6
g32
sa(dp366
g1
I01
sg5
I5
sg6
g34
sa(dp367
g1
I01
sg5
I5
sg6
g36
sa(dp368
g1
I01
sg5
I2
sg6
g38
sa(dp369
g1
I01
sg5
I5
sg6
g40
sa(dp370
g1
I01
sg5
I2
sg6
g42
sa(dp371
g1
I01
sg5
I5
sg6
g46
sasg5
I3
sg6
S'starmap'
p372
sa(dp373
g1
I01
sg2
(lp374
(dp375
g1
I01
sg5
I5
sg6
g15
sa(dp376
g1
I01
sg5
I5
sg6
g7
sa(dp377
g1
I01
sg5
I2
sg6
g18
sa(dp378
g1
I01
sg5
I5
sg6
g20
sa(dp379
g1
I01
sg5
I5
sg6
g22
sa(dp380
g1
I01
sg5
I5
sg6
g24
sa(dp381
g1
I01
sg5
I5
sg6
g26
sa(dp382
g1
I01
sg5
I2
sg6
g28
sa(dp383
g1
I01
sg5
I2
sg6
g30
sa(dp384
g1
I01
sg5
I2
sg6
g32
sa(dp385
g1
I01
sg5
I5
sg6
g34
sa(dp386
g1
I01
sg5
I5
sg6
g36
sa(dp387
g1
I01
sg5
I2
sg6
g38
sa(dp388
g1
I01
sg5
I5
sg6
g40
sa(dp389
g1
I01
sg5
I2
sg6
g42
sa(dp390
g1
I01
sg5
I5
sg6
g46
sasg5
I3
sg6
S'takewhile'
p391
sa(dp392
g1
I01
sg5
I2
sg6
S'tee'
p393
sasg6
S'itertools'
p394
s.