(dp0
S'is_builtin'
p1
I01
sS'childs'
p2
(lp3
(dp4
g1
I01
sS'type'
p5
I5
sS'name'
p6
S'__doc__'
p7
sa(dp8
g1
I01
sg5
I5
sg6
S'__name__'
p9
sa(dp10
g1
I01
sg5
I5
sg6
S'__package__'
p11
sa(dp12
g1
I01
sg5
I2
sg6
S'acos'
p13
sa(dp14
g1
I01
sg5
I2
sg6
S'acosh'
p15
sa(dp16
g1
I01
sg5
I2
sg6
S'asin'
p17
sa(dp18
g1
I01
sg5
I2
sg6
S'asinh'
p19
sa(dp20
g1
I01
sg5
I2
sg6
S'atan'
p21
sa(dp22
g1
I01
sg5
I2
sg6
S'atan2'
p23
sa(dp24
g1
I01
sg5
I2
sg6
S'atanh'
p25
sa(dp26
g1
I01
sg5
I2
sg6
S'ceil'
p27
sa(dp28
g1
I01
sg5
I2
sg6
S'copysign'
p29
sa(dp30
g1
I01
sg5
I2
sg6
S'cos'
p31
sa(dp32
g1
I01
sg5
I2
sg6
S'cosh'
p33
sa(dp34
g1
I01
sg5
I2
sg6
S'degrees'
p35
sa(dp36
g1
I01
sg5
I5
sg6
S'e'
p37
sa(dp38
g1
I01
sg5
I2
sg6
S'erf'
p39
sa(dp40
g1
I01
sg5
I2
sg6
S'erfc'
p41
sa(dp42
g1
I01
sg5
I2
sg6
S'exp'
p43
sa(dp44
g1
I01
sg5
I2
sg6
S'expm1'
p45
sa(dp46
g1
I01
sg5
I2
sg6
S'fabs'
p47
sa(dp48
g1
I01
sg5
I2
sg6
S'factorial'
p49
sa(dp50
g1
I01
sg5
I2
sg6
S'floor'
p51
sa(dp52
g1
I01
sg5
I2
sg6
S'fmod'
p53
sa(dp54
g1
I01
sg5
I2
sg6
S'frexp'
p55
sa(dp56
g1
I01
sg5
I2
sg6
S'fsum'
p57
sa(dp58
g1
I01
sg5
I2
sg6
S'gamma'
p59
sa(dp60
g1
I01
sg5
I2
sg6
S'hypot'
p61
sa(dp62
g1
I01
sg5
I2
sg6
S'isinf'
p63
sa(dp64
g1
I01
sg5
I2
sg6
S'isnan'
p65
sa(dp66
g1
I01
sg5
I2
sg6
S'ldexp'
p67
sa(dp68
g1
I01
sg5
I2
sg6
S'lgamma'
p69
sa(dp70
g1
I01
sg5
I2
sg6
S'log'
p71
sa(dp72
g1
I01
sg5
I2
sg6
S'log10'
p73
sa(dp74
g1
I01
sg5
I2
sg6
S'log1p'
p75
sa(dp76
g1
I01
sg5
I2
sg6
S'modf'
p77
sa(dp78
g1
I01
sg5
I5
sg6
S'pi'
p79
sa(dp80
g1
I01
sg5
I2
sg6
S'pow'
p81
sa(dp82
g1
I01
sg5
I2
sg6
S'radians'
p83
sa(dp84
g1
I01
sg5
I2
sg6
S'sin'
p85
sa(dp86
g1
I01
sg5
I2
sg6
S'sinh'
p87
sa(dp88
g1
I01
sg5
I2
sg6
S'sqrt'
p89
sa(dp90
g1
I01
sg5
I2
sg6
S'tan'
p91
sa(dp92
g1
I01
sg5
I2
sg6
S'tanh'
p93
sa(dp94
g1
I01
sg5
I2
sg6
S'trunc'
p95
sasg6
S'math'
p96
s.