(dp0
S'is_builtin'
p1
I01
sS'childs'
p2
(lp3
(dp4
g1
I01
sS'type'
p5
I2
sS'name'
p6
S'__abs__'
p7
sa(dp8
g1
I01
sg5
I2
sg6
S'__add__'
p9
sa(dp10
g1
I01
sg5
I2
sg6
S'__and__'
p11
sa(dp12
g1
I01
sg5
I2
sg6
S'__concat__'
p13
sa(dp14
g1
I01
sg5
I2
sg6
S'__contains__'
p15
sa(dp16
g1
I01
sg5
I2
sg6
S'__delitem__'
p17
sa(dp18
g1
I01
sg5
I2
sg6
S'__delslice__'
p19
sa(dp20
g1
I01
sg5
I2
sg6
S'__div__'
p21
sa(dp22
g1
I01
sg5
I5
sg6
S'__doc__'
p23
sa(dp24
g1
I01
sg5
I2
sg6
S'__eq__'
p25
sa(dp26
g1
I01
sg5
I2
sg6
S'__floordiv__'
p27
sa(dp28
g1
I01
sg5
I2
sg6
S'__ge__'
p29
sa(dp30
g1
I01
sg5
I2
sg6
S'__getitem__'
p31
sa(dp32
g1
I01
sg5
I2
sg6
S'__getslice__'
p33
sa(dp34
g1
I01
sg5
I2
sg6
S'__gt__'
p35
sa(dp36
g1
I01
sg5
I2
sg6
S'__iadd__'
p37
sa(dp38
g1
I01
sg5
I2
sg6
S'__iand__'
p39
sa(dp40
g1
I01
sg5
I2
sg6
S'__iconcat__'
p41
sa(dp42
g1
I01
sg5
I2
sg6
S'__idiv__'
p43
sa(dp44
g1
I01
sg5
I2
sg6
S'__ifloordiv__'
p45
sa(dp46
g1
I01
sg5
I2
sg6
S'__ilshift__'
p47
sa(dp48
g1
I01
sg5
I2
sg6
S'__imod__'
p49
sa(dp50
g1
I01
sg5
I2
sg6
S'__imul__'
p51
sa(dp52
g1
I01
sg5
I2
sg6
S'__index__'
p53
sa(dp54
g1
I01
sg5
I2
sg6
S'__inv__'
p55
sa(dp56
g1
I01
sg5
I2
sg6
S'__invert__'
p57
sa(dp58
g1
I01
sg5
I2
sg6
S'__ior__'
p59
sa(dp60
g1
I01
sg5
I2
sg6
S'__ipow__'
p61
sa(dp62
g1
I01
sg5
I2
sg6
S'__irepeat__'
p63
sa(dp64
g1
I01
sg5
I2
sg6
S'__irshift__'
p65
sa(dp66
g1
I01
sg5
I2
sg6
S'__isub__'
p67
sa(dp68
g1
I01
sg5
I2
sg6
S'__itruediv__'
p69
sa(dp70
g1
I01
sg5
I2
sg6
S'__ixor__'
p71
sa(dp72
g1
I01
sg5
I2
sg6
S'__le__'
p73
sa(dp74
g1
I01
sg5
I2
sg6
S'__lshift__'
p75
sa(dp76
g1
I01
sg5
I2
sg6
S'__lt__'
p77
sa(dp78
g1
I01
sg5
I2
sg6
S'__mod__'
p79
sa(dp80
g1
I01
sg5
I2
sg6
S'__mul__'
p81
sa(dp82
g1
I01
sg5
I5
sg6
S'__name__'
p83
sa(dp84
g1
I01
sg5
I2
sg6
S'__ne__'
p85
sa(dp86
g1
I01
sg5
I2
sg6
S'__neg__'
p87
sa(dp88
g1
I01
sg5
I2
sg6
S'__not__'
p89
sa(dp90
g1
I01
sg5
I2
sg6
S'__or__'
p91
sa(dp92
g1
I01
sg5
I5
sg6
S'__package__'
p93
sa(dp94
g1
I01
sg5
I2
sg6
S'__pos__'
p95
sa(dp96
g1
I01
sg5
I2
sg6
S'__pow__'
p97
sa(dp98
g1
I01
sg5
I2
sg6
S'__repeat__'
p99
sa(dp100
g1
I01
sg5
I2
sg6
S'__rshift__'
p101
sa(dp102
g1
I01
sg5
I2
sg6
S'__setitem__'
p103
sa(dp104
g1
I01
sg5
I2
sg6
S'__setslice__'
p105
sa(dp106
g1
I01
sg5
I2
sg6
S'__sub__'
p107
sa(dp108
g1
I01
sg5
I2
sg6
S'__truediv__'
p109
sa(dp110
g1
I01
sg5
I2
sg6
S'__xor__'
p111
sa(dp112
g1
I01
sg5
I2
sg6
S'_compare_digest'
p113
sa(dp114
g1
I01
sg5
I2
sg6
S'abs'
p115
sa(dp116
g1
I01
sg5
I2
sg6
S'add'
p117
sa(dp118
g1
I01
sg5
I2
sg6
S'and_'
p119
sa(dp120
g1
I01
sg2
(lp121
(dp122
g1
I01
sg5
I5
sg6
S'__call__'
p123
sa(dp124
g1
I01
sg5
I5
sg6
S'__delattr__'
p125
sa(dp126
g1
I01
sg5
I5
sg6
g23
sa(dp127
g1
I01
sg5
I2
sg6
S'__format__'
p128
sa(dp129
g1
I01
sg5
I5
sg6
S'__getattribute__'
p130
sa(dp131
g1
I01
sg5
I5
sg6
S'__hash__'
p132
sa(dp133
g1
I01
sg5
I5
sg6
S'__init__'
p134
sa(dp135
g1
I01
sg5
I2
sg6
S'__new__'
p136
sa(dp137
g1
I01
sg5
I2
sg6
S'__reduce__'
p138
sa(dp139
g1
I01
sg5
I2
sg6
S'__reduce_ex__'
p140
sa(dp141
g1
I01
sg5
I5
sg6
S'__repr__'
p142
sa(dp143
g1
I01
sg5
I5
sg6
S'__setattr__'
p144
sa(dp145
g1
I01
sg5
I2
sg6
S'__sizeof__'
p146
sa(dp147
g1
I01
sg5
I5
sg6
S'__str__'
p148
sa(dp149
g1
I01
sg5
I2
sg6
S'__subclasshook__'
p150
sasg5
I3
sg6
S'attrgetter'
p151
sa(dp152
g1
I01
sg5
I2
sg6
S'concat'
p153
sa(dp154
g1
I01
sg5
I2
sg6
S'contains'
p155
sa(dp156
g1
I01
sg5
I2
sg6
S'countOf'
p157
sa(dp158
g1
I01
sg5
I2
sg6
S'delitem'
p159
sa(dp160
g1
I01
sg5
I2
sg6
S'delslice'
p161
sa(dp162
g1
I01
sg5
I2
sg6
S'div'
p163
sa(dp164
g1
I01
sg5
I2
sg6
S'eq'
p165
sa(dp166
g1
I01
sg5
I2
sg6
S'floordiv'
p167
sa(dp168
g1
I01
sg5
I2
sg6
S'ge'
p169
sa(dp170
g1
I01
sg5
I2
sg6
S'getitem'
p171
sa(dp172
g1
I01
sg5
I2
sg6
S'getslice'
p173
sa(dp174
g1
I01
sg5
I2
sg6
S'gt'
p175
sa(dp176
g1
I01
sg5
I2
sg6
S'iadd'
p177
sa(dp178
g1
I01
sg5
I2
sg6
S'iand'
p179
sa(dp180
g1
I01
sg5
I2
sg6
S'iconcat'
p181
sa(dp182
g1
I01
sg5
I2
sg6
S'idiv'
p183
sa(dp184
g1
I01
sg5
I2
sg6
S'ifloordiv'
p185
sa(dp186
g1
I01
sg5
I2
sg6
S'ilshift'
p187
sa(dp188
g1
I01
sg5
I2
sg6
S'imod'
p189
sa(dp190
g1
I01
sg5
I2
sg6
S'imul'
p191
sa(dp192
g1
I01
sg5
I2
sg6
S'index'
p193
sa(dp194
g1
I01
sg5
I2
sg6
S'indexOf'
p195
sa(dp196
g1
I01
sg5
I2
sg6
S'inv'
p197
sa(dp198
g1
I01
sg5
I2
sg6
S'invert'
p199
sa(dp200
g1
I01
sg5
I2
sg6
S'ior'
p201
sa(dp202
g1
I01
sg5
I2
sg6
S'ipow'
p203
sa(dp204
g1
I01
sg5
I2
sg6
S'irepeat'
p205
sa(dp206
g1
I01
sg5
I2
sg6
S'irshift'
p207
sa(dp208
g1
I01
sg5
I2
sg6
S'isCallable'
p209
sa(dp210
g1
I01
sg5
I2
sg6
S'isMappingType'
p211
sa(dp212
g1
I01
sg5
I2
sg6
S'isNumberType'
p213
sa(dp214
g1
I01
sg5
I2
sg6
S'isSequenceType'
p215
sa(dp216
g1
I01
sg5
I2
sg6
S'is_'
p217
sa(dp218
g1
I01
sg5
I2
sg6
S'is_not'
p219
sa(dp220
g1
I01
sg5
I2
sg6
S'isub'
p221
sa(dp222
g1
I01
sg2
(lp223
(dp224
g1
I01
sg5
I5
sg6
g123
sa(dp225
g1
I01
sg5
I5
sg6
g125
sa(dp226
g1
I01
sg5
I5
sg6
g23
sa(dp227
g1
I01
sg5
I2
sg6
g128
sa(dp228
g1
I01
sg5
I5
sg6
g130
sa(dp229
g1
I01
sg5
I5
sg6
g132
sa(dp230
g1
I01
sg5
I5
sg6
g134
sa(dp231
g1
I01
sg5
I2
sg6
g136
sa(dp232
g1
I01
sg5
I2
sg6
g138
sa(dp233
g1
I01
sg5
I2
sg6
g140
sa(dp234
g1
I01
sg5
I5
sg6
g142
sa(dp235
g1
I01
sg5
I5
sg6
g144
sa(dp236
g1
I01
sg5
I2
sg6
g146
sa(dp237
g1
I01
sg5
I5
sg6
g148
sa(dp238
g1
I01
sg5
I2
sg6
g150
sasg5
I3
sg6
S'itemgetter'
p239
sa(dp240
g1
I01
sg5
I2
sg6
S'itruediv'
p241
sa(dp242
g1
I01
sg5
I2
sg6
S'ixor'
p243
sa(dp244
g1
I01
sg5
I2
sg6
S'le'
p245
sa(dp246
g1
I01
sg5
I2
sg6
S'lshift'
p247
sa(dp248
g1
I01
sg5
I2
sg6
S'lt'
p249
sa(dp250
g1
I01
sg2
(lp251
(dp252
g1
I01
sg5
I5
sg6
g123
sa(dp253
g1
I01
sg5
I5
sg6
g125
sa(dp254
g1
I01
sg5
I5
sg6
g23
sa(dp255
g1
I01
sg5
I2
sg6
g128
sa(dp256
g1
I01
sg5
I5
sg6
g130
sa(dp257
g1
I01
sg5
I5
sg6
g132
sa(dp258
g1
I01
sg5
I5
sg6
g134
sa(dp259
g1
I01
sg5
I2
sg6
g136
sa(dp260
g1
I01
sg5
I2
sg6
g138
sa(dp261
g1
I01
sg5
I2
sg6
g140
sa(dp262
g1
I01
sg5
I5
sg6
g142
sa(dp263
g1
I01
sg5
I5
sg6
g144
sa(dp264
g1
I01
sg5
I2
sg6
g146
sa(dp265
g1
I01
sg5
I5
sg6
g148
sa(dp266
g1
I01
sg5
I2
sg6
g150
sasg5
I3
sg6
S'methodcaller'
p267
sa(dp268
g1
I01
sg5
I2
sg6
S'mod'
p269
sa(dp270
g1
I01
sg5
I2
sg6
S'mul'
p271
sa(dp272
g1
I01
sg5
I2
sg6
S'ne'
p273
sa(dp274
g1
I01
sg5
I2
sg6
S'neg'
p275
sa(dp276
g1
I01
sg5
I2
sg6
S'not_'
p277
sa(dp278
g1
I01
sg5
I2
sg6
S'or_'
p279
sa(dp280
g1
I01
sg5
I2
sg6
S'pos'
p281
sa(dp282
g1
I01
sg5
I2
sg6
S'pow'
p283
sa(dp284
g1
I01
sg5
I2
sg6
S'repeat'
p285
sa(dp286
g1
I01
sg5
I2
sg6
S'rshift'
p287
sa(dp288
g1
I01
sg5
I2
sg6
S'sequenceIncludes'
p289
sa(dp290
g1
I01
sg5
I2
sg6
S'setitem'
p291
sa(dp292
g1
I01
sg5
I2
sg6
S'setslice'
p293
sa(dp294
g1
I01
sg5
I2
sg6
S'sub'
p295
sa(dp296
g1
I01
sg5
I2
sg6
S'truediv'
p297
sa(dp298
g1
I01
sg5
I2
sg6
S'truth'
p299
sa(dp300
g1
I01
sg5
I2
sg6
S'xor'
p301
sasg6
S'operator'
p302
s.