(dp0
S'is_builtin'
p1
I01
sS'childs'
p2
(lp3
(dp4
g1
I01
sS'type'
p5
I5
sS'name'
p6
S'EX_CANTCREAT'
p7
sa(dp8
g1
I01
sg5
I5
sg6
S'EX_CONFIG'
p9
sa(dp10
g1
I01
sg5
I5
sg6
S'EX_DATAERR'
p11
sa(dp12
g1
I01
sg5
I5
sg6
S'EX_IOERR'
p13
sa(dp14
g1
I01
sg5
I5
sg6
S'EX_NOHOST'
p15
sa(dp16
g1
I01
sg5
I5
sg6
S'EX_NOINPUT'
p17
sa(dp18
g1
I01
sg5
I5
sg6
S'EX_NOPERM'
p19
sa(dp20
g1
I01
sg5
I5
sg6
S'EX_NOUSER'
p21
sa(dp22
g1
I01
sg5
I5
sg6
S'EX_OK'
p23
sa(dp24
g1
I01
sg5
I5
sg6
S'EX_OSERR'
p25
sa(dp26
g1
I01
sg5
I5
sg6
S'EX_OSFILE'
p27
sa(dp28
g1
I01
sg5
I5
sg6
S'EX_PROTOCOL'
p29
sa(dp30
g1
I01
sg5
I5
sg6
S'EX_SOFTWARE'
p31
sa(dp32
g1
I01
sg5
I5
sg6
S'EX_TEMPFAIL'
p33
sa(dp34
g1
I01
sg5
I5
sg6
S'EX_UNAVAILABLE'
p35
sa(dp36
g1
I01
sg5
I5
sg6
S'EX_USAGE'
p37
sa(dp38
g1
I01
sg5
I5
sg6
S'F_OK'
p39
sa(dp40
g1
I01
sg5
I5
sg6
S'NGROUPS_MAX'
p41
sa(dp42
g1
I01
sg5
I5
sg6
S'O_APPEND'
p43
sa(dp44
g1
I01
sg5
I5
sg6
S'O_ASYNC'
p45
sa(dp46
g1
I01
sg5
I5
sg6
S'O_CREAT'
p47
sa(dp48
g1
I01
sg5
I5
sg6
S'O_DIRECT'
p49
sa(dp50
g1
I01
sg5
I5
sg6
S'O_DIRECTORY'
p51
sa(dp52
g1
I01
sg5
I5
sg6
S'O_DSYNC'
p53
sa(dp54
g1
I01
sg5
I5
sg6
S'O_EXCL'
p55
sa(dp56
g1
I01
sg5
I5
sg6
S'O_LARGEFILE'
p57
sa(dp58
g1
I01
sg5
I5
sg6
S'O_NDELAY'
p59
sa(dp60
g1
I01
sg5
I5
sg6
S'O_NOATIME'
p61
sa(dp62
g1
I01
sg5
I5
sg6
S'O_NOCTTY'
p63
sa(dp64
g1
I01
sg5
I5
sg6
S'O_NOFOLLOW'
p65
sa(dp66
g1
I01
sg5
I5
sg6
S'O_NONBLOCK'
p67
sa(dp68
g1
I01
sg5
I5
sg6
S'O_RDONLY'
p69
sa(dp70
g1
I01
sg5
I5
sg6
S'O_RDWR'
p71
sa(dp72
g1
I01
sg5
I5
sg6
S'O_RSYNC'
p73
sa(dp74
g1
I01
sg5
I5
sg6
S'O_SYNC'
p75
sa(dp76
g1
I01
sg5
I5
sg6
S'O_TRUNC'
p77
sa(dp78
g1
I01
sg5
I5
sg6
S'O_WRONLY'
p79
sa(dp80
g1
I01
sg5
I5
sg6
S'R_OK'
p81
sa(dp82
g1
I01
sg5
I5
sg6
S'ST_APPEND'
p83
sa(dp84
g1
I01
sg5
I5
sg6
S'ST_MANDLOCK'
p85
sa(dp86
g1
I01
sg5
I5
sg6
S'ST_NOATIME'
p87
sa(dp88
g1
I01
sg5
I5
sg6
S'ST_NODEV'
p89
sa(dp90
g1
I01
sg5
I5
sg6
S'ST_NODIRATIME'
p91
sa(dp92
g1
I01
sg5
I5
sg6
S'ST_NOEXEC'
p93
sa(dp94
g1
I01
sg5
I5
sg6
S'ST_NOSUID'
p95
sa(dp96
g1
I01
sg5
I5
sg6
S'ST_RDONLY'
p97
sa(dp98
g1
I01
sg5
I5
sg6
S'ST_RELATIME'
p99
sa(dp100
g1
I01
sg5
I5
sg6
S'ST_SYNCHRONOUS'
p101
sa(dp102
g1
I01
sg5
I5
sg6
S'ST_WRITE'
p103
sa(dp104
g1
I01
sg5
I5
sg6
S'TMP_MAX'
p105
sa(dp106
g1
I01
sg5
I5
sg6
S'WCONTINUED'
p107
sa(dp108
g1
I01
sg5
I2
sg6
S'WCOREDUMP'
p109
sa(dp110
g1
I01
sg5
I2
sg6
S'WEXITSTATUS'
p111
sa(dp112
g1
I01
sg5
I2
sg6
S'WIFCONTINUED'
p113
sa(dp114
g1
I01
sg5
I2
sg6
S'WIFEXITED'
p115
sa(dp116
g1
I01
sg5
I2
sg6
S'WIFSIGNALED'
p117
sa(dp118
g1
I01
sg5
I2
sg6
S'WIFSTOPPED'
p119
sa(dp120
g1
I01
sg5
I5
sg6
S'WNOHANG'
p121
sa(dp122
g1
I01
sg5
I2
sg6
S'WSTOPSIG'
p123
sa(dp124
g1
I01
sg5
I2
sg6
S'WTERMSIG'
p125
sa(dp126
g1
I01
sg5
I5
sg6
S'WUNTRACED'
p127
sa(dp128
g1
I01
sg5
I5
sg6
S'W_OK'
p129
sa(dp130
g1
I01
sg5
I5
sg6
S'X_OK'
p131
sa(dp132
g1
I01
sg5
I5
sg6
S'__doc__'
p133
sa(dp134
g1
I01
sg5
I5
sg6
S'__name__'
p135
sa(dp136
g1
I01
sg5
I5
sg6
S'__package__'
p137
sa(dp138
g1
I01
sg5
I2
sg6
S'_exit'
p139
sa(dp140
g1
I01
sg5
I2
sg6
S'abort'
p141
sa(dp142
g1
I01
sg5
I2
sg6
S'access'
p143
sa(dp144
g1
I01
sg5
I2
sg6
S'chdir'
p145
sa(dp146
g1
I01
sg5
I2
sg6
S'chmod'
p147
sa(dp148
g1
I01
sg5
I2
sg6
S'chown'
p149
sa(dp150
g1
I01
sg5
I2
sg6
S'chroot'
p151
sa(dp152
g1
I01
sg5
I2
sg6
S'close'
p153
sa(dp154
g1
I01
sg5
I2
sg6
S'closerange'
p155
sa(dp156
g1
I01
sg5
I2
sg6
S'confstr'
p157
sa(dp158
g1
I01
sg5
I5
sg6
S'confstr_names'
p159
sa(dp160
g1
I01
sg5
I2
sg6
S'ctermid'
p161
sa(dp162
g1
I01
sg5
I2
sg6
S'dup'
p163
sa(dp164
g1
I01
sg5
I2
sg6
S'dup2'
p165
sa(dp166
g1
I01
sg5
I5
sg6
S'environ'
p167
sa(dp168
g1
I01
sg2
(lp169
(dp170
g1
I01
sg5
I5
sg6
S'__delattr__'
p171
sa(dp172
g1
I01
sg5
I5
sg6
S'__dict__'
p173
sa(dp174
g1
I01
sg5
I5
sg6
g133
sa(dp175
g1
I01
sg5
I2
sg6
S'__format__'
p176
sa(dp177
g1
I01
sg5
I5
sg6
S'__getattribute__'
p178
sa(dp179
g1
I01
sg5
I5
sg6
S'__getitem__'
p180
sa(dp181
g1
I01
sg5
I5
sg6
S'__getslice__'
p182
sa(dp183
g1
I01
sg5
I5
sg6
S'__hash__'
p184
sa(dp185
g1
I01
sg5
I5
sg6
S'__init__'
p186
sa(dp187
g1
I01
sg5
I2
sg6
S'__new__'
p188
sa(dp189
g1
I01
sg5
I2
sg6
S'__reduce__'
p190
sa(dp191
g1
I01
sg5
I2
sg6
S'__reduce_ex__'
p192
sa(dp193
g1
I01
sg5
I5
sg6
S'__repr__'
p194
sa(dp195
g1
I01
sg5
I5
sg6
S'__setattr__'
p196
sa(dp197
g1
I01
sg5
I2
sg6
S'__setstate__'
p198
sa(dp199
g1
I01
sg5
I2
sg6
S'__sizeof__'
p200
sa(dp201
g1
I01
sg5
I5
sg6
S'__str__'
p202
sa(dp203
g1
I01
sg5
I2
sg6
S'__subclasshook__'
p204
sa(dp205
g1
I01
sg5
I2
sg6
S'__unicode__'
p206
sa(dp207
g1
I01
sg5
I5
sg6
S'args'
p208
sa(dp209
g1
I01
sg5
I5
sg6
S'errno'
p210
sa(dp211
g1
I01
sg5
I5
sg6
S'filename'
p212
sa(dp213
g1
I01
sg5
I5
sg6
S'message'
p214
sa(dp215
g1
I01
sg5
I5
sg6
S'strerror'
p216
sasg5
I3
sg6
S'error'
p217
sa(dp218
g1
I01
sg5
I2
sg6
S'execv'
p219
sa(dp220
g1
I01
sg5
I2
sg6
S'execve'
p221
sa(dp222
g1
I01
sg5
I2
sg6
S'fchdir'
p223
sa(dp224
g1
I01
sg5
I2
sg6
S'fchmod'
p225
sa(dp226
g1
I01
sg5
I2
sg6
S'fchown'
p227
sa(dp228
g1
I01
sg5
I2
sg6
S'fdatasync'
p229
sa(dp230
g1
I01
sg5
I2
sg6
S'fdopen'
p231
sa(dp232
g1
I01
sg5
I2
sg6
S'fork'
p233
sa(dp234
g1
I01
sg5
I2
sg6
S'forkpty'
p235
sa(dp236
g1
I01
sg5
I2
sg6
S'fpathconf'
p237
sa(dp238
g1
I01
sg5
I2
sg6
S'fstat'
p239
sa(dp240
g1
I01
sg5
I2
sg6
S'fstatvfs'
p241
sa(dp242
g1
I01
sg5
I2
sg6
S'fsync'
p243
sa(dp244
g1
I01
sg5
I2
sg6
S'ftruncate'
p245
sa(dp246
g1
I01
sg5
I2
sg6
S'getcwd'
p247
sa(dp248
g1
I01
sg5
I2
sg6
S'getcwdu'
p249
sa(dp250
g1
I01
sg5
I2
sg6
S'getegid'
p251
sa(dp252
g1
I01
sg5
I2
sg6
S'geteuid'
p253
sa(dp254
g1
I01
sg5
I2
sg6
S'getgid'
p255
sa(dp256
g1
I01
sg5
I2
sg6
S'getgroups'
p257
sa(dp258
g1
I01
sg5
I2
sg6
S'getloadavg'
p259
sa(dp260
g1
I01
sg5
I2
sg6
S'getlogin'
p261
sa(dp262
g1
I01
sg5
I2
sg6
S'getpgid'
p263
sa(dp264
g1
I01
sg5
I2
sg6
S'getpgrp'
p265
sa(dp266
g1
I01
sg5
I2
sg6
S'getpid'
p267
sa(dp268
g1
I01
sg5
I2
sg6
S'getppid'
p269
sa(dp270
g1
I01
sg5
I2
sg6
S'getresgid'
p271
sa(dp272
g1
I01
sg5
I2
sg6
S'getresuid'
p273
sa(dp274
g1
I01
sg5
I2
sg6
S'getsid'
p275
sa(dp276
g1
I01
sg5
I2
sg6
S'getuid'
p277
sa(dp278
g1
I01
sg5
I2
sg6
S'initgroups'
p279
sa(dp280
g1
I01
sg5
I2
sg6
S'isatty'
p281
sa(dp282
g1
I01
sg5
I2
sg6
S'kill'
p283
sa(dp284
g1
I01
sg5
I2
sg6
S'killpg'
p285
sa(dp286
g1
I01
sg5
I2
sg6
S'lchown'
p287
sa(dp288
g1
I01
sg5
I2
sg6
S'link'
p289
sa(dp290
g1
I01
sg5
I2
sg6
S'listdir'
p291
sa(dp292
g1
I01
sg5
I2
sg6
S'lseek'
p293
sa(dp294
g1
I01
sg5
I2
sg6
S'lstat'
p295
sa(dp296
g1
I01
sg5
I2
sg6
S'major'
p297
sa(dp298
g1
I01
sg5
I2
sg6
S'makedev'
p299
sa(dp300
g1
I01
sg5
I2
sg6
S'minor'
p301
sa(dp302
g1
I01
sg5
I2
sg6
S'mkdir'
p303
sa(dp304
g1
I01
sg5
I2
sg6
S'mkfifo'
p305
sa(dp306
g1
I01
sg5
I2
sg6
S'mknod'
p307
sa(dp308
g1
I01
sg5
I2
sg6
S'nice'
p309
sa(dp310
g1
I01
sg5
I2
sg6
S'open'
p311
sa(dp312
g1
I01
sg5
I2
sg6
S'openpty'
p313
sa(dp314
g1
I01
sg5
I2
sg6
S'pathconf'
p315
sa(dp316
g1
I01
sg5
I5
sg6
S'pathconf_names'
p317
sa(dp318
g1
I01
sg5
I2
sg6
S'pipe'
p319
sa(dp320
g1
I01
sg5
I2
sg6
S'popen'
p321
sa(dp322
g1
I01
sg5
I2
sg6
S'putenv'
p323
sa(dp324
g1
I01
sg5
I2
sg6
S'read'
p325
sa(dp326
g1
I01
sg5
I2
sg6
S'readlink'
p327
sa(dp328
g1
I01
sg5
I2
sg6
S'remove'
p329
sa(dp330
g1
I01
sg5
I2
sg6
S'rename'
p331
sa(dp332
g1
I01
sg5
I2
sg6
S'rmdir'
p333
sa(dp334
g1
I01
sg5
I2
sg6
S'setegid'
p335
sa(dp336
g1
I01
sg5
I2
sg6
S'seteuid'
p337
sa(dp338
g1
I01
sg5
I2
sg6
S'setgid'
p339
sa(dp340
g1
I01
sg5
I2
sg6
S'setgroups'
p341
sa(dp342
g1
I01
sg5
I2
sg6
S'setpgid'
p343
sa(dp344
g1
I01
sg5
I2
sg6
S'setpgrp'
p345
sa(dp346
g1
I01
sg5
I2
sg6
S'setregid'
p347
sa(dp348
g1
I01
sg5
I2
sg6
S'setresgid'
p349
sa(dp350
g1
I01
sg5
I2
sg6
S'setresuid'
p351
sa(dp352
g1
I01
sg5
I2
sg6
S'setreuid'
p353
sa(dp354
g1
I01
sg5
I2
sg6
S'setsid'
p355
sa(dp356
g1
I01
sg5
I2
sg6
S'setuid'
p357
sa(dp358
g1
I01
sg5
I2
sg6
S'stat'
p359
sa(dp360
g1
I01
sg5
I2
sg6
S'stat_float_times'
p361
sa(dp362
g1
I01
sg2
(lp363
(dp364
g1
I01
sg5
I5
sg6
S'__add__'
p365
sa(dp366
g1
I01
sg5
I5
sg6
S'__contains__'
p367
sa(dp368
g1
I01
sg5
I5
sg6
g171
sa(dp369
g1
I01
sg5
I5
sg6
g133
sa(dp370
g1
I01
sg5
I5
sg6
S'__eq__'
p371
sa(dp372
g1
I01
sg5
I2
sg6
g176
sa(dp373
g1
I01
sg5
I5
sg6
S'__ge__'
p374
sa(dp375
g1
I01
sg5
I5
sg6
g178
sa(dp376
g1
I01
sg5
I5
sg6
g180
sa(dp377
g1
I01
sg5
I5
sg6
g182
sa(dp378
g1
I01
sg5
I5
sg6
S'__gt__'
p379
sa(dp380
g1
I01
sg5
I5
sg6
g184
sa(dp381
g1
I01
sg5
I5
sg6
g186
sa(dp382
g1
I01
sg5
I5
sg6
S'__le__'
p383
sa(dp384
g1
I01
sg5
I5
sg6
S'__len__'
p385
sa(dp386
g1
I01
sg5
I5
sg6
S'__lt__'
p387
sa(dp388
g1
I01
sg5
I5
sg6
S'__mul__'
p389
sa(dp390
g1
I01
sg5
I5
sg6
S'__ne__'
p391
sa(dp392
g1
I01
sg5
I2
sg6
g188
sa(dp393
g1
I01
sg5
I2
sg6
g190
sa(dp394
g1
I01
sg5
I2
sg6
g192
sa(dp395
g1
I01
sg5
I5
sg6
g194
sa(dp396
g1
I01
sg5
I5
sg6
S'__rmul__'
p397
sa(dp398
g1
I01
sg5
I5
sg6
g196
sa(dp399
g1
I01
sg5
I2
sg6
g200
sa(dp400
g1
I01
sg5
I5
sg6
g202
sa(dp401
g1
I01
sg5
I2
sg6
g204
sa(dp402
g1
I01
sg5
I5
sg6
S'n_fields'
p403
sa(dp404
g1
I01
sg5
I5
sg6
S'n_sequence_fields'
p405
sa(dp406
g1
I01
sg5
I5
sg6
S'n_unnamed_fields'
p407
sa(dp408
g1
I01
sg5
I5
sg6
S'st_atime'
p409
sa(dp410
g1
I01
sg5
I5
sg6
S'st_blksize'
p411
sa(dp412
g1
I01
sg5
I5
sg6
S'st_blocks'
p413
sa(dp414
g1
I01
sg5
I5
sg6
S'st_ctime'
p415
sa(dp416
g1
I01
sg5
I5
sg6
S'st_dev'
p417
sa(dp418
g1
I01
sg5
I5
sg6
S'st_gid'
p419
sa(dp420
g1
I01
sg5
I5
sg6
S'st_ino'
p421
sa(dp422
g1
I01
sg5
I5
sg6
S'st_mode'
p423
sa(dp424
g1
I01
sg5
I5
sg6
S'st_mtime'
p425
sa(dp426
g1
I01
sg5
I5
sg6
S'st_nlink'
p427
sa(dp428
g1
I01
sg5
I5
sg6
S'st_rdev'
p429
sa(dp430
g1
I01
sg5
I5
sg6
S'st_size'
p431
sa(dp432
g1
I01
sg5
I5
sg6
S'st_uid'
p433
sasg5
I3
sg6
S'stat_result'
p434
sa(dp435
g1
I01
sg5
I2
sg6
S'statvfs'
p436
sa(dp437
g1
I01
sg2
(lp438
(dp439
g1
I01
sg5
I5
sg6
g365
sa(dp440
g1
I01
sg5
I5
sg6
g367
sa(dp441
g1
I01
sg5
I5
sg6
g171
sa(dp442
g1
I01
sg5
I5
sg6
g133
sa(dp443
g1
I01
sg5
I5
sg6
g371
sa(dp444
g1
I01
sg5
I2
sg6
g176
sa(dp445
g1
I01
sg5
I5
sg6
g374
sa(dp446
g1
I01
sg5
I5
sg6
g178
sa(dp447
g1
I01
sg5
I5
sg6
g180
sa(dp448
g1
I01
sg5
I5
sg6
g182
sa(dp449
g1
I01
sg5
I5
sg6
g379
sa(dp450
g1
I01
sg5
I5
sg6
g184
sa(dp451
g1
I01
sg5
I5
sg6
g186
sa(dp452
g1
I01
sg5
I5
sg6
g383
sa(dp453
g1
I01
sg5
I5
sg6
g385
sa(dp454
g1
I01
sg5
I5
sg6
g387
sa(dp455
g1
I01
sg5
I5
sg6
g389
sa(dp456
g1
I01
sg5
I5
sg6
g391
sa(dp457
g1
I01
sg5
I2
sg6
g188
sa(dp458
g1
I01
sg5
I2
sg6
g190
sa(dp459
g1
I01
sg5
I2
sg6
g192
sa(dp460
g1
I01
sg5
I5
sg6
g194
sa(dp461
g1
I01
sg5
I5
sg6
g397
sa(dp462
g1
I01
sg5
I5
sg6
g196
sa(dp463
g1
I01
sg5
I2
sg6
g200
sa(dp464
g1
I01
sg5
I5
sg6
g202
sa(dp465
g1
I01
sg5
I2
sg6
g204
sa(dp466
g1
I01
sg5
I5
sg6
S'f_bavail'
p467
sa(dp468
g1
I01
sg5
I5
sg6
S'f_bfree'
p469
sa(dp470
g1
I01
sg5
I5
sg6
S'f_blocks'
p471
sa(dp472
g1
I01
sg5
I5
sg6
S'f_bsize'
p473
sa(dp474
g1
I01
sg5
I5
sg6
S'f_favail'
p475
sa(dp476
g1
I01
sg5
I5
sg6
S'f_ffree'
p477
sa(dp478
g1
I01
sg5
I5
sg6
S'f_files'
p479
sa(dp480
g1
I01
sg5
I5
sg6
S'f_flag'
p481
sa(dp482
g1
I01
sg5
I5
sg6
S'f_frsize'
p483
sa(dp484
g1
I01
sg5
I5
sg6
S'f_namemax'
p485
sa(dp486
g1
I01
sg5
I5
sg6
g403
sa(dp487
g1
I01
sg5
I5
sg6
g405
sa(dp488
g1
I01
sg5
I5
sg6
g407
sasg5
I3
sg6
S'statvfs_result'
p489
sa(dp490
g1
I01
sg5
I2
sg6
g216
sa(dp491
g1
I01
sg5
I2
sg6
S'symlink'
p492
sa(dp493
g1
I01
sg5
I2
sg6
S'sysconf'
p494
sa(dp495
g1
I01
sg5
I5
sg6
S'sysconf_names'
p496
sa(dp497
g1
I01
sg5
I2
sg6
S'system'
p498
sa(dp499
g1
I01
sg5
I2
sg6
S'tcgetpgrp'
p500
sa(dp501
g1
I01
sg5
I2
sg6
S'tcsetpgrp'
p502
sa(dp503
g1
I01
sg5
I2
sg6
S'tempnam'
p504
sa(dp505
g1
I01
sg5
I2
sg6
S'times'
p506
sa(dp507
g1
I01
sg5
I2
sg6
S'tmpfile'
p508
sa(dp509
g1
I01
sg5
I2
sg6
S'tmpnam'
p510
sa(dp511
g1
I01
sg5
I2
sg6
S'ttyname'
p512
sa(dp513
g1
I01
sg5
I2
sg6
S'umask'
p514
sa(dp515
g1
I01
sg5
I2
sg6
S'uname'
p516
sa(dp517
g1
I01
sg5
I2
sg6
S'unlink'
p518
sa(dp519
g1
I01
sg5
I2
sg6
S'unsetenv'
p520
sa(dp521
g1
I01
sg5
I2
sg6
S'urandom'
p522
sa(dp523
g1
I01
sg5
I2
sg6
S'utime'
p524
sa(dp525
g1
I01
sg5
I2
sg6
S'wait'
p526
sa(dp527
g1
I01
sg5
I2
sg6
S'wait3'
p528
sa(dp529
g1
I01
sg5
I2
sg6
S'wait4'
p530
sa(dp531
g1
I01
sg5
I2
sg6
S'waitpid'
p532
sa(dp533
g1
I01
sg5
I2
sg6
S'write'
p534
sasg6
S'posix'
p535
s.