(dp0
S'is_builtin'
p1
I01
sS'childs'
p2
(lp3
(dp4
g1
I01
sS'type'
p5
I5
sS'name'
p6
S'__doc__'
p7
sa(dp8
g1
I01
sg5
I5
sg6
S'__name__'
p9
sa(dp10
g1
I01
sg5
I5
sg6
S'__package__'
p11
sa(dp12
g1
I01
sg5
I2
sg6
S'getpwall'
p13
sa(dp14
g1
I01
sg5
I2
sg6
S'getpwnam'
p15
sa(dp16
g1
I01
sg5
I2
sg6
S'getpwuid'
p17
sa(dp18
g1
I01
sg2
(lp19
(dp20
g1
I01
sg5
I5
sg6
S'__add__'
p21
sa(dp22
g1
I01
sg5
I5
sg6
S'__contains__'
p23
sa(dp24
g1
I01
sg5
I5
sg6
S'__delattr__'
p25
sa(dp26
g1
I01
sg5
I5
sg6
g7
sa(dp27
g1
I01
sg5
I5
sg6
S'__eq__'
p28
sa(dp29
g1
I01
sg5
I2
sg6
S'__format__'
p30
sa(dp31
g1
I01
sg5
I5
sg6
S'__ge__'
p32
sa(dp33
g1
I01
sg5
I5
sg6
S'__getattribute__'
p34
sa(dp35
g1
I01
sg5
I5
sg6
S'__getitem__'
p36
sa(dp37
g1
I01
sg5
I5
sg6
S'__getslice__'
p38
sa(dp39
g1
I01
sg5
I5
sg6
S'__gt__'
p40
sa(dp41
g1
I01
sg5
I5
sg6
S'__hash__'
p42
sa(dp43
g1
I01
sg5
I5
sg6
S'__init__'
p44
sa(dp45
g1
I01
sg5
I5
sg6
S'__le__'
p46
sa(dp47
g1
I01
sg5
I5
sg6
S'__len__'
p48
sa(dp49
g1
I01
sg5
I5
sg6
S'__lt__'
p50
sa(dp51
g1
I01
sg5
I5
sg6
S'__mul__'
p52
sa(dp53
g1
I01
sg5
I5
sg6
S'__ne__'
p54
sa(dp55
g1
I01
sg5
I2
sg6
S'__new__'
p56
sa(dp57
g1
I01
sg5
I2
sg6
S'__reduce__'
p58
sa(dp59
g1
I01
sg5
I2
sg6
S'__reduce_ex__'
p60
sa(dp61
g1
I01
sg5
I5
sg6
S'__repr__'
p62
sa(dp63
g1
I01
sg5
I5
sg6
S'__rmul__'
p64
sa(dp65
g1
I01
sg5
I5
sg6
S'__setattr__'
p66
sa(dp67
g1
I01
sg5
I2
sg6
S'__sizeof__'
p68
sa(dp69
g1
I01
sg5
I5
sg6
S'__str__'
p70
sa(dp71
g1
I01
sg5
I2
sg6
S'__subclasshook__'
p72
sa(dp73
g1
I01
sg5
I5
sg6
S'n_fields'
p74
sa(dp75
g1
I01
sg5
I5
sg6
S'n_sequence_fields'
p76
sa(dp77
g1
I01
sg5
I5
sg6
S'n_unnamed_fields'
p78
sa(dp79
g1
I01
sg5
I5
sg6
S'pw_dir'
p80
sa(dp81
g1
I01
sg5
I5
sg6
S'pw_gecos'
p82
sa(dp83
g1
I01
sg5
I5
sg6
S'pw_gid'
p84
sa(dp85
g1
I01
sg5
I5
sg6
S'pw_name'
p86
sa(dp87
g1
I01
sg5
I5
sg6
S'pw_passwd'
p88
sa(dp89
g1
I01
sg5
I5
sg6
S'pw_shell'
p90
sa(dp91
g1
I01
sg5
I5
sg6
S'pw_uid'
p92
sasg5
I3
sg6
S'struct_passwd'
p93
sa(dp94
g1
I01
sg2
(lp95
(dp96
g1
I01
sg5
I5
sg6
g21
sa(dp97
g1
I01
sg5
I5
sg6
g23
sa(dp98
g1
I01
sg5
I5
sg6
g25
sa(dp99
g1
I01
sg5
I5
sg6
g7
sa(dp100
g1
I01
sg5
I5
sg6
g28
sa(dp101
g1
I01
sg5
I2
sg6
g30
sa(dp102
g1
I01
sg5
I5
sg6
g32
sa(dp103
g1
I01
sg5
I5
sg6
g34
sa(dp104
g1
I01
sg5
I5
sg6
g36
sa(dp105
g1
I01
sg5
I5
sg6
g38
sa(dp106
g1
I01
sg5
I5
sg6
g40
sa(dp107
g1
I01
sg5
I5
sg6
g42
sa(dp108
g1
I01
sg5
I5
sg6
g44
sa(dp109
g1
I01
sg5
I5
sg6
g46
sa(dp110
g1
I01
sg5
I5
sg6
g48
sa(dp111
g1
I01
sg5
I5
sg6
g50
sa(dp112
g1
I01
sg5
I5
sg6
g52
sa(dp113
g1
I01
sg5
I5
sg6
g54
sa(dp114
g1
I01
sg5
I2
sg6
g56
sa(dp115
g1
I01
sg5
I2
sg6
g58
sa(dp116
g1
I01
sg5
I2
sg6
g60
sa(dp117
g1
I01
sg5
I5
sg6
g62
sa(dp118
g1
I01
sg5
I5
sg6
g64
sa(dp119
g1
I01
sg5
I5
sg6
g66
sa(dp120
g1
I01
sg5
I2
sg6
g68
sa(dp121
g1
I01
sg5
I5
sg6
g70
sa(dp122
g1
I01
sg5
I2
sg6
g72
sa(dp123
g1
I01
sg5
I5
sg6
g74
sa(dp124
g1
I01
sg5
I5
sg6
g76
sa(dp125
g1
I01
sg5
I5
sg6
g78
sa(dp126
g1
I01
sg5
I5
sg6
g80
sa(dp127
g1
I01
sg5
I5
sg6
g82
sa(dp128
g1
I01
sg5
I5
sg6
g84
sa(dp129
g1
I01
sg5
I5
sg6
g86
sa(dp130
g1
I01
sg5
I5
sg6
g88
sa(dp131
g1
I01
sg5
I5
sg6
g90
sa(dp132
g1
I01
sg5
I5
sg6
g92
sasg5
I3
sg6
S'struct_pwent'
p133
sasg6
S'pwd'
p134
s.