(dp0
S'is_builtin'
p1
I01
sS'childs'
p2
(lp3
(dp4
g1
I01
sS'type'
p5
I5
sS'name'
p6
S'EPOLLERR'
p7
sa(dp8
g1
I01
sg5
I5
sg6
S'EPOLLET'
p9
sa(dp10
g1
I01
sg5
I5
sg6
S'EPOLLHUP'
p11
sa(dp12
g1
I01
sg5
I5
sg6
S'EPOLLIN'
p13
sa(dp14
g1
I01
sg5
I5
sg6
S'EPOLLMSG'
p15
sa(dp16
g1
I01
sg5
I5
sg6
S'EPOLLONESHOT'
p17
sa(dp18
g1
I01
sg5
I5
sg6
S'EPOLLOUT'
p19
sa(dp20
g1
I01
sg5
I5
sg6
S'EPOLLPRI'
p21
sa(dp22
g1
I01
sg5
I5
sg6
S'EPOLLRDBAND'
p23
sa(dp24
g1
I01
sg5
I5
sg6
S'EPOLLRDNORM'
p25
sa(dp26
g1
I01
sg5
I5
sg6
S'EPOLLWRBAND'
p27
sa(dp28
g1
I01
sg5
I5
sg6
S'EPOLLWRNORM'
p29
sa(dp30
g1
I01
sg5
I5
sg6
S'PIPE_BUF'
p31
sa(dp32
g1
I01
sg5
I5
sg6
S'POLLERR'
p33
sa(dp34
g1
I01
sg5
I5
sg6
S'POLLHUP'
p35
sa(dp36
g1
I01
sg5
I5
sg6
S'POLLIN'
p37
sa(dp38
g1
I01
sg5
I5
sg6
S'POLLMSG'
p39
sa(dp40
g1
I01
sg5
I5
sg6
S'POLLNVAL'
p41
sa(dp42
g1
I01
sg5
I5
sg6
S'POLLOUT'
p43
sa(dp44
g1
I01
sg5
I5
sg6
S'POLLPRI'
p45
sa(dp46
g1
I01
sg5
I5
sg6
S'POLLRDBAND'
p47
sa(dp48
g1
I01
sg5
I5
sg6
S'POLLRDNORM'
p49
sa(dp50
g1
I01
sg5
I5
sg6
S'POLLWRBAND'
p51
sa(dp52
g1
I01
sg5
I5
sg6
S'POLLWRNORM'
p53
sa(dp54
g1
I01
sg5
I5
sg6
S'__doc__'
p55
sa(dp56
g1
I01
sg5
I5
sg6
S'__name__'
p57
sa(dp58
g1
I01
sg5
I5
sg6
S'__package__'
p59
sa(dp60
g1
I01
sg2
(lp61
(dp62
g1
I01
sg5
I5
sg6
S'__delattr__'
p63
sa(dp64
g1
I01
sg5
I5
sg6
g55
sa(dp65
g1
I01
sg5
I2
sg6
S'__format__'
p66
sa(dp67
g1
I01
sg5
I5
sg6
S'__getattribute__'
p68
sa(dp69
g1
I01
sg5
I5
sg6
S'__hash__'
p70
sa(dp71
g1
I01
sg5
I5
sg6
S'__init__'
p72
sa(dp73
g1
I01
sg5
I2
sg6
S'__new__'
p74
sa(dp75
g1
I01
sg5
I2
sg6
S'__reduce__'
p76
sa(dp77
g1
I01
sg5
I2
sg6
S'__reduce_ex__'
p78
sa(dp79
g1
I01
sg5
I5
sg6
S'__repr__'
p80
sa(dp81
g1
I01
sg5
I5
sg6
S'__setattr__'
p82
sa(dp83
g1
I01
sg5
I2
sg6
S'__sizeof__'
p84
sa(dp85
g1
I01
sg5
I5
sg6
S'__str__'
p86
sa(dp87
g1
I01
sg5
I2
sg6
S'__subclasshook__'
p88
sa(dp89
g1
I01
sg5
I2
sg6
S'close'
p90
sa(dp91
g1
I01
sg5
I5
sg6
S'closed'
p92
sa(dp93
g1
I01
sg5
I2
sg6
S'fileno'
p94
sa(dp95
g1
I01
sg5
I2
sg6
S'fromfd'
p96
sa(dp97
g1
I01
sg5
I2
sg6
S'modify'
p98
sa(dp99
g1
I01
sg5
I2
sg6
S'poll'
p100
sa(dp101
g1
I01
sg5
I2
sg6
S'register'
p102
sa(dp103
g1
I01
sg5
I2
sg6
S'unregister'
p104
sasg5
I3
sg6
S'epoll'
p105
sa(dp106
g1
I01
sg2
(lp107
(dp108
g1
I01
sg5
I5
sg6
g63
sa(dp109
g1
I01
sg5
I5
sg6
S'__dict__'
p110
sa(dp111
g1
I01
sg5
I5
sg6
g55
sa(dp112
g1
I01
sg5
I2
sg6
g66
sa(dp113
g1
I01
sg5
I5
sg6
g68
sa(dp114
g1
I01
sg5
I5
sg6
S'__getitem__'
p115
sa(dp116
g1
I01
sg5
I5
sg6
S'__getslice__'
p117
sa(dp118
g1
I01
sg5
I5
sg6
g70
sa(dp119
g1
I01
sg5
I5
sg6
g72
sa(dp120
g1
I01
sg5
I5
sg6
S'__module__'
p121
sa(dp122
g1
I01
sg5
I2
sg6
g74
sa(dp123
g1
I01
sg5
I2
sg6
g76
sa(dp124
g1
I01
sg5
I2
sg6
g78
sa(dp125
g1
I01
sg5
I5
sg6
g80
sa(dp126
g1
I01
sg5
I5
sg6
g82
sa(dp127
g1
I01
sg5
I2
sg6
S'__setstate__'
p128
sa(dp129
g1
I01
sg5
I2
sg6
g84
sa(dp130
g1
I01
sg5
I5
sg6
g86
sa(dp131
g1
I01
sg5
I2
sg6
g88
sa(dp132
g1
I01
sg5
I2
sg6
S'__unicode__'
p133
sa(dp134
g1
I01
sg5
I5
sg6
S'__weakref__'
p135
sa(dp136
g1
I01
sg5
I5
sg6
S'args'
p137
sa(dp138
g1
I01
sg5
I5
sg6
S'message'
p139
sasg5
I3
sg6
S'error'
p140
sa(dp141
g1
I01
sg5
I2
sg6
g100
sa(dp142
g1
I01
sg5
I2
sg6
S'select'
p143
sasg6
S'select'
p144
s.