(dp0
S'is_builtin'
p1
I01
sS'childs'
p2
(lp3
(dp4
g1
I01
sS'type'
p5
I5
sS'name'
p6
S'ITIMER_PROF'
p7
sa(dp8
g1
I01
sg5
I5
sg6
S'ITIMER_REAL'
p9
sa(dp10
g1
I01
sg5
I5
sg6
S'ITIMER_VIRTUAL'
p11
sa(dp12
g1
I01
sg2
(lp13
(dp14
g1
I01
sg5
I5
sg6
S'__delattr__'
p15
sa(dp16
g1
I01
sg5
I5
sg6
S'__dict__'
p17
sa(dp18
g1
I01
sg5
I5
sg6
S'__doc__'
p19
sa(dp20
g1
I01
sg5
I2
sg6
S'__format__'
p21
sa(dp22
g1
I01
sg5
I5
sg6
S'__getattribute__'
p23
sa(dp24
g1
I01
sg5
I5
sg6
S'__getitem__'
p25
sa(dp26
g1
I01
sg5
I5
sg6
S'__getslice__'
p27
sa(dp28
g1
I01
sg5
I5
sg6
S'__hash__'
p29
sa(dp30
g1
I01
sg5
I5
sg6
S'__init__'
p31
sa(dp32
g1
I01
sg5
I5
sg6
S'__module__'
p33
sa(dp34
g1
I01
sg5
I2
sg6
S'__new__'
p35
sa(dp36
g1
I01
sg5
I2
sg6
S'__reduce__'
p37
sa(dp38
g1
I01
sg5
I2
sg6
S'__reduce_ex__'
p39
sa(dp40
g1
I01
sg5
I5
sg6
S'__repr__'
p41
sa(dp42
g1
I01
sg5
I5
sg6
S'__setattr__'
p43
sa(dp44
g1
I01
sg5
I2
sg6
S'__setstate__'
p45
sa(dp46
g1
I01
sg5
I2
sg6
S'__sizeof__'
p47
sa(dp48
g1
I01
sg5
I5
sg6
S'__str__'
p49
sa(dp50
g1
I01
sg5
I2
sg6
S'__subclasshook__'
p51
sa(dp52
g1
I01
sg5
I2
sg6
S'__unicode__'
p53
sa(dp54
g1
I01
sg5
I5
sg6
S'__weakref__'
p55
sa(dp56
g1
I01
sg5
I5
sg6
S'args'
p57
sa(dp58
g1
I01
sg5
I5
sg6
S'errno'
p59
sa(dp60
g1
I01
sg5
I5
sg6
S'filename'
p61
sa(dp62
g1
I01
sg5
I5
sg6
S'message'
p63
sa(dp64
g1
I01
sg5
I5
sg6
S'strerror'
p65
sasg5
I3
sg6
S'ItimerError'
p66
sa(dp67
g1
I01
sg5
I5
sg6
S'NSIG'
p68
sa(dp69
g1
I01
sg5
I5
sg6
S'SIGABRT'
p70
sa(dp71
g1
I01
sg5
I5
sg6
S'SIGALRM'
p72
sa(dp73
g1
I01
sg5
I5
sg6
S'SIGBUS'
p74
sa(dp75
g1
I01
sg5
I5
sg6
S'SIGCHLD'
p76
sa(dp77
g1
I01
sg5
I5
sg6
S'SIGCLD'
p78
sa(dp79
g1
I01
sg5
I5
sg6
S'SIGCONT'
p80
sa(dp81
g1
I01
sg5
I5
sg6
S'SIGFPE'
p82
sa(dp83
g1
I01
sg5
I5
sg6
S'SIGHUP'
p84
sa(dp85
g1
I01
sg5
I5
sg6
S'SIGILL'
p86
sa(dp87
g1
I01
sg5
I5
sg6
S'SIGINT'
p88
sa(dp89
g1
I01
sg5
I5
sg6
S'SIGIO'
p90
sa(dp91
g1
I01
sg5
I5
sg6
S'SIGIOT'
p92
sa(dp93
g1
I01
sg5
I5
sg6
S'SIGKILL'
p94
sa(dp95
g1
I01
sg5
I5
sg6
S'SIGPIPE'
p96
sa(dp97
g1
I01
sg5
I5
sg6
S'SIGPOLL'
p98
sa(dp99
g1
I01
sg5
I5
sg6
S'SIGPROF'
p100
sa(dp101
g1
I01
sg5
I5
sg6
S'SIGPWR'
p102
sa(dp103
g1
I01
sg5
I5
sg6
S'SIGQUIT'
p104
sa(dp105
g1
I01
sg5
I5
sg6
S'SIGRTMAX'
p106
sa(dp107
g1
I01
sg5
I5
sg6
S'SIGRTMIN'
p108
sa(dp109
g1
I01
sg5
I5
sg6
S'SIGSEGV'
p110
sa(dp111
g1
I01
sg5
I5
sg6
S'SIGSTOP'
p112
sa(dp113
g1
I01
sg5
I5
sg6
S'SIGSYS'
p114
sa(dp115
g1
I01
sg5
I5
sg6
S'SIGTERM'
p116
sa(dp117
g1
I01
sg5
I5
sg6
S'SIGTRAP'
p118
sa(dp119
g1
I01
sg5
I5
sg6
S'SIGTSTP'
p120
sa(dp121
g1
I01
sg5
I5
sg6
S'SIGTTIN'
p122
sa(dp123
g1
I01
sg5
I5
sg6
S'SIGTTOU'
p124
sa(dp125
g1
I01
sg5
I5
sg6
S'SIGURG'
p126
sa(dp127
g1
I01
sg5
I5
sg6
S'SIGUSR1'
p128
sa(dp129
g1
I01
sg5
I5
sg6
S'SIGUSR2'
p130
sa(dp131
g1
I01
sg5
I5
sg6
S'SIGVTALRM'
p132
sa(dp133
g1
I01
sg5
I5
sg6
S'SIGWINCH'
p134
sa(dp135
g1
I01
sg5
I5
sg6
S'SIGXCPU'
p136
sa(dp137
g1
I01
sg5
I5
sg6
S'SIGXFSZ'
p138
sa(dp139
g1
I01
sg5
I5
sg6
S'SIG_DFL'
p140
sa(dp141
g1
I01
sg5
I5
sg6
S'SIG_IGN'
p142
sa(dp143
g1
I01
sg5
I5
sg6
g19
sa(dp144
g1
I01
sg5
I5
sg6
S'__name__'
p145
sa(dp146
g1
I01
sg5
I5
sg6
S'__package__'
p147
sa(dp148
g1
I01
sg5
I2
sg6
S'alarm'
p149
sa(dp150
g1
I01
sg5
I2
sg6
S'default_int_handler'
p151
sa(dp152
g1
I01
sg5
I2
sg6
S'getitimer'
p153
sa(dp154
g1
I01
sg5
I2
sg6
S'getsignal'
p155
sa(dp156
g1
I01
sg5
I2
sg6
S'pause'
p157
sa(dp158
g1
I01
sg5
I2
sg6
S'set_wakeup_fd'
p159
sa(dp160
g1
I01
sg5
I2
sg6
S'setitimer'
p161
sa(dp162
g1
I01
sg5
I2
sg6
S'siginterrupt'
p163
sa(dp164
g1
I01
sg5
I2
sg6
S'signal'
p165
sasg6
S'signal'
p166
s.