(dp0
S'is_builtin'
p1
I01
sS'childs'
p2
(lp3
(dp4
g1
I01
sS'type'
p5
I5
sS'name'
p6
S'__doc__'
p7
sa(dp8
g1
I01
sg5
I5
sg6
S'__name__'
p9
sa(dp10
g1
I01
sg5
I5
sg6
S'__package__'
p11
sa(dp12
g1
I01
sg5
I2
sg6
S'getspall'
p13
sa(dp14
g1
I01
sg5
I2
sg6
S'getspnam'
p15
sa(dp16
g1
I01
sg2
(lp17
(dp18
g1
I01
sg5
I5
sg6
S'__add__'
p19
sa(dp20
g1
I01
sg5
I5
sg6
S'__contains__'
p21
sa(dp22
g1
I01
sg5
I5
sg6
S'__delattr__'
p23
sa(dp24
g1
I01
sg5
I5
sg6
g7
sa(dp25
g1
I01
sg5
I5
sg6
S'__eq__'
p26
sa(dp27
g1
I01
sg5
I2
sg6
S'__format__'
p28
sa(dp29
g1
I01
sg5
I5
sg6
S'__ge__'
p30
sa(dp31
g1
I01
sg5
I5
sg6
S'__getattribute__'
p32
sa(dp33
g1
I01
sg5
I5
sg6
S'__getitem__'
p34
sa(dp35
g1
I01
sg5
I5
sg6
S'__getslice__'
p36
sa(dp37
g1
I01
sg5
I5
sg6
S'__gt__'
p38
sa(dp39
g1
I01
sg5
I5
sg6
S'__hash__'
p40
sa(dp41
g1
I01
sg5
I5
sg6
S'__init__'
p42
sa(dp43
g1
I01
sg5
I5
sg6
S'__le__'
p44
sa(dp45
g1
I01
sg5
I5
sg6
S'__len__'
p46
sa(dp47
g1
I01
sg5
I5
sg6
S'__lt__'
p48
sa(dp49
g1
I01
sg5
I5
sg6
S'__mul__'
p50
sa(dp51
g1
I01
sg5
I5
sg6
S'__ne__'
p52
sa(dp53
g1
I01
sg5
I2
sg6
S'__new__'
p54
sa(dp55
g1
I01
sg5
I2
sg6
S'__reduce__'
p56
sa(dp57
g1
I01
sg5
I2
sg6
S'__reduce_ex__'
p58
sa(dp59
g1
I01
sg5
I5
sg6
S'__repr__'
p60
sa(dp61
g1
I01
sg5
I5
sg6
S'__rmul__'
p62
sa(dp63
g1
I01
sg5
I5
sg6
S'__setattr__'
p64
sa(dp65
g1
I01
sg5
I2
sg6
S'__sizeof__'
p66
sa(dp67
g1
I01
sg5
I5
sg6
S'__str__'
p68
sa(dp69
g1
I01
sg5
I2
sg6
S'__subclasshook__'
p70
sa(dp71
g1
I01
sg5
I5
sg6
S'n_fields'
p72
sa(dp73
g1
I01
sg5
I5
sg6
S'n_sequence_fields'
p74
sa(dp75
g1
I01
sg5
I5
sg6
S'n_unnamed_fields'
p76
sa(dp77
g1
I01
sg5
I5
sg6
S'sp_expire'
p78
sa(dp79
g1
I01
sg5
I5
sg6
S'sp_flag'
p80
sa(dp81
g1
I01
sg5
I5
sg6
S'sp_inact'
p82
sa(dp83
g1
I01
sg5
I5
sg6
S'sp_lstchg'
p84
sa(dp85
g1
I01
sg5
I5
sg6
S'sp_max'
p86
sa(dp87
g1
I01
sg5
I5
sg6
S'sp_min'
p88
sa(dp89
g1
I01
sg5
I5
sg6
S'sp_nam'
p90
sa(dp91
g1
I01
sg5
I5
sg6
S'sp_pwd'
p92
sa(dp93
g1
I01
sg5
I5
sg6
S'sp_warn'
p94
sasg5
I3
sg6
S'struct_spwd'
p95
sasg6
S'spwd'
p96
s.