(dp0
S'is_builtin'
p1
I01
sS'childs'
p2
(lp3
(dp4
g1
I01
sS'type'
p5
I2
sS'name'
p6
S'__displayhook__'
p7
sa(dp8
g1
I01
sg5
I5
sg6
S'__doc__'
p9
sa(dp10
g1
I01
sg5
I2
sg6
S'__excepthook__'
p11
sa(dp12
g1
I01
sg5
I5
sg6
S'__name__'
p13
sa(dp14
g1
I01
sg5
I5
sg6
S'__package__'
p15
sa(dp16
g1
I01
sg5
I5
sg6
S'__stderr__'
p17
sa(dp18
g1
I01
sg5
I5
sg6
S'__stdin__'
p19
sa(dp20
g1
I01
sg5
I5
sg6
S'__stdout__'
p21
sa(dp22
g1
I01
sg5
I2
sg6
S'_clear_type_cache'
p23
sa(dp24
g1
I01
sg5
I2
sg6
S'_current_frames'
p25
sa(dp26
g1
I01
sg5
I2
sg6
S'_getframe'
p27
sa(dp28
g1
I01
sg5
I5
sg6
S'_mercurial'
p29
sa(dp30
g1
I01
sg5
I5
sg6
S'_multiarch'
p31
sa(dp32
g1
I01
sg5
I5
sg6
S'api_version'
p33
sa(dp34
g1
I01
sg5
I5
sg6
S'argv'
p35
sa(dp36
g1
I01
sg5
I5
sg6
S'builtin_module_names'
p37
sa(dp38
g1
I01
sg5
I5
sg6
S'byteorder'
p39
sa(dp40
g1
I01
sg5
I2
sg6
S'call_tracing'
p41
sa(dp42
g1
I01
sg5
I2
sg6
S'callstats'
p43
sa(dp44
g1
I01
sg5
I5
sg6
S'copyright'
p45
sa(dp46
g1
I01
sg5
I2
sg6
S'displayhook'
p47
sa(dp48
g1
I01
sg5
I5
sg6
S'dont_write_bytecode'
p49
sa(dp50
g1
I01
sg5
I2
sg6
S'exc_clear'
p51
sa(dp52
g1
I01
sg5
I2
sg6
S'exc_info'
p53
sa(dp54
g1
I01
sg5
I5
sg6
S'exc_type'
p55
sa(dp56
g1
I01
sg5
I2
sg6
S'excepthook'
p57
sa(dp58
g1
I01
sg5
I5
sg6
S'exec_prefix'
p59
sa(dp60
g1
I01
sg5
I5
sg6
S'executable'
p61
sa(dp62
g1
I01
sg5
I2
sg6
S'exit'
p63
sa(dp64
g1
I01
sg5
I5
sg6
S'exitfunc'
p65
sa(dp66
g1
I01
sg5
I5
sg6
S'flags'
p67
sa(dp68
g1
I01
sg5
I5
sg6
S'float_info'
p69
sa(dp70
g1
I01
sg5
I5
sg6
S'float_repr_style'
p71
sa(dp72
g1
I01
sg5
I2
sg6
S'getcheckinterval'
p73
sa(dp74
g1
I01
sg5
I2
sg6
S'getdefaultencoding'
p75
sa(dp76
g1
I01
sg5
I2
sg6
S'getdlopenflags'
p77
sa(dp78
g1
I01
sg5
I2
sg6
S'getfilesystemencoding'
p79
sa(dp80
g1
I01
sg5
I2
sg6
S'getprofile'
p81
sa(dp82
g1
I01
sg5
I2
sg6
S'getrecursionlimit'
p83
sa(dp84
g1
I01
sg5
I2
sg6
S'getrefcount'
p85
sa(dp86
g1
I01
sg5
I2
sg6
S'getsizeof'
p87
sa(dp88
g1
I01
sg5
I2
sg6
S'gettrace'
p89
sa(dp90
g1
I01
sg5
I5
sg6
S'hexversion'
p91
sa(dp92
g1
I01
sg5
I5
sg6
S'long_info'
p93
sa(dp94
g1
I01
sg5
I5
sg6
S'maxint'
p95
sa(dp96
g1
I01
sg5
I5
sg6
S'maxsize'
p97
sa(dp98
g1
I01
sg5
I5
sg6
S'maxunicode'
p99
sa(dp100
g1
I01
sg5
I5
sg6
S'meta_path'
p101
sa(dp102
g1
I01
sg5
I5
sg6
S'modules'
p103
sa(dp104
g1
I01
sg5
I5
sg6
S'path'
p105
sa(dp106
g1
I01
sg5
I5
sg6
S'path_hooks'
p107
sa(dp108
g1
I01
sg5
I5
sg6
S'path_importer_cache'
p109
sa(dp110
g1
I01
sg5
I5
sg6
S'platform'
p111
sa(dp112
g1
I01
sg5
I5
sg6
S'prefix'
p113
sa(dp114
g1
I01
sg5
I5
sg6
S'py3kwarning'
p115
sa(dp116
g1
I01
sg5
I5
sg6
S'pydebug'
p117
sa(dp118
g1
I01
sg5
I2
sg6
S'setcheckinterval'
p119
sa(dp120
g1
I01
sg5
I2
sg6
S'setdefaultencoding'
p121
sa(dp122
g1
I01
sg5
I2
sg6
S'setdlopenflags'
p123
sa(dp124
g1
I01
sg5
I2
sg6
S'setprofile'
p125
sa(dp126
g1
I01
sg5
I2
sg6
S'setrecursionlimit'
p127
sa(dp128
g1
I01
sg5
I2
sg6
S'settrace'
p129
sa(dp130
g1
I01
sg5
I5
sg6
S'stderr'
p131
sa(dp132
g1
I01
sg5
I5
sg6
S'stdin'
p133
sa(dp134
g1
I01
sg5
I5
sg6
S'stdout'
p135
sa(dp136
g1
I01
sg5
I5
sg6
S'subversion'
p137
sa(dp138
g1
I01
sg5
I5
sg6
S'version'
p139
sa(dp140
g1
I01
sg5
I5
sg6
S'version_info'
p141
sa(dp142
g1
I01
sg5
I5
sg6
S'warnoptions'
p143
sasg6
S'sys'
p144
s.