(dp0
S'is_builtin'
p1
I01
sS'childs'
p2
(lp3
(dp4
g1
I01
sg2
(lp5
(dp6
g1
I01
sS'type'
p7
I5
sS'name'
p8
S'__delattr__'
p9
sa(dp10
g1
I01
sg7
I5
sg8
S'__doc__'
p11
sa(dp12
g1
I01
sg7
I2
sg8
S'__enter__'
p13
sa(dp14
g1
I01
sg7
I2
sg8
S'__exit__'
p15
sa(dp16
g1
I01
sg7
I2
sg8
S'__format__'
p17
sa(dp18
g1
I01
sg7
I5
sg8
S'__getattribute__'
p19
sa(dp20
g1
I01
sg7
I5
sg8
S'__hash__'
p21
sa(dp22
g1
I01
sg7
I5
sg8
S'__init__'
p23
sa(dp24
g1
I01
sg7
I2
sg8
S'__new__'
p25
sa(dp26
g1
I01
sg7
I2
sg8
S'__reduce__'
p27
sa(dp28
g1
I01
sg7
I2
sg8
S'__reduce_ex__'
p29
sa(dp30
g1
I01
sg7
I5
sg8
S'__repr__'
p31
sa(dp32
g1
I01
sg7
I5
sg8
S'__setattr__'
p33
sa(dp34
g1
I01
sg7
I2
sg8
S'__sizeof__'
p35
sa(dp36
g1
I01
sg7
I5
sg8
S'__str__'
p37
sa(dp38
g1
I01
sg7
I2
sg8
S'__subclasshook__'
p39
sa(dp40
g1
I01
sg7
I2
sg8
S'acquire'
p41
sa(dp42
g1
I01
sg7
I2
sg8
S'acquire_lock'
p43
sa(dp44
g1
I01
sg7
I2
sg8
S'locked'
p45
sa(dp46
g1
I01
sg7
I2
sg8
S'locked_lock'
p47
sa(dp48
g1
I01
sg7
I2
sg8
S'release'
p49
sa(dp50
g1
I01
sg7
I2
sg8
S'release_lock'
p51
sasg7
I3
sg8
S'LockType'
p52
sa(dp53
g1
I01
sg7
I5
sg8
g11
sa(dp54
g1
I01
sg7
I5
sg8
S'__name__'
p55
sa(dp56
g1
I01
sg7
I5
sg8
S'__package__'
p57
sa(dp58
g1
I01
sg7
I2
sg8
S'_count'
p59
sa(dp60
g1
I01
sg2
(lp61
(dp62
g1
I01
sg7
I5
sg8
g9
sa(dp63
g1
I01
sg7
I5
sg8
g11
sa(dp64
g1
I01
sg7
I2
sg8
g17
sa(dp65
g1
I01
sg7
I5
sg8
g19
sa(dp66
g1
I01
sg7
I5
sg8
g21
sa(dp67
g1
I01
sg7
I5
sg8
g23
sa(dp68
g1
I01
sg7
I2
sg8
g25
sa(dp69
g1
I01
sg7
I2
sg8
g27
sa(dp70
g1
I01
sg7
I2
sg8
g29
sa(dp71
g1
I01
sg7
I5
sg8
g31
sa(dp72
g1
I01
sg7
I5
sg8
g33
sa(dp73
g1
I01
sg7
I2
sg8
g35
sa(dp74
g1
I01
sg7
I5
sg8
g37
sa(dp75
g1
I01
sg7
I2
sg8
g39
sasg7
I3
sg8
S'_local'
p76
sa(dp77
g1
I01
sg7
I2
sg8
S'allocate'
p78
sa(dp79
g1
I01
sg7
I2
sg8
S'allocate_lock'
p80
sa(dp81
g1
I01
sg2
(lp82
(dp83
g1
I01
sg7
I5
sg8
g9
sa(dp84
g1
I01
sg7
I5
sg8
S'__dict__'
p85
sa(dp86
g1
I01
sg7
I5
sg8
g11
sa(dp87
g1
I01
sg7
I2
sg8
g17
sa(dp88
g1
I01
sg7
I5
sg8
g19
sa(dp89
g1
I01
sg7
I5
sg8
S'__getitem__'
p90
sa(dp91
g1
I01
sg7
I5
sg8
S'__getslice__'
p92
sa(dp93
g1
I01
sg7
I5
sg8
g21
sa(dp94
g1
I01
sg7
I5
sg8
g23
sa(dp95
g1
I01
sg7
I5
sg8
S'__module__'
p96
sa(dp97
g1
I01
sg7
I2
sg8
g25
sa(dp98
g1
I01
sg7
I2
sg8
g27
sa(dp99
g1
I01
sg7
I2
sg8
g29
sa(dp100
g1
I01
sg7
I5
sg8
g31
sa(dp101
g1
I01
sg7
I5
sg8
g33
sa(dp102
g1
I01
sg7
I2
sg8
S'__setstate__'
p103
sa(dp104
g1
I01
sg7
I2
sg8
g35
sa(dp105
g1
I01
sg7
I5
sg8
g37
sa(dp106
g1
I01
sg7
I2
sg8
g39
sa(dp107
g1
I01
sg7
I2
sg8
S'__unicode__'
p108
sa(dp109
g1
I01
sg7
I5
sg8
S'__weakref__'
p110
sa(dp111
g1
I01
sg7
I5
sg8
S'args'
p112
sa(dp113
g1
I01
sg7
I5
sg8
S'message'
p114
sasg7
I3
sg8
S'error'
p115
sa(dp116
g1
I01
sg7
I2
sg8
S'exit'
p117
sa(dp118
g1
I01
sg7
I2
sg8
S'exit_thread'
p119
sa(dp120
g1
I01
sg7
I2
sg8
S'get_ident'
p121
sa(dp122
g1
I01
sg7
I2
sg8
S'interrupt_main'
p123
sa(dp124
g1
I01
sg7
I2
sg8
S'stack_size'
p125
sa(dp126
g1
I01
sg7
I2
sg8
S'start_new'
p127
sa(dp128
g1
I01
sg7
I2
sg8
S'start_new_thread'
p129
sasg8
S'thread'
p130
s.