(dp0
S'is_builtin'
p1
I01
sS'childs'
p2
(lp3
(dp4
g1
I01
sS'type'
p5
I5
sS'name'
p6
S'__doc__'
p7
sa(dp8
g1
I01
sg5
I5
sg6
S'__name__'
p9
sa(dp10
g1
I01
sg5
I5
sg6
S'__package__'
p11
sa(dp12
g1
I01
sg5
I5
sg6
S'accept2dyear'
p13
sa(dp14
g1
I01
sg5
I5
sg6
S'altzone'
p15
sa(dp16
g1
I01
sg5
I2
sg6
S'asctime'
p17
sa(dp18
g1
I01
sg5
I2
sg6
S'clock'
p19
sa(dp20
g1
I01
sg5
I2
sg6
S'ctime'
p21
sa(dp22
g1
I01
sg5
I5
sg6
S'daylight'
p23
sa(dp24
g1
I01
sg5
I2
sg6
S'gmtime'
p25
sa(dp26
g1
I01
sg5
I2
sg6
S'localtime'
p27
sa(dp28
g1
I01
sg5
I2
sg6
S'mktime'
p29
sa(dp30
g1
I01
sg5
I2
sg6
S'sleep'
p31
sa(dp32
g1
I01
sg5
I2
sg6
S'strftime'
p33
sa(dp34
g1
I01
sg5
I2
sg6
S'strptime'
p35
sa(dp36
g1
I01
sg2
(lp37
(dp38
g1
I01
sg5
I5
sg6
S'__add__'
p39
sa(dp40
g1
I01
sg5
I5
sg6
S'__contains__'
p41
sa(dp42
g1
I01
sg5
I5
sg6
S'__delattr__'
p43
sa(dp44
g1
I01
sg5
I5
sg6
g7
sa(dp45
g1
I01
sg5
I5
sg6
S'__eq__'
p46
sa(dp47
g1
I01
sg5
I2
sg6
S'__format__'
p48
sa(dp49
g1
I01
sg5
I5
sg6
S'__ge__'
p50
sa(dp51
g1
I01
sg5
I5
sg6
S'__getattribute__'
p52
sa(dp53
g1
I01
sg5
I5
sg6
S'__getitem__'
p54
sa(dp55
g1
I01
sg5
I5
sg6
S'__getslice__'
p56
sa(dp57
g1
I01
sg5
I5
sg6
S'__gt__'
p58
sa(dp59
g1
I01
sg5
I5
sg6
S'__hash__'
p60
sa(dp61
g1
I01
sg5
I5
sg6
S'__init__'
p62
sa(dp63
g1
I01
sg5
I5
sg6
S'__le__'
p64
sa(dp65
g1
I01
sg5
I5
sg6
S'__len__'
p66
sa(dp67
g1
I01
sg5
I5
sg6
S'__lt__'
p68
sa(dp69
g1
I01
sg5
I5
sg6
S'__mul__'
p70
sa(dp71
g1
I01
sg5
I5
sg6
S'__ne__'
p72
sa(dp73
g1
I01
sg5
I2
sg6
S'__new__'
p74
sa(dp75
g1
I01
sg5
I2
sg6
S'__reduce__'
p76
sa(dp77
g1
I01
sg5
I2
sg6
S'__reduce_ex__'
p78
sa(dp79
g1
I01
sg5
I5
sg6
S'__repr__'
p80
sa(dp81
g1
I01
sg5
I5
sg6
S'__rmul__'
p82
sa(dp83
g1
I01
sg5
I5
sg6
S'__setattr__'
p84
sa(dp85
g1
I01
sg5
I2
sg6
S'__sizeof__'
p86
sa(dp87
g1
I01
sg5
I5
sg6
S'__str__'
p88
sa(dp89
g1
I01
sg5
I2
sg6
S'__subclasshook__'
p90
sa(dp91
g1
I01
sg5
I5
sg6
S'n_fields'
p92
sa(dp93
g1
I01
sg5
I5
sg6
S'n_sequence_fields'
p94
sa(dp95
g1
I01
sg5
I5
sg6
S'n_unnamed_fields'
p96
sa(dp97
g1
I01
sg5
I5
sg6
S'tm_hour'
p98
sa(dp99
g1
I01
sg5
I5
sg6
S'tm_isdst'
p100
sa(dp101
g1
I01
sg5
I5
sg6
S'tm_mday'
p102
sa(dp103
g1
I01
sg5
I5
sg6
S'tm_min'
p104
sa(dp105
g1
I01
sg5
I5
sg6
S'tm_mon'
p106
sa(dp107
g1
I01
sg5
I5
sg6
S'tm_sec'
p108
sa(dp109
g1
I01
sg5
I5
sg6
S'tm_wday'
p110
sa(dp111
g1
I01
sg5
I5
sg6
S'tm_yday'
p112
sa(dp113
g1
I01
sg5
I5
sg6
S'tm_year'
p114
sasg5
I3
sg6
S'struct_time'
p115
sa(dp116
g1
I01
sg5
I2
sg6
S'time'
p117
sa(dp118
g1
I01
sg5
I5
sg6
S'timezone'
p119
sa(dp120
g1
I01
sg5
I5
sg6
S'tzname'
p121
sa(dp122
g1
I01
sg5
I2
sg6
S'tzset'
p123
sasg6
S'time'
p124
s.