(dp0
S'is_builtin'
p1
I01
sS'childs'
p2
(lp3
(dp4
g1
I01
sg2
(lp5
(dp6
g1
I01
sS'type'
p7
I5
sS'name'
p8
S'__delattr__'
p9
sa(dp10
g1
I01
sg7
I5
sg8
S'__doc__'
p11
sa(dp12
g1
I01
sg7
I2
sg8
S'__format__'
p13
sa(dp14
g1
I01
sg7
I5
sg8
S'__getattribute__'
p15
sa(dp16
g1
I01
sg7
I5
sg8
S'__hash__'
p17
sa(dp18
g1
I01
sg7
I5
sg8
S'__init__'
p19
sa(dp20
g1
I01
sg7
I2
sg8
S'__new__'
p21
sa(dp22
g1
I01
sg7
I2
sg8
S'__reduce__'
p23
sa(dp24
g1
I01
sg7
I2
sg8
S'__reduce_ex__'
p25
sa(dp26
g1
I01
sg7
I5
sg8
S'__repr__'
p27
sa(dp28
g1
I01
sg7
I5
sg8
S'__setattr__'
p29
sa(dp30
g1
I01
sg7
I2
sg8
S'__sizeof__'
p31
sa(dp32
g1
I01
sg7
I5
sg8
S'__str__'
p33
sa(dp34
g1
I01
sg7
I2
sg8
S'__subclasshook__'
p35
sa(dp36
g1
I01
sg7
I2
sg8
S'bidirectional'
p37
sa(dp38
g1
I01
sg7
I2
sg8
S'category'
p39
sa(dp40
g1
I01
sg7
I2
sg8
S'combining'
p41
sa(dp42
g1
I01
sg7
I2
sg8
S'decimal'
p43
sa(dp44
g1
I01
sg7
I2
sg8
S'decomposition'
p45
sa(dp46
g1
I01
sg7
I2
sg8
S'digit'
p47
sa(dp48
g1
I01
sg7
I2
sg8
S'east_asian_width'
p49
sa(dp50
g1
I01
sg7
I2
sg8
S'lookup'
p51
sa(dp52
g1
I01
sg7
I2
sg8
S'mirrored'
p53
sa(dp54
g1
I01
sg7
I2
sg8
g8
sa(dp55
g1
I01
sg7
I2
sg8
S'normalize'
p56
sa(dp57
g1
I01
sg7
I2
sg8
S'numeric'
p58
sa(dp59
g1
I01
sg7
I5
sg8
S'unidata_version'
p60
sasg7
I3
sg8
S'UCD'
p61
sa(dp62
g1
I01
sg7
I5
sg8
g11
sa(dp63
g1
I01
sg7
I5
sg8
S'__name__'
p64
sa(dp65
g1
I01
sg7
I5
sg8
S'__package__'
p66
sa(dp67
g1
I01
sg7
I2
sg8
g37
sa(dp68
g1
I01
sg7
I2
sg8
g39
sa(dp69
g1
I01
sg7
I2
sg8
g41
sa(dp70
g1
I01
sg7
I2
sg8
g43
sa(dp71
g1
I01
sg7
I2
sg8
g45
sa(dp72
g1
I01
sg7
I2
sg8
g47
sa(dp73
g1
I01
sg7
I2
sg8
g49
sa(dp74
g1
I01
sg7
I2
sg8
g51
sa(dp75
g1
I01
sg7
I2
sg8
g53
sa(dp76
g1
I01
sg7
I2
sg8
g8
sa(dp77
g1
I01
sg7
I2
sg8
g56
sa(dp78
g1
I01
sg7
I2
sg8
g58
sa(dp79
g1
I01
sg7
I5
sg8
S'ucd_3_2_0'
p80
sa(dp81
g1
I01
sg7
I5
sg8
S'ucnhash_CAPI'
p82
sa(dp83
g1
I01
sg7
I5
sg8
g60
sasg8
S'unicodedata'
p84
s.