(dp0
S'is_builtin'
p1
I01
sS'childs'
p2
(lp3
(dp4
g1
I01
sS'type'
p5
I5
sS'name'
p6
S'__doc__'
p7
sa(dp8
g1
I01
sg5
I5
sg6
S'__name__'
p9
sa(dp10
g1
I01
sg5
I5
sg6
S'__package__'
p11
sa(dp12
g1
I01
sg5
I2
sg6
S'bench'
p13
sa(dp14
g1
I01
sg2
(lp15
(dp16
g1
I01
sg5
I5
sg6
S'__cmp__'
p17
sa(dp18
g1
I01
sg5
I2
sg6
S'__contains__'
p19
sa(dp20
g1
I01
sg5
I5
sg6
S'__delattr__'
p21
sa(dp22
g1
I01
sg5
I5
sg6
S'__delitem__'
p23
sa(dp24
g1
I01
sg5
I5
sg6
g7
sa(dp25
g1
I01
sg5
I5
sg6
S'__eq__'
p26
sa(dp27
g1
I01
sg5
I2
sg6
S'__format__'
p28
sa(dp29
g1
I01
sg5
I5
sg6
S'__ge__'
p30
sa(dp31
g1
I01
sg5
I5
sg6
S'__getattribute__'
p32
sa(dp33
g1
I01
sg5
I2
sg6
S'__getitem__'
p34
sa(dp35
g1
I01
sg5
I5
sg6
S'__gt__'
p36
sa(dp37
g1
I01
sg5
I5
sg6
S'__hash__'
p38
sa(dp39
g1
I01
sg5
I5
sg6
S'__init__'
p40
sa(dp41
g1
I01
sg5
I5
sg6
S'__iter__'
p42
sa(dp43
g1
I01
sg5
I5
sg6
S'__le__'
p44
sa(dp45
g1
I01
sg5
I5
sg6
S'__len__'
p46
sa(dp47
g1
I01
sg5
I5
sg6
S'__lt__'
p48
sa(dp49
g1
I01
sg5
I5
sg6
S'__ne__'
p50
sa(dp51
g1
I01
sg5
I2
sg6
S'__new__'
p52
sa(dp53
g1
I01
sg5
I2
sg6
S'__reduce__'
p54
sa(dp55
g1
I01
sg5
I2
sg6
S'__reduce_ex__'
p56
sa(dp57
g1
I01
sg5
I5
sg6
S'__repr__'
p58
sa(dp59
g1
I01
sg5
I5
sg6
S'__setattr__'
p60
sa(dp61
g1
I01
sg5
I5
sg6
S'__setitem__'
p62
sa(dp63
g1
I01
sg5
I2
sg6
S'__sizeof__'
p64
sa(dp65
g1
I01
sg5
I5
sg6
S'__str__'
p66
sa(dp67
g1
I01
sg5
I2
sg6
S'__subclasshook__'
p68
sa(dp69
g1
I01
sg5
I2
sg6
S'clear'
p70
sa(dp71
g1
I01
sg5
I2
sg6
S'copy'
p72
sa(dp73
g1
I01
sg5
I2
sg6
S'fromkeys'
p74
sa(dp75
g1
I01
sg5
I2
sg6
S'get'
p76
sa(dp77
g1
I01
sg5
I2
sg6
S'getstate'
p78
sa(dp79
g1
I01
sg5
I2
sg6
S'has_key'
p80
sa(dp81
g1
I01
sg5
I2
sg6
S'items'
p82
sa(dp83
g1
I01
sg5
I2
sg6
S'iteritems'
p84
sa(dp85
g1
I01
sg5
I2
sg6
S'iterkeys'
p86
sa(dp87
g1
I01
sg5
I2
sg6
S'itervalues'
p88
sa(dp89
g1
I01
sg5
I2
sg6
S'keys'
p90
sa(dp91
g1
I01
sg5
I2
sg6
S'pop'
p92
sa(dp93
g1
I01
sg5
I2
sg6
S'popitem'
p94
sa(dp95
g1
I01
sg5
I2
sg6
S'setdefault'
p96
sa(dp97
g1
I01
sg5
I2
sg6
S'setstate'
p98
sa(dp99
g1
I01
sg5
I5
sg6
S'state'
p100
sa(dp101
g1
I01
sg5
I2
sg6
S'update'
p102
sa(dp103
g1
I01
sg5
I2
sg6
S'values'
p104
sa(dp105
g1
I01
sg5
I2
sg6
S'viewitems'
p106
sa(dp107
g1
I01
sg5
I2
sg6
S'viewkeys'
p108
sa(dp109
g1
I01
sg5
I2
sg6
S'viewvalues'
p110
sasg5
I3
sg6
S'spamdict'
p111
sa(dp112
g1
I01
sg2
(lp113
(dp114
g1
I01
sg5
I5
sg6
S'__add__'
p115
sa(dp116
g1
I01
sg5
I5
sg6
g19
sa(dp117
g1
I01
sg5
I5
sg6
g21
sa(dp118
g1
I01
sg5
I5
sg6
g23
sa(dp119
g1
I01
sg5
I5
sg6
S'__delslice__'
p120
sa(dp121
g1
I01
sg5
I5
sg6
g7
sa(dp122
g1
I01
sg5
I5
sg6
g26
sa(dp123
g1
I01
sg5
I2
sg6
g28
sa(dp124
g1
I01
sg5
I5
sg6
g30
sa(dp125
g1
I01
sg5
I5
sg6
g32
sa(dp126
g1
I01
sg5
I2
sg6
g34
sa(dp127
g1
I01
sg5
I5
sg6
S'__getslice__'
p128
sa(dp129
g1
I01
sg5
I5
sg6
g36
sa(dp130
g1
I01
sg5
I5
sg6
g38
sa(dp131
g1
I01
sg5
I5
sg6
S'__iadd__'
p132
sa(dp133
g1
I01
sg5
I5
sg6
S'__imul__'
p134
sa(dp135
g1
I01
sg5
I5
sg6
g40
sa(dp136
g1
I01
sg5
I5
sg6
g42
sa(dp137
g1
I01
sg5
I5
sg6
g44
sa(dp138
g1
I01
sg5
I5
sg6
g46
sa(dp139
g1
I01
sg5
I5
sg6
g48
sa(dp140
g1
I01
sg5
I5
sg6
S'__mul__'
p141
sa(dp142
g1
I01
sg5
I5
sg6
g50
sa(dp143
g1
I01
sg5
I2
sg6
g52
sa(dp144
g1
I01
sg5
I2
sg6
g54
sa(dp145
g1
I01
sg5
I2
sg6
g56
sa(dp146
g1
I01
sg5
I5
sg6
g58
sa(dp147
g1
I01
sg5
I2
sg6
S'__reversed__'
p148
sa(dp149
g1
I01
sg5
I5
sg6
S'__rmul__'
p150
sa(dp151
g1
I01
sg5
I5
sg6
g60
sa(dp152
g1
I01
sg5
I5
sg6
g62
sa(dp153
g1
I01
sg5
I5
sg6
S'__setslice__'
p154
sa(dp155
g1
I01
sg5
I2
sg6
g64
sa(dp156
g1
I01
sg5
I5
sg6
g66
sa(dp157
g1
I01
sg5
I2
sg6
g68
sa(dp158
g1
I01
sg5
I2
sg6
S'append'
p159
sa(dp160
g1
I01
sg5
I2
sg6
S'classmeth'
p161
sa(dp162
g1
I01
sg5
I2
sg6
S'count'
p163
sa(dp164
g1
I01
sg5
I2
sg6
S'extend'
p165
sa(dp166
g1
I01
sg5
I2
sg6
g78
sa(dp167
g1
I01
sg5
I2
sg6
S'index'
p168
sa(dp169
g1
I01
sg5
I2
sg6
S'insert'
p170
sa(dp171
g1
I01
sg5
I2
sg6
g92
sa(dp172
g1
I01
sg5
I2
sg6
S'remove'
p173
sa(dp174
g1
I01
sg5
I2
sg6
S'reverse'
p175
sa(dp176
g1
I01
sg5
I2
sg6
g98
sa(dp177
g1
I01
sg5
I2
sg6
S'sort'
p178
sa(dp179
g1
I01
sg5
I5
sg6
g100
sa(dp180
g1
I01
sg5
I2
sg6
S'staticmeth'
p181
sasg5
I3
sg6
S'spamlist'
p182
sasg6
S'xxsubtype'
p183
s.