(dp0
S'is_builtin'
p1
I01
sS'childs'
p2
(lp3
(dp4
g1
I01
sg2
(lp5
(dp6
g1
I01
sS'type'
p7
I5
sS'name'
p8
S'__delattr__'
p9
sa(dp10
g1
I01
sg7
I5
sg8
S'__dict__'
p11
sa(dp12
g1
I01
sg7
I5
sg8
S'__doc__'
p13
sa(dp14
g1
I01
sg7
I2
sg8
S'__format__'
p15
sa(dp16
g1
I01
sg7
I5
sg8
S'__getattribute__'
p17
sa(dp18
g1
I01
sg7
I5
sg8
S'__getitem__'
p19
sa(dp20
g1
I01
sg7
I5
sg8
S'__getslice__'
p21
sa(dp22
g1
I01
sg7
I5
sg8
S'__hash__'
p23
sa(dp24
g1
I01
sg7
I5
sg8
S'__init__'
p25
sa(dp26
g1
I01
sg7
I5
sg8
S'__module__'
p27
sa(dp28
g1
I01
sg7
I2
sg8
S'__new__'
p29
sa(dp30
g1
I01
sg7
I2
sg8
S'__reduce__'
p31
sa(dp32
g1
I01
sg7
I2
sg8
S'__reduce_ex__'
p33
sa(dp34
g1
I01
sg7
I5
sg8
S'__repr__'
p35
sa(dp36
g1
I01
sg7
I5
sg8
S'__setattr__'
p37
sa(dp38
g1
I01
sg7
I2
sg8
S'__setstate__'
p39
sa(dp40
g1
I01
sg7
I2
sg8
S'__sizeof__'
p41
sa(dp42
g1
I01
sg7
I5
sg8
S'__str__'
p43
sa(dp44
g1
I01
sg7
I2
sg8
S'__subclasshook__'
p45
sa(dp46
g1
I01
sg7
I2
sg8
S'__unicode__'
p47
sa(dp48
g1
I01
sg7
I5
sg8
S'__weakref__'
p49
sa(dp50
g1
I01
sg7
I5
sg8
S'args'
p51
sa(dp52
g1
I01
sg7
I5
sg8
S'message'
p53
sasg7
I3
sg8
S'ZipImportError'
p54
sa(dp55
g1
I01
sg7
I5
sg8
g13
sa(dp56
g1
I01
sg7
I5
sg8
S'__name__'
p57
sa(dp58
g1
I01
sg7
I5
sg8
S'__package__'
p59
sa(dp60
g1
I01
sg7
I5
sg8
S'_zip_directory_cache'
p61
sa(dp62
g1
I01
sg2
(lp63
(dp64
g1
I01
sg7
I5
sg8
g9
sa(dp65
g1
I01
sg7
I5
sg8
g13
sa(dp66
g1
I01
sg7
I2
sg8
g15
sa(dp67
g1
I01
sg7
I5
sg8
g17
sa(dp68
g1
I01
sg7
I5
sg8
g23
sa(dp69
g1
I01
sg7
I5
sg8
g25
sa(dp70
g1
I01
sg7
I2
sg8
g29
sa(dp71
g1
I01
sg7
I2
sg8
g31
sa(dp72
g1
I01
sg7
I2
sg8
g33
sa(dp73
g1
I01
sg7
I5
sg8
g35
sa(dp74
g1
I01
sg7
I5
sg8
g37
sa(dp75
g1
I01
sg7
I2
sg8
g41
sa(dp76
g1
I01
sg7
I5
sg8
g43
sa(dp77
g1
I01
sg7
I2
sg8
g45
sa(dp78
g1
I01
sg7
I5
sg8
S'_files'
p79
sa(dp80
g1
I01
sg7
I5
sg8
S'archive'
p81
sa(dp82
g1
I01
sg7
I2
sg8
S'find_module'
p83
sa(dp84
g1
I01
sg7
I2
sg8
S'get_code'
p85
sa(dp86
g1
I01
sg7
I2
sg8
S'get_data'
p87
sa(dp88
g1
I01
sg7
I2
sg8
S'get_filename'
p89
sa(dp90
g1
I01
sg7
I2
sg8
S'get_source'
p91
sa(dp92
g1
I01
sg7
I2
sg8
S'is_package'
p93
sa(dp94
g1
I01
sg7
I2
sg8
S'load_module'
p95
sa(dp96
g1
I01
sg7
I5
sg8
S'prefix'
p97
sasg7
I3
sg8
S'zipimporter'
p98
sasg8
S'zipimport'
p99
s.