(dp0
S'is_builtin'
p1
I01
sS'childs'
p2
(lp3
(dp4
g1
I01
sS'type'
p5
I5
sS'name'
p6
S'DEFLATED'
p7
sa(dp8
g1
I01
sg5
I5
sg6
S'DEF_MEM_LEVEL'
p9
sa(dp10
g1
I01
sg5
I5
sg6
S'MAX_WBITS'
p11
sa(dp12
g1
I01
sg5
I5
sg6
S'ZLIB_VERSION'
p13
sa(dp14
g1
I01
sg5
I5
sg6
S'Z_BEST_COMPRESSION'
p15
sa(dp16
g1
I01
sg5
I5
sg6
S'Z_BEST_SPEED'
p17
sa(dp18
g1
I01
sg5
I5
sg6
S'Z_DEFAULT_COMPRESSION'
p19
sa(dp20
g1
I01
sg5
I5
sg6
S'Z_DEFAULT_STRATEGY'
p21
sa(dp22
g1
I01
sg5
I5
sg6
S'Z_FILTERED'
p23
sa(dp24
g1
I01
sg5
I5
sg6
S'Z_FINISH'
p25
sa(dp26
g1
I01
sg5
I5
sg6
S'Z_FULL_FLUSH'
p27
sa(dp28
g1
I01
sg5
I5
sg6
S'Z_HUFFMAN_ONLY'
p29
sa(dp30
g1
I01
sg5
I5
sg6
S'Z_NO_FLUSH'
p31
sa(dp32
g1
I01
sg5
I5
sg6
S'Z_SYNC_FLUSH'
p33
sa(dp34
g1
I01
sg5
I5
sg6
S'__doc__'
p35
sa(dp36
g1
I01
sg5
I5
sg6
S'__name__'
p37
sa(dp38
g1
I01
sg5
I5
sg6
S'__package__'
p39
sa(dp40
g1
I01
sg5
I5
sg6
S'__version__'
p41
sa(dp42
g1
I01
sg5
I2
sg6
S'adler32'
p43
sa(dp44
g1
I01
sg5
I2
sg6
S'compress'
p45
sa(dp46
g1
I01
sg5
I2
sg6
S'compressobj'
p47
sa(dp48
g1
I01
sg5
I2
sg6
S'crc32'
p49
sa(dp50
g1
I01
sg5
I2
sg6
S'decompress'
p51
sa(dp52
g1
I01
sg5
I2
sg6
S'decompressobj'
p53
sa(dp54
g1
I01
sg2
(lp55
(dp56
g1
I01
sg5
I5
sg6
S'__delattr__'
p57
sa(dp58
g1
I01
sg5
I5
sg6
S'__dict__'
p59
sa(dp60
g1
I01
sg5
I5
sg6
g35
sa(dp61
g1
I01
sg5
I2
sg6
S'__format__'
p62
sa(dp63
g1
I01
sg5
I5
sg6
S'__getattribute__'
p64
sa(dp65
g1
I01
sg5
I5
sg6
S'__getitem__'
p66
sa(dp67
g1
I01
sg5
I5
sg6
S'__getslice__'
p68
sa(dp69
g1
I01
sg5
I5
sg6
S'__hash__'
p70
sa(dp71
g1
I01
sg5
I5
sg6
S'__init__'
p72
sa(dp73
g1
I01
sg5
I5
sg6
S'__module__'
p74
sa(dp75
g1
I01
sg5
I2
sg6
S'__new__'
p76
sa(dp77
g1
I01
sg5
I2
sg6
S'__reduce__'
p78
sa(dp79
g1
I01
sg5
I2
sg6
S'__reduce_ex__'
p80
sa(dp81
g1
I01
sg5
I5
sg6
S'__repr__'
p82
sa(dp83
g1
I01
sg5
I5
sg6
S'__setattr__'
p84
sa(dp85
g1
I01
sg5
I2
sg6
S'__setstate__'
p86
sa(dp87
g1
I01
sg5
I2
sg6
S'__sizeof__'
p88
sa(dp89
g1
I01
sg5
I5
sg6
S'__str__'
p90
sa(dp91
g1
I01
sg5
I2
sg6
S'__subclasshook__'
p92
sa(dp93
g1
I01
sg5
I2
sg6
S'__unicode__'
p94
sa(dp95
g1
I01
sg5
I5
sg6
S'__weakref__'
p96
sa(dp97
g1
I01
sg5
I5
sg6
S'args'
p98
sa(dp99
g1
I01
sg5
I5
sg6
S'message'
p100
sasg5
I3
sg6
S'error'
p101
sasg6
S'zlib'
p102
s.