(dp0
Vchilds
p1
(lp2
(dp3
g1
(lp4
(dp5
Vis_builtin
p6
I01
sVname
p7
V__delattr__
p8
sVtype
p9
L5L
sa(dp10
g6
I01
sg7
V__dict__
p11
sg9
L5L
sa(dp12
g6
I01
sg7
V__dir__
p13
sg9
L2L
sVdoc
p14
V__dir__() -> list\u000adefault dir() implementation
p15
sa(dp16
g6
I01
sg7
V__doc__
p17
sg9
L5L
sa(dp18
g6
I01
sg7
V__eq__
p19
sg9
L5L
sa(dp20
g6
I01
sg7
V__format__
p21
sg9
L2L
sg14
Vdefault object formatter
p22
sa(dp23
g6
I01
sg7
V__ge__
p24
sg9
L5L
sa(dp25
g6
I01
sg7
V__getattribute__
p26
sg9
L5L
sa(dp27
g6
I01
sg7
V__gt__
p28
sg9
L5L
sa(dp29
g6
I01
sg7
V__hash__
p30
sg9
L5L
sa(dp31
g6
I01
sg7
V__init__
p32
sg9
L5L
sa(dp33
g6
I01
sg7
V__le__
p34
sg9
L5L
sa(dp35
g6
I01
sg7
V__lt__
p36
sg9
L5L
sa(dp37
g6
I01
sg7
V__ne__
p38
sg9
L5L
sa(dp39
g6
I01
sg7
V__new__
p40
sg9
L2L
sg14
VCreate and return a new object.  See help(type) for accurate signature.
p41
sa(dp42
g6
I01
sg7
V__reduce__
p43
sg9
L2L
sg14
Nsa(dp44
g6
I01
sg7
V__reduce_ex__
p45
sg9
L2L
sg14
Vhelper for pickle
p46
sa(dp47
g6
I01
sg7
V__repr__
p48
sg9
L5L
sa(dp49
g6
I01
sg7
V__setattr__
p50
sg9
L5L
sa(dp51
g6
I01
sg7
V__sizeof__
p52
sg9
L2L
sg14
V__sizeof__() -> int\u000asize of object in memory, in bytes
p53
sa(dp54
g6
I01
sg7
V__str__
p55
sg9
L5L
sa(dp56
g6
I01
sg7
V__subclasshook__
p57
sg9
L2L
sg14
VAbstract classes can override this to customize issubclass().\u000a\u000aThis is invoked early on by abc.ABCMeta.__subclasscheck__().\u000aIt should return True, False or NotImplemented.  If it returns\u000aNotImplemented, the normal algorithm is used.  Otherwise, it\u000aoverrides the normal algorithm (and the outcome is cached).\u000a
p58
sa(dp59
g6
I01
sg7
V_attributes
p60
sg9
L5L
sa(dp61
g6
I01
sg7
V_fields
p62
sg9
L5L
sasg6
I01
sg7
VAST
p63
sg9
L3L
sg14
Nsa(dp64
g1
(lp65
(dp66
g6
I01
sg7
g8
sg9
L5L
sa(dp67
g6
I01
sg7
g11
sg9
L5L
sa(dp68
g6
I01
sg7
g13
sg9
L2L
sg14
V__dir__() -> list\u000adefault dir() implementation
p69
sa(dp70
g6
I01
sg7
g17
sg9
L5L
sa(dp71
g6
I01
sg7
g19
sg9
L5L
sa(dp72
g6
I01
sg7
g21
sg9
L2L
sg14
Vdefault object formatter
p73
sa(dp74
g6
I01
sg7
g24
sg9
L5L
sa(dp75
g6
I01
sg7
g26
sg9
L5L
sa(dp76
g6
I01
sg7
g28
sg9
L5L
sa(dp77
g6
I01
sg7
g30
sg9
L5L
sa(dp78
g6
I01
sg7
g32
sg9
L5L
sa(dp79
g6
I01
sg7
g34
sg9
L5L
sa(dp80
g6
I01
sg7
g36
sg9
L5L
sa(dp81
g6
I01
sg7
V__module__
p82
sg9
L5L
sa(dp83
g6
I01
sg7
g38
sg9
L5L
sa(dp84
g6
I01
sg7
g40
sg9
L2L
sg14
VCreate and return a new object.  See help(type) for accurate signature.
p85
sa(dp86
g6
I01
sg7
g43
sg9
L2L
sg14
Nsa(dp87
g6
I01
sg7
g45
sg9
L2L
sg14
Vhelper for pickle
p88
sa(dp89
g6
I01
sg7
g48
sg9
L5L
sa(dp90
g6
I01
sg7
g50
sg9
L5L
sa(dp91
g6
I01
sg7
g52
sg9
L2L
sg14
V__sizeof__() -> int\u000asize of object in memory, in bytes
p92
sa(dp93
g6
I01
sg7
g55
sg9
L5L
sa(dp94
g6
I01
sg7
g57
sg9
L2L
sg14
VAbstract classes can override this to customize issubclass().\u000a\u000aThis is invoked early on by abc.ABCMeta.__subclasscheck__().\u000aIt should return True, False or NotImplemented.  If it returns\u000aNotImplemented, the normal algorithm is used.  Otherwise, it\u000aoverrides the normal algorithm (and the outcome is cached).\u000a
p95
sa(dp96
g6
I01
sg7
V__weakref__
p97
sg9
L5L
sa(dp98
g6
I01
sg7
g60
sg9
L5L
sa(dp99
g6
I01
sg7
V_fields
p100
sg9
L5L
sasg6
I01
sg7
VAdd
p101
sg9
L3L
sg14
Nsa(dp102
g1
(lp103
(dp104
g6
I01
sg7
g8
sg9
L5L
sa(dp105
g6
I01
sg7
g11
sg9
L5L
sa(dp106
g6
I01
sg7
g13
sg9
L2L
sg14
V__dir__() -> list\u000adefault dir() implementation
p107
sa(dp108
g6
I01
sg7
g17
sg9
L5L
sa(dp109
g6
I01
sg7
g19
sg9
L5L
sa(dp110
g6
I01
sg7
g21
sg9
L2L
sg14
Vdefault object formatter
p111
sa(dp112
g6
I01
sg7
g24
sg9
L5L
sa(dp113
g6
I01
sg7
g26
sg9
L5L
sa(dp114
g6
I01
sg7
g28
sg9
L5L
sa(dp115
g6
I01
sg7
g30
sg9
L5L
sa(dp116
g6
I01
sg7
g32
sg9
L5L
sa(dp117
g6
I01
sg7
g34
sg9
L5L
sa(dp118
g6
I01
sg7
g36
sg9
L5L
sa(dp119
g6
I01
sg7
V__module__
p120
sg9
L5L
sa(dp121
g6
I01
sg7
g38
sg9
L5L
sa(dp122
g6
I01
sg7
g40
sg9
L2L
sg14
VCreate and return a new object.  See help(type) for accurate signature.
p123
sa(dp124
g6
I01
sg7
g43
sg9
L2L
sg14
Nsa(dp125
g6
I01
sg7
g45
sg9
L2L
sg14
Vhelper for pickle
p126
sa(dp127
g6
I01
sg7
g48
sg9
L5L
sa(dp128
g6
I01
sg7
g50
sg9
L5L
sa(dp129
g6
I01
sg7
g52
sg9
L2L
sg14
V__sizeof__() -> int\u000asize of object in memory, in bytes
p130
sa(dp131
g6
I01
sg7
g55
sg9
L5L
sa(dp132
g6
I01
sg7
g57
sg9
L2L
sg14
VAbstract classes can override this to customize issubclass().\u000a\u000aThis is invoked early on by abc.ABCMeta.__subclasscheck__().\u000aIt should return True, False or NotImplemented.  If it returns\u000aNotImplemented, the normal algorithm is used.  Otherwise, it\u000aoverrides the normal algorithm (and the outcome is cached).\u000a
p133
sa(dp134
g6
I01
sg7
g97
sg9
L5L
sa(dp135
g6
I01
sg7
g60
sg9
L5L
sa(dp136
g6
I01
sg7
V_fields
p137
sg9
L5L
sasg6
I01
sg7
VAnd
p138
sg9
L3L
sg14
Nsa(dp139
g1
(lp140
(dp141
g6
I01
sg7
g8
sg9
L5L
sa(dp142
g6
I01
sg7
g11
sg9
L5L
sa(dp143
g6
I01
sg7
g13
sg9
L2L
sg14
V__dir__() -> list\u000adefault dir() implementation
p144
sa(dp145
g6
I01
sg7
g17
sg9
L5L
sa(dp146
g6
I01
sg7
g19
sg9
L5L
sa(dp147
g6
I01
sg7
g21
sg9
L2L
sg14
Vdefault object formatter
p148
sa(dp149
g6
I01
sg7
g24
sg9
L5L
sa(dp150
g6
I01
sg7
g26
sg9
L5L
sa(dp151
g6
I01
sg7
g28
sg9
L5L
sa(dp152
g6
I01
sg7
g30
sg9
L5L
sa(dp153
g6
I01
sg7
g32
sg9
L5L
sa(dp154
g6
I01
sg7
g34
sg9
L5L
sa(dp155
g6
I01
sg7
g36
sg9
L5L
sa(dp156
g6
I01
sg7
V__module__
p157
sg9
L5L
sa(dp158
g6
I01
sg7
g38
sg9
L5L
sa(dp159
g6
I01
sg7
g40
sg9
L2L
sg14
VCreate and return a new object.  See help(type) for accurate signature.
p160
sa(dp161
g6
I01
sg7
g43
sg9
L2L
sg14
Nsa(dp162
g6
I01
sg7
g45
sg9
L2L
sg14
Vhelper for pickle
p163
sa(dp164
g6
I01
sg7
g48
sg9
L5L
sa(dp165
g6
I01
sg7
g50
sg9
L5L
sa(dp166
g6
I01
sg7
g52
sg9
L2L
sg14
V__sizeof__() -> int\u000asize of object in memory, in bytes
p167
sa(dp168
g6
I01
sg7
g55
sg9
L5L
sa(dp169
g6
I01
sg7
g57
sg9
L2L
sg14
VAbstract classes can override this to customize issubclass().\u000a\u000aThis is invoked early on by abc.ABCMeta.__subclasscheck__().\u000aIt should return True, False or NotImplemented.  If it returns\u000aNotImplemented, the normal algorithm is used.  Otherwise, it\u000aoverrides the normal algorithm (and the outcome is cached).\u000a
p170
sa(dp171
g6
I01
sg7
g97
sg9
L5L
sa(dp172
g6
I01
sg7
g60
sg9
L5L
sa(dp173
g6
I01
sg7
V_fields
p174
sg9
L5L
sasg6
I01
sg7
VAssert
p175
sg9
L3L
sg14
Nsa(dp176
g1
(lp177
(dp178
g6
I01
sg7
g8
sg9
L5L
sa(dp179
g6
I01
sg7
g11
sg9
L5L
sa(dp180
g6
I01
sg7
g13
sg9
L2L
sg14
V__dir__() -> list\u000adefault dir() implementation
p181
sa(dp182
g6
I01
sg7
g17
sg9
L5L
sa(dp183
g6
I01
sg7
g19
sg9
L5L
sa(dp184
g6
I01
sg7
g21
sg9
L2L
sg14
Vdefault object formatter
p185
sa(dp186
g6
I01
sg7
g24
sg9
L5L
sa(dp187
g6
I01
sg7
g26
sg9
L5L
sa(dp188
g6
I01
sg7
g28
sg9
L5L
sa(dp189
g6
I01
sg7
g30
sg9
L5L
sa(dp190
g6
I01
sg7
g32
sg9
L5L
sa(dp191
g6
I01
sg7
g34
sg9
L5L
sa(dp192
g6
I01
sg7
g36
sg9
L5L
sa(dp193
g6
I01
sg7
V__module__
p194
sg9
L5L
sa(dp195
g6
I01
sg7
g38
sg9
L5L
sa(dp196
g6
I01
sg7
g40
sg9
L2L
sg14
VCreate and return a new object.  See help(type) for accurate signature.
p197
sa(dp198
g6
I01
sg7
g43
sg9
L2L
sg14
Nsa(dp199
g6
I01
sg7
g45
sg9
L2L
sg14
Vhelper for pickle
p200
sa(dp201
g6
I01
sg7
g48
sg9
L5L
sa(dp202
g6
I01
sg7
g50
sg9
L5L
sa(dp203
g6
I01
sg7
g52
sg9
L2L
sg14
V__sizeof__() -> int\u000asize of object in memory, in bytes
p204
sa(dp205
g6
I01
sg7
g55
sg9
L5L
sa(dp206
g6
I01
sg7
g57
sg9
L2L
sg14
VAbstract classes can override this to customize issubclass().\u000a\u000aThis is invoked early on by abc.ABCMeta.__subclasscheck__().\u000aIt should return True, False or NotImplemented.  If it returns\u000aNotImplemented, the normal algorithm is used.  Otherwise, it\u000aoverrides the normal algorithm (and the outcome is cached).\u000a
p207
sa(dp208
g6
I01
sg7
g97
sg9
L5L
sa(dp209
g6
I01
sg7
g60
sg9
L5L
sa(dp210
g6
I01
sg7
V_fields
p211
sg9
L5L
sasg6
I01
sg7
VAssign
p212
sg9
L3L
sg14
Nsa(dp213
g1
(lp214
(dp215
g6
I01
sg7
g8
sg9
L5L
sa(dp216
g6
I01
sg7
g11
sg9
L5L
sa(dp217
g6
I01
sg7
g13
sg9
L2L
sg14
V__dir__() -> list\u000adefault dir() implementation
p218
sa(dp219
g6
I01
sg7
g17
sg9
L5L
sa(dp220
g6
I01
sg7
g19
sg9
L5L
sa(dp221
g6
I01
sg7
g21
sg9
L2L
sg14
Vdefault object formatter
p222
sa(dp223
g6
I01
sg7
g24
sg9
L5L
sa(dp224
g6
I01
sg7
g26
sg9
L5L
sa(dp225
g6
I01
sg7
g28
sg9
L5L
sa(dp226
g6
I01
sg7
g30
sg9
L5L
sa(dp227
g6
I01
sg7
g32
sg9
L5L
sa(dp228
g6
I01
sg7
g34
sg9
L5L
sa(dp229
g6
I01
sg7
g36
sg9
L5L
sa(dp230
g6
I01
sg7
V__module__
p231
sg9
L5L
sa(dp232
g6
I01
sg7
g38
sg9
L5L
sa(dp233
g6
I01
sg7
g40
sg9
L2L
sg14
VCreate and return a new object.  See help(type) for accurate signature.
p234
sa(dp235
g6
I01
sg7
g43
sg9
L2L
sg14
Nsa(dp236
g6
I01
sg7
g45
sg9
L2L
sg14
Vhelper for pickle
p237
sa(dp238
g6
I01
sg7
g48
sg9
L5L
sa(dp239
g6
I01
sg7
g50
sg9
L5L
sa(dp240
g6
I01
sg7
g52
sg9
L2L
sg14
V__sizeof__() -> int\u000asize of object in memory, in bytes
p241
sa(dp242
g6
I01
sg7
g55
sg9
L5L
sa(dp243
g6
I01
sg7
g57
sg9
L2L
sg14
VAbstract classes can override this to customize issubclass().\u000a\u000aThis is invoked early on by abc.ABCMeta.__subclasscheck__().\u000aIt should return True, False or NotImplemented.  If it returns\u000aNotImplemented, the normal algorithm is used.  Otherwise, it\u000aoverrides the normal algorithm (and the outcome is cached).\u000a
p244
sa(dp245
g6
I01
sg7
g97
sg9
L5L
sa(dp246
g6
I01
sg7
g60
sg9
L5L
sa(dp247
g6
I01
sg7
V_fields
p248
sg9
L5L
sasg6
I01
sg7
VAsyncFor
p249
sg9
L3L
sg14
Nsa(dp250
g1
(lp251
(dp252
g6
I01
sg7
g8
sg9
L5L
sa(dp253
g6
I01
sg7
g11
sg9
L5L
sa(dp254
g6
I01
sg7
g13
sg9
L2L
sg14
V__dir__() -> list\u000adefault dir() implementation
p255
sa(dp256
g6
I01
sg7
g17
sg9
L5L
sa(dp257
g6
I01
sg7
g19
sg9
L5L
sa(dp258
g6
I01
sg7
g21
sg9
L2L
sg14
Vdefault object formatter
p259
sa(dp260
g6
I01
sg7
g24
sg9
L5L
sa(dp261
g6
I01
sg7
g26
sg9
L5L
sa(dp262
g6
I01
sg7
g28
sg9
L5L
sa(dp263
g6
I01
sg7
g30
sg9
L5L
sa(dp264
g6
I01
sg7
g32
sg9
L5L
sa(dp265
g6
I01
sg7
g34
sg9
L5L
sa(dp266
g6
I01
sg7
g36
sg9
L5L
sa(dp267
g6
I01
sg7
V__module__
p268
sg9
L5L
sa(dp269
g6
I01
sg7
g38
sg9
L5L
sa(dp270
g6
I01
sg7
g40
sg9
L2L
sg14
VCreate and return a new object.  See help(type) for accurate signature.
p271
sa(dp272
g6
I01
sg7
g43
sg9
L2L
sg14
Nsa(dp273
g6
I01
sg7
g45
sg9
L2L
sg14
Vhelper for pickle
p274
sa(dp275
g6
I01
sg7
g48
sg9
L5L
sa(dp276
g6
I01
sg7
g50
sg9
L5L
sa(dp277
g6
I01
sg7
g52
sg9
L2L
sg14
V__sizeof__() -> int\u000asize of object in memory, in bytes
p278
sa(dp279
g6
I01
sg7
g55
sg9
L5L
sa(dp280
g6
I01
sg7
g57
sg9
L2L
sg14
VAbstract classes can override this to customize issubclass().\u000a\u000aThis is invoked early on by abc.ABCMeta.__subclasscheck__().\u000aIt should return True, False or NotImplemented.  If it returns\u000aNotImplemented, the normal algorithm is used.  Otherwise, it\u000aoverrides the normal algorithm (and the outcome is cached).\u000a
p281
sa(dp282
g6
I01
sg7
g97
sg9
L5L
sa(dp283
g6
I01
sg7
g60
sg9
L5L
sa(dp284
g6
I01
sg7
V_fields
p285
sg9
L5L
sasg6
I01
sg7
VAsyncFunctionDef
p286
sg9
L3L
sg14
Nsa(dp287
g1
(lp288
(dp289
g6
I01
sg7
g8
sg9
L5L
sa(dp290
g6
I01
sg7
g11
sg9
L5L
sa(dp291
g6
I01
sg7
g13
sg9
L2L
sg14
V__dir__() -> list\u000adefault dir() implementation
p292
sa(dp293
g6
I01
sg7
g17
sg9
L5L
sa(dp294
g6
I01
sg7
g19
sg9
L5L
sa(dp295
g6
I01
sg7
g21
sg9
L2L
sg14
Vdefault object formatter
p296
sa(dp297
g6
I01
sg7
g24
sg9
L5L
sa(dp298
g6
I01
sg7
g26
sg9
L5L
sa(dp299
g6
I01
sg7
g28
sg9
L5L
sa(dp300
g6
I01
sg7
g30
sg9
L5L
sa(dp301
g6
I01
sg7
g32
sg9
L5L
sa(dp302
g6
I01
sg7
g34
sg9
L5L
sa(dp303
g6
I01
sg7
g36
sg9
L5L
sa(dp304
g6
I01
sg7
V__module__
p305
sg9
L5L
sa(dp306
g6
I01
sg7
g38
sg9
L5L
sa(dp307
g6
I01
sg7
g40
sg9
L2L
sg14
VCreate and return a new object.  See help(type) for accurate signature.
p308
sa(dp309
g6
I01
sg7
g43
sg9
L2L
sg14
Nsa(dp310
g6
I01
sg7
g45
sg9
L2L
sg14
Vhelper for pickle
p311
sa(dp312
g6
I01
sg7
g48
sg9
L5L
sa(dp313
g6
I01
sg7
g50
sg9
L5L
sa(dp314
g6
I01
sg7
g52
sg9
L2L
sg14
V__sizeof__() -> int\u000asize of object in memory, in bytes
p315
sa(dp316
g6
I01
sg7
g55
sg9
L5L
sa(dp317
g6
I01
sg7
g57
sg9
L2L
sg14
VAbstract classes can override this to customize issubclass().\u000a\u000aThis is invoked early on by abc.ABCMeta.__subclasscheck__().\u000aIt should return True, False or NotImplemented.  If it returns\u000aNotImplemented, the normal algorithm is used.  Otherwise, it\u000aoverrides the normal algorithm (and the outcome is cached).\u000a
p318
sa(dp319
g6
I01
sg7
g97
sg9
L5L
sa(dp320
g6
I01
sg7
g60
sg9
L5L
sa(dp321
g6
I01
sg7
V_fields
p322
sg9
L5L
sasg6
I01
sg7
VAsyncWith
p323
sg9
L3L
sg14
Nsa(dp324
g1
(lp325
(dp326
g6
I01
sg7
g8
sg9
L5L
sa(dp327
g6
I01
sg7
g11
sg9
L5L
sa(dp328
g6
I01
sg7
g13
sg9
L2L
sg14
V__dir__() -> list\u000adefault dir() implementation
p329
sa(dp330
g6
I01
sg7
g17
sg9
L5L
sa(dp331
g6
I01
sg7
g19
sg9
L5L
sa(dp332
g6
I01
sg7
g21
sg9
L2L
sg14
Vdefault object formatter
p333
sa(dp334
g6
I01
sg7
g24
sg9
L5L
sa(dp335
g6
I01
sg7
g26
sg9
L5L
sa(dp336
g6
I01
sg7
g28
sg9
L5L
sa(dp337
g6
I01
sg7
g30
sg9
L5L
sa(dp338
g6
I01
sg7
g32
sg9
L5L
sa(dp339
g6
I01
sg7
g34
sg9
L5L
sa(dp340
g6
I01
sg7
g36
sg9
L5L
sa(dp341
g6
I01
sg7
V__module__
p342
sg9
L5L
sa(dp343
g6
I01
sg7
g38
sg9
L5L
sa(dp344
g6
I01
sg7
g40
sg9
L2L
sg14
VCreate and return a new object.  See help(type) for accurate signature.
p345
sa(dp346
g6
I01
sg7
g43
sg9
L2L
sg14
Nsa(dp347
g6
I01
sg7
g45
sg9
L2L
sg14
Vhelper for pickle
p348
sa(dp349
g6
I01
sg7
g48
sg9
L5L
sa(dp350
g6
I01
sg7
g50
sg9
L5L
sa(dp351
g6
I01
sg7
g52
sg9
L2L
sg14
V__sizeof__() -> int\u000asize of object in memory, in bytes
p352
sa(dp353
g6
I01
sg7
g55
sg9
L5L
sa(dp354
g6
I01
sg7
g57
sg9
L2L
sg14
VAbstract classes can override this to customize issubclass().\u000a\u000aThis is invoked early on by abc.ABCMeta.__subclasscheck__().\u000aIt should return True, False or NotImplemented.  If it returns\u000aNotImplemented, the normal algorithm is used.  Otherwise, it\u000aoverrides the normal algorithm (and the outcome is cached).\u000a
p355
sa(dp356
g6
I01
sg7
g97
sg9
L5L
sa(dp357
g6
I01
sg7
g60
sg9
L5L
sa(dp358
g6
I01
sg7
V_fields
p359
sg9
L5L
sasg6
I01
sg7
VAttribute
p360
sg9
L3L
sg14
Nsa(dp361
g1
(lp362
(dp363
g6
I01
sg7
g8
sg9
L5L
sa(dp364
g6
I01
sg7
g11
sg9
L5L
sa(dp365
g6
I01
sg7
g13
sg9
L2L
sg14
V__dir__() -> list\u000adefault dir() implementation
p366
sa(dp367
g6
I01
sg7
g17
sg9
L5L
sa(dp368
g6
I01
sg7
g19
sg9
L5L
sa(dp369
g6
I01
sg7
g21
sg9
L2L
sg14
Vdefault object formatter
p370
sa(dp371
g6
I01
sg7
g24
sg9
L5L
sa(dp372
g6
I01
sg7
g26
sg9
L5L
sa(dp373
g6
I01
sg7
g28
sg9
L5L
sa(dp374
g6
I01
sg7
g30
sg9
L5L
sa(dp375
g6
I01
sg7
g32
sg9
L5L
sa(dp376
g6
I01
sg7
g34
sg9
L5L
sa(dp377
g6
I01
sg7
g36
sg9
L5L
sa(dp378
g6
I01
sg7
V__module__
p379
sg9
L5L
sa(dp380
g6
I01
sg7
g38
sg9
L5L
sa(dp381
g6
I01
sg7
g40
sg9
L2L
sg14
VCreate and return a new object.  See help(type) for accurate signature.
p382
sa(dp383
g6
I01
sg7
g43
sg9
L2L
sg14
Nsa(dp384
g6
I01
sg7
g45
sg9
L2L
sg14
Vhelper for pickle
p385
sa(dp386
g6
I01
sg7
g48
sg9
L5L
sa(dp387
g6
I01
sg7
g50
sg9
L5L
sa(dp388
g6
I01
sg7
g52
sg9
L2L
sg14
V__sizeof__() -> int\u000asize of object in memory, in bytes
p389
sa(dp390
g6
I01
sg7
g55
sg9
L5L
sa(dp391
g6
I01
sg7
g57
sg9
L2L
sg14
VAbstract classes can override this to customize issubclass().\u000a\u000aThis is invoked early on by abc.ABCMeta.__subclasscheck__().\u000aIt should return True, False or NotImplemented.  If it returns\u000aNotImplemented, the normal algorithm is used.  Otherwise, it\u000aoverrides the normal algorithm (and the outcome is cached).\u000a
p392
sa(dp393
g6
I01
sg7
g97
sg9
L5L
sa(dp394
g6
I01
sg7
g60
sg9
L5L
sa(dp395
g6
I01
sg7
V_fields
p396
sg9
L5L
sasg6
I01
sg7
VAugAssign
p397
sg9
L3L
sg14
Nsa(dp398
g1
(lp399
(dp400
g6
I01
sg7
g8
sg9
L5L
sa(dp401
g6
I01
sg7
g11
sg9
L5L
sa(dp402
g6
I01
sg7
g13
sg9
L2L
sg14
V__dir__() -> list\u000adefault dir() implementation
p403
sa(dp404
g6
I01
sg7
g17
sg9
L5L
sa(dp405
g6
I01
sg7
g19
sg9
L5L
sa(dp406
g6
I01
sg7
g21
sg9
L2L
sg14
Vdefault object formatter
p407
sa(dp408
g6
I01
sg7
g24
sg9
L5L
sa(dp409
g6
I01
sg7
g26
sg9
L5L
sa(dp410
g6
I01
sg7
g28
sg9
L5L
sa(dp411
g6
I01
sg7
g30
sg9
L5L
sa(dp412
g6
I01
sg7
g32
sg9
L5L
sa(dp413
g6
I01
sg7
g34
sg9
L5L
sa(dp414
g6
I01
sg7
g36
sg9
L5L
sa(dp415
g6
I01
sg7
V__module__
p416
sg9
L5L
sa(dp417
g6
I01
sg7
g38
sg9
L5L
sa(dp418
g6
I01
sg7
g40
sg9
L2L
sg14
VCreate and return a new object.  See help(type) for accurate signature.
p419
sa(dp420
g6
I01
sg7
g43
sg9
L2L
sg14
Nsa(dp421
g6
I01
sg7
g45
sg9
L2L
sg14
Vhelper for pickle
p422
sa(dp423
g6
I01
sg7
g48
sg9
L5L
sa(dp424
g6
I01
sg7
g50
sg9
L5L
sa(dp425
g6
I01
sg7
g52
sg9
L2L
sg14
V__sizeof__() -> int\u000asize of object in memory, in bytes
p426
sa(dp427
g6
I01
sg7
g55
sg9
L5L
sa(dp428
g6
I01
sg7
g57
sg9
L2L
sg14
VAbstract classes can override this to customize issubclass().\u000a\u000aThis is invoked early on by abc.ABCMeta.__subclasscheck__().\u000aIt should return True, False or NotImplemented.  If it returns\u000aNotImplemented, the normal algorithm is used.  Otherwise, it\u000aoverrides the normal algorithm (and the outcome is cached).\u000a
p429
sa(dp430
g6
I01
sg7
g97
sg9
L5L
sa(dp431
g6
I01
sg7
g60
sg9
L5L
sa(dp432
g6
I01
sg7
V_fields
p433
sg9
L5L
sasg6
I01
sg7
VAugLoad
p434
sg9
L3L
sg14
Nsa(dp435
g1
(lp436
(dp437
g6
I01
sg7
g8
sg9
L5L
sa(dp438
g6
I01
sg7
g11
sg9
L5L
sa(dp439
g6
I01
sg7
g13
sg9
L2L
sg14
V__dir__() -> list\u000adefault dir() implementation
p440
sa(dp441
g6
I01
sg7
g17
sg9
L5L
sa(dp442
g6
I01
sg7
g19
sg9
L5L
sa(dp443
g6
I01
sg7
g21
sg9
L2L
sg14
Vdefault object formatter
p444
sa(dp445
g6
I01
sg7
g24
sg9
L5L
sa(dp446
g6
I01
sg7
g26
sg9
L5L
sa(dp447
g6
I01
sg7
g28
sg9
L5L
sa(dp448
g6
I01
sg7
g30
sg9
L5L
sa(dp449
g6
I01
sg7
g32
sg9
L5L
sa(dp450
g6
I01
sg7
g34
sg9
L5L
sa(dp451
g6
I01
sg7
g36
sg9
L5L
sa(dp452
g6
I01
sg7
V__module__
p453
sg9
L5L
sa(dp454
g6
I01
sg7
g38
sg9
L5L
sa(dp455
g6
I01
sg7
g40
sg9
L2L
sg14
VCreate and return a new object.  See help(type) for accurate signature.
p456
sa(dp457
g6
I01
sg7
g43
sg9
L2L
sg14
Nsa(dp458
g6
I01
sg7
g45
sg9
L2L
sg14
Vhelper for pickle
p459
sa(dp460
g6
I01
sg7
g48
sg9
L5L
sa(dp461
g6
I01
sg7
g50
sg9
L5L
sa(dp462
g6
I01
sg7
g52
sg9
L2L
sg14
V__sizeof__() -> int\u000asize of object in memory, in bytes
p463
sa(dp464
g6
I01
sg7
g55
sg9
L5L
sa(dp465
g6
I01
sg7
g57
sg9
L2L
sg14
VAbstract classes can override this to customize issubclass().\u000a\u000aThis is invoked early on by abc.ABCMeta.__subclasscheck__().\u000aIt should return True, False or NotImplemented.  If it returns\u000aNotImplemented, the normal algorithm is used.  Otherwise, it\u000aoverrides the normal algorithm (and the outcome is cached).\u000a
p466
sa(dp467
g6
I01
sg7
g97
sg9
L5L
sa(dp468
g6
I01
sg7
g60
sg9
L5L
sa(dp469
g6
I01
sg7
V_fields
p470
sg9
L5L
sasg6
I01
sg7
VAugStore
p471
sg9
L3L
sg14
Nsa(dp472
g1
(lp473
(dp474
g6
I01
sg7
g8
sg9
L5L
sa(dp475
g6
I01
sg7
g11
sg9
L5L
sa(dp476
g6
I01
sg7
g13
sg9
L2L
sg14
V__dir__() -> list\u000adefault dir() implementation
p477
sa(dp478
g6
I01
sg7
g17
sg9
L5L
sa(dp479
g6
I01
sg7
g19
sg9
L5L
sa(dp480
g6
I01
sg7
g21
sg9
L2L
sg14
Vdefault object formatter
p481
sa(dp482
g6
I01
sg7
g24
sg9
L5L
sa(dp483
g6
I01
sg7
g26
sg9
L5L
sa(dp484
g6
I01
sg7
g28
sg9
L5L
sa(dp485
g6
I01
sg7
g30
sg9
L5L
sa(dp486
g6
I01
sg7
g32
sg9
L5L
sa(dp487
g6
I01
sg7
g34
sg9
L5L
sa(dp488
g6
I01
sg7
g36
sg9
L5L
sa(dp489
g6
I01
sg7
V__module__
p490
sg9
L5L
sa(dp491
g6
I01
sg7
g38
sg9
L5L
sa(dp492
g6
I01
sg7
g40
sg9
L2L
sg14
VCreate and return a new object.  See help(type) for accurate signature.
p493
sa(dp494
g6
I01
sg7
g43
sg9
L2L
sg14
Nsa(dp495
g6
I01
sg7
g45
sg9
L2L
sg14
Vhelper for pickle
p496
sa(dp497
g6
I01
sg7
g48
sg9
L5L
sa(dp498
g6
I01
sg7
g50
sg9
L5L
sa(dp499
g6
I01
sg7
g52
sg9
L2L
sg14
V__sizeof__() -> int\u000asize of object in memory, in bytes
p500
sa(dp501
g6
I01
sg7
g55
sg9
L5L
sa(dp502
g6
I01
sg7
g57
sg9
L2L
sg14
VAbstract classes can override this to customize issubclass().\u000a\u000aThis is invoked early on by abc.ABCMeta.__subclasscheck__().\u000aIt should return True, False or NotImplemented.  If it returns\u000aNotImplemented, the normal algorithm is used.  Otherwise, it\u000aoverrides the normal algorithm (and the outcome is cached).\u000a
p503
sa(dp504
g6
I01
sg7
g97
sg9
L5L
sa(dp505
g6
I01
sg7
g60
sg9
L5L
sa(dp506
g6
I01
sg7
V_fields
p507
sg9
L5L
sasg6
I01
sg7
VAwait
p508
sg9
L3L
sg14
Nsa(dp509
g1
(lp510
(dp511
g6
I01
sg7
g8
sg9
L5L
sa(dp512
g6
I01
sg7
g11
sg9
L5L
sa(dp513
g6
I01
sg7
g13
sg9
L2L
sg14
V__dir__() -> list\u000adefault dir() implementation
p514
sa(dp515
g6
I01
sg7
g17
sg9
L5L
sa(dp516
g6
I01
sg7
g19
sg9
L5L
sa(dp517
g6
I01
sg7
g21
sg9
L2L
sg14
Vdefault object formatter
p518
sa(dp519
g6
I01
sg7
g24
sg9
L5L
sa(dp520
g6
I01
sg7
g26
sg9
L5L
sa(dp521
g6
I01
sg7
g28
sg9
L5L
sa(dp522
g6
I01
sg7
g30
sg9
L5L
sa(dp523
g6
I01
sg7
g32
sg9
L5L
sa(dp524
g6
I01
sg7
g34
sg9
L5L
sa(dp525
g6
I01
sg7
g36
sg9
L5L
sa(dp526
g6
I01
sg7
V__module__
p527
sg9
L5L
sa(dp528
g6
I01
sg7
g38
sg9
L5L
sa(dp529
g6
I01
sg7
g40
sg9
L2L
sg14
VCreate and return a new object.  See help(type) for accurate signature.
p530
sa(dp531
g6
I01
sg7
g43
sg9
L2L
sg14
Nsa(dp532
g6
I01
sg7
g45
sg9
L2L
sg14
Vhelper for pickle
p533
sa(dp534
g6
I01
sg7
g48
sg9
L5L
sa(dp535
g6
I01
sg7
g50
sg9
L5L
sa(dp536
g6
I01
sg7
g52
sg9
L2L
sg14
V__sizeof__() -> int\u000asize of object in memory, in bytes
p537
sa(dp538
g6
I01
sg7
g55
sg9
L5L
sa(dp539
g6
I01
sg7
g57
sg9
L2L
sg14
VAbstract classes can override this to customize issubclass().\u000a\u000aThis is invoked early on by abc.ABCMeta.__subclasscheck__().\u000aIt should return True, False or NotImplemented.  If it returns\u000aNotImplemented, the normal algorithm is used.  Otherwise, it\u000aoverrides the normal algorithm (and the outcome is cached).\u000a
p540
sa(dp541
g6
I01
sg7
g97
sg9
L5L
sa(dp542
g6
I01
sg7
g60
sg9
L5L
sa(dp543
g6
I01
sg7
V_fields
p544
sg9
L5L
sasg6
I01
sg7
VBinOp
p545
sg9
L3L
sg14
Nsa(dp546
g1
(lp547
(dp548
g6
I01
sg7
g8
sg9
L5L
sa(dp549
g6
I01
sg7
g11
sg9
L5L
sa(dp550
g6
I01
sg7
g13
sg9
L2L
sg14
V__dir__() -> list\u000adefault dir() implementation
p551
sa(dp552
g6
I01
sg7
g17
sg9
L5L
sa(dp553
g6
I01
sg7
g19
sg9
L5L
sa(dp554
g6
I01
sg7
g21
sg9
L2L
sg14
Vdefault object formatter
p555
sa(dp556
g6
I01
sg7
g24
sg9
L5L
sa(dp557
g6
I01
sg7
g26
sg9
L5L
sa(dp558
g6
I01
sg7
g28
sg9
L5L
sa(dp559
g6
I01
sg7
g30
sg9
L5L
sa(dp560
g6
I01
sg7
g32
sg9
L5L
sa(dp561
g6
I01
sg7
g34
sg9
L5L
sa(dp562
g6
I01
sg7
g36
sg9
L5L
sa(dp563
g6
I01
sg7
V__module__
p564
sg9
L5L
sa(dp565
g6
I01
sg7
g38
sg9
L5L
sa(dp566
g6
I01
sg7
g40
sg9
L2L
sg14
VCreate and return a new object.  See help(type) for accurate signature.
p567
sa(dp568
g6
I01
sg7
g43
sg9
L2L
sg14
Nsa(dp569
g6
I01
sg7
g45
sg9
L2L
sg14
Vhelper for pickle
p570
sa(dp571
g6
I01
sg7
g48
sg9
L5L
sa(dp572
g6
I01
sg7
g50
sg9
L5L
sa(dp573
g6
I01
sg7
g52
sg9
L2L
sg14
V__sizeof__() -> int\u000asize of object in memory, in bytes
p574
sa(dp575
g6
I01
sg7
g55
sg9
L5L
sa(dp576
g6
I01
sg7
g57
sg9
L2L
sg14
VAbstract classes can override this to customize issubclass().\u000a\u000aThis is invoked early on by abc.ABCMeta.__subclasscheck__().\u000aIt should return True, False or NotImplemented.  If it returns\u000aNotImplemented, the normal algorithm is used.  Otherwise, it\u000aoverrides the normal algorithm (and the outcome is cached).\u000a
p577
sa(dp578
g6
I01
sg7
g97
sg9
L5L
sa(dp579
g6
I01
sg7
g60
sg9
L5L
sa(dp580
g6
I01
sg7
V_fields
p581
sg9
L5L
sasg6
I01
sg7
VBitAnd
p582
sg9
L3L
sg14
Nsa(dp583
g1
(lp584
(dp585
g6
I01
sg7
g8
sg9
L5L
sa(dp586
g6
I01
sg7
g11
sg9
L5L
sa(dp587
g6
I01
sg7
g13
sg9
L2L
sg14
V__dir__() -> list\u000adefault dir() implementation
p588
sa(dp589
g6
I01
sg7
g17
sg9
L5L
sa(dp590
g6
I01
sg7
g19
sg9
L5L
sa(dp591
g6
I01
sg7
g21
sg9
L2L
sg14
Vdefault object formatter
p592
sa(dp593
g6
I01
sg7
g24
sg9
L5L
sa(dp594
g6
I01
sg7
g26
sg9
L5L
sa(dp595
g6
I01
sg7
g28
sg9
L5L
sa(dp596
g6
I01
sg7
g30
sg9
L5L
sa(dp597
g6
I01
sg7
g32
sg9
L5L
sa(dp598
g6
I01
sg7
g34
sg9
L5L
sa(dp599
g6
I01
sg7
g36
sg9
L5L
sa(dp600
g6
I01
sg7
V__module__
p601
sg9
L5L
sa(dp602
g6
I01
sg7
g38
sg9
L5L
sa(dp603
g6
I01
sg7
g40
sg9
L2L
sg14
VCreate and return a new object.  See help(type) for accurate signature.
p604
sa(dp605
g6
I01
sg7
g43
sg9
L2L
sg14
Nsa(dp606
g6
I01
sg7
g45
sg9
L2L
sg14
Vhelper for pickle
p607
sa(dp608
g6
I01
sg7
g48
sg9
L5L
sa(dp609
g6
I01
sg7
g50
sg9
L5L
sa(dp610
g6
I01
sg7
g52
sg9
L2L
sg14
V__sizeof__() -> int\u000asize of object in memory, in bytes
p611
sa(dp612
g6
I01
sg7
g55
sg9
L5L
sa(dp613
g6
I01
sg7
g57
sg9
L2L
sg14
VAbstract classes can override this to customize issubclass().\u000a\u000aThis is invoked early on by abc.ABCMeta.__subclasscheck__().\u000aIt should return True, False or NotImplemented.  If it returns\u000aNotImplemented, the normal algorithm is used.  Otherwise, it\u000aoverrides the normal algorithm (and the outcome is cached).\u000a
p614
sa(dp615
g6
I01
sg7
g97
sg9
L5L
sa(dp616
g6
I01
sg7
g60
sg9
L5L
sa(dp617
g6
I01
sg7
V_fields
p618
sg9
L5L
sasg6
I01
sg7
VBitOr
p619
sg9
L3L
sg14
Nsa(dp620
g1
(lp621
(dp622
g6
I01
sg7
g8
sg9
L5L
sa(dp623
g6
I01
sg7
g11
sg9
L5L
sa(dp624
g6
I01
sg7
g13
sg9
L2L
sg14
V__dir__() -> list\u000adefault dir() implementation
p625
sa(dp626
g6
I01
sg7
g17
sg9
L5L
sa(dp627
g6
I01
sg7
g19
sg9
L5L
sa(dp628
g6
I01
sg7
g21
sg9
L2L
sg14
Vdefault object formatter
p629
sa(dp630
g6
I01
sg7
g24
sg9
L5L
sa(dp631
g6
I01
sg7
g26
sg9
L5L
sa(dp632
g6
I01
sg7
g28
sg9
L5L
sa(dp633
g6
I01
sg7
g30
sg9
L5L
sa(dp634
g6
I01
sg7
g32
sg9
L5L
sa(dp635
g6
I01
sg7
g34
sg9
L5L
sa(dp636
g6
I01
sg7
g36
sg9
L5L
sa(dp637
g6
I01
sg7
V__module__
p638
sg9
L5L
sa(dp639
g6
I01
sg7
g38
sg9
L5L
sa(dp640
g6
I01
sg7
g40
sg9
L2L
sg14
VCreate and return a new object.  See help(type) for accurate signature.
p641
sa(dp642
g6
I01
sg7
g43
sg9
L2L
sg14
Nsa(dp643
g6
I01
sg7
g45
sg9
L2L
sg14
Vhelper for pickle
p644
sa(dp645
g6
I01
sg7
g48
sg9
L5L
sa(dp646
g6
I01
sg7
g50
sg9
L5L
sa(dp647
g6
I01
sg7
g52
sg9
L2L
sg14
V__sizeof__() -> int\u000asize of object in memory, in bytes
p648
sa(dp649
g6
I01
sg7
g55
sg9
L5L
sa(dp650
g6
I01
sg7
g57
sg9
L2L
sg14
VAbstract classes can override this to customize issubclass().\u000a\u000aThis is invoked early on by abc.ABCMeta.__subclasscheck__().\u000aIt should return True, False or NotImplemented.  If it returns\u000aNotImplemented, the normal algorithm is used.  Otherwise, it\u000aoverrides the normal algorithm (and the outcome is cached).\u000a
p651
sa(dp652
g6
I01
sg7
g97
sg9
L5L
sa(dp653
g6
I01
sg7
g60
sg9
L5L
sa(dp654
g6
I01
sg7
V_fields
p655
sg9
L5L
sasg6
I01
sg7
VBitXor
p656
sg9
L3L
sg14
Nsa(dp657
g1
(lp658
(dp659
g6
I01
sg7
g8
sg9
L5L
sa(dp660
g6
I01
sg7
g11
sg9
L5L
sa(dp661
g6
I01
sg7
g13
sg9
L2L
sg14
V__dir__() -> list\u000adefault dir() implementation
p662
sa(dp663
g6
I01
sg7
g17
sg9
L5L
sa(dp664
g6
I01
sg7
g19
sg9
L5L
sa(dp665
g6
I01
sg7
g21
sg9
L2L
sg14
Vdefault object formatter
p666
sa(dp667
g6
I01
sg7
g24
sg9
L5L
sa(dp668
g6
I01
sg7
g26
sg9
L5L
sa(dp669
g6
I01
sg7
g28
sg9
L5L
sa(dp670
g6
I01
sg7
g30
sg9
L5L
sa(dp671
g6
I01
sg7
g32
sg9
L5L
sa(dp672
g6
I01
sg7
g34
sg9
L5L
sa(dp673
g6
I01
sg7
g36
sg9
L5L
sa(dp674
g6
I01
sg7
V__module__
p675
sg9
L5L
sa(dp676
g6
I01
sg7
g38
sg9
L5L
sa(dp677
g6
I01
sg7
g40
sg9
L2L
sg14
VCreate and return a new object.  See help(type) for accurate signature.
p678
sa(dp679
g6
I01
sg7
g43
sg9
L2L
sg14
Nsa(dp680
g6
I01
sg7
g45
sg9
L2L
sg14
Vhelper for pickle
p681
sa(dp682
g6
I01
sg7
g48
sg9
L5L
sa(dp683
g6
I01
sg7
g50
sg9
L5L
sa(dp684
g6
I01
sg7
g52
sg9
L2L
sg14
V__sizeof__() -> int\u000asize of object in memory, in bytes
p685
sa(dp686
g6
I01
sg7
g55
sg9
L5L
sa(dp687
g6
I01
sg7
g57
sg9
L2L
sg14
VAbstract classes can override this to customize issubclass().\u000a\u000aThis is invoked early on by abc.ABCMeta.__subclasscheck__().\u000aIt should return True, False or NotImplemented.  If it returns\u000aNotImplemented, the normal algorithm is used.  Otherwise, it\u000aoverrides the normal algorithm (and the outcome is cached).\u000a
p688
sa(dp689
g6
I01
sg7
g97
sg9
L5L
sa(dp690
g6
I01
sg7
g60
sg9
L5L
sa(dp691
g6
I01
sg7
V_fields
p692
sg9
L5L
sasg6
I01
sg7
VBoolOp
p693
sg9
L3L
sg14
Nsa(dp694
g1
(lp695
(dp696
g6
I01
sg7
g8
sg9
L5L
sa(dp697
g6
I01
sg7
g11
sg9
L5L
sa(dp698
g6
I01
sg7
g13
sg9
L2L
sg14
V__dir__() -> list\u000adefault dir() implementation
p699
sa(dp700
g6
I01
sg7
g17
sg9
L5L
sa(dp701
g6
I01
sg7
g19
sg9
L5L
sa(dp702
g6
I01
sg7
g21
sg9
L2L
sg14
Vdefault object formatter
p703
sa(dp704
g6
I01
sg7
g24
sg9
L5L
sa(dp705
g6
I01
sg7
g26
sg9
L5L
sa(dp706
g6
I01
sg7
g28
sg9
L5L
sa(dp707
g6
I01
sg7
g30
sg9
L5L
sa(dp708
g6
I01
sg7
g32
sg9
L5L
sa(dp709
g6
I01
sg7
g34
sg9
L5L
sa(dp710
g6
I01
sg7
g36
sg9
L5L
sa(dp711
g6
I01
sg7
V__module__
p712
sg9
L5L
sa(dp713
g6
I01
sg7
g38
sg9
L5L
sa(dp714
g6
I01
sg7
g40
sg9
L2L
sg14
VCreate and return a new object.  See help(type) for accurate signature.
p715
sa(dp716
g6
I01
sg7
g43
sg9
L2L
sg14
Nsa(dp717
g6
I01
sg7
g45
sg9
L2L
sg14
Vhelper for pickle
p718
sa(dp719
g6
I01
sg7
g48
sg9
L5L
sa(dp720
g6
I01
sg7
g50
sg9
L5L
sa(dp721
g6
I01
sg7
g52
sg9
L2L
sg14
V__sizeof__() -> int\u000asize of object in memory, in bytes
p722
sa(dp723
g6
I01
sg7
g55
sg9
L5L
sa(dp724
g6
I01
sg7
g57
sg9
L2L
sg14
VAbstract classes can override this to customize issubclass().\u000a\u000aThis is invoked early on by abc.ABCMeta.__subclasscheck__().\u000aIt should return True, False or NotImplemented.  If it returns\u000aNotImplemented, the normal algorithm is used.  Otherwise, it\u000aoverrides the normal algorithm (and the outcome is cached).\u000a
p725
sa(dp726
g6
I01
sg7
g97
sg9
L5L
sa(dp727
g6
I01
sg7
g60
sg9
L5L
sa(dp728
g6
I01
sg7
V_fields
p729
sg9
L5L
sasg6
I01
sg7
VBreak
p730
sg9
L3L
sg14
Nsa(dp731
g1
(lp732
(dp733
g6
I01
sg7
g8
sg9
L5L
sa(dp734
g6
I01
sg7
g11
sg9
L5L
sa(dp735
g6
I01
sg7
g13
sg9
L2L
sg14
V__dir__() -> list\u000adefault dir() implementation
p736
sa(dp737
g6
I01
sg7
g17
sg9
L5L
sa(dp738
g6
I01
sg7
g19
sg9
L5L
sa(dp739
g6
I01
sg7
g21
sg9
L2L
sg14
Vdefault object formatter
p740
sa(dp741
g6
I01
sg7
g24
sg9
L5L
sa(dp742
g6
I01
sg7
g26
sg9
L5L
sa(dp743
g6
I01
sg7
g28
sg9
L5L
sa(dp744
g6
I01
sg7
g30
sg9
L5L
sa(dp745
g6
I01
sg7
g32
sg9
L5L
sa(dp746
g6
I01
sg7
g34
sg9
L5L
sa(dp747
g6
I01
sg7
g36
sg9
L5L
sa(dp748
g6
I01
sg7
V__module__
p749
sg9
L5L
sa(dp750
g6
I01
sg7
g38
sg9
L5L
sa(dp751
g6
I01
sg7
g40
sg9
L2L
sg14
VCreate and return a new object.  See help(type) for accurate signature.
p752
sa(dp753
g6
I01
sg7
g43
sg9
L2L
sg14
Nsa(dp754
g6
I01
sg7
g45
sg9
L2L
sg14
Vhelper for pickle
p755
sa(dp756
g6
I01
sg7
g48
sg9
L5L
sa(dp757
g6
I01
sg7
g50
sg9
L5L
sa(dp758
g6
I01
sg7
g52
sg9
L2L
sg14
V__sizeof__() -> int\u000asize of object in memory, in bytes
p759
sa(dp760
g6
I01
sg7
g55
sg9
L5L
sa(dp761
g6
I01
sg7
g57
sg9
L2L
sg14
VAbstract classes can override this to customize issubclass().\u000a\u000aThis is invoked early on by abc.ABCMeta.__subclasscheck__().\u000aIt should return True, False or NotImplemented.  If it returns\u000aNotImplemented, the normal algorithm is used.  Otherwise, it\u000aoverrides the normal algorithm (and the outcome is cached).\u000a
p762
sa(dp763
g6
I01
sg7
g97
sg9
L5L
sa(dp764
g6
I01
sg7
g60
sg9
L5L
sa(dp765
g6
I01
sg7
V_fields
p766
sg9
L5L
sasg6
I01
sg7
VBytes
p767
sg9
L3L
sg14
Nsa(dp768
g1
(lp769
(dp770
g6
I01
sg7
g8
sg9
L5L
sa(dp771
g6
I01
sg7
g11
sg9
L5L
sa(dp772
g6
I01
sg7
g13
sg9
L2L
sg14
V__dir__() -> list\u000adefault dir() implementation
p773
sa(dp774
g6
I01
sg7
g17
sg9
L5L
sa(dp775
g6
I01
sg7
g19
sg9
L5L
sa(dp776
g6
I01
sg7
g21
sg9
L2L
sg14
Vdefault object formatter
p777
sa(dp778
g6
I01
sg7
g24
sg9
L5L
sa(dp779
g6
I01
sg7
g26
sg9
L5L
sa(dp780
g6
I01
sg7
g28
sg9
L5L
sa(dp781
g6
I01
sg7
g30
sg9
L5L
sa(dp782
g6
I01
sg7
g32
sg9
L5L
sa(dp783
g6
I01
sg7
g34
sg9
L5L
sa(dp784
g6
I01
sg7
g36
sg9
L5L
sa(dp785
g6
I01
sg7
V__module__
p786
sg9
L5L
sa(dp787
g6
I01
sg7
g38
sg9
L5L
sa(dp788
g6
I01
sg7
g40
sg9
L2L
sg14
VCreate and return a new object.  See help(type) for accurate signature.
p789
sa(dp790
g6
I01
sg7
g43
sg9
L2L
sg14
Nsa(dp791
g6
I01
sg7
g45
sg9
L2L
sg14
Vhelper for pickle
p792
sa(dp793
g6
I01
sg7
g48
sg9
L5L
sa(dp794
g6
I01
sg7
g50
sg9
L5L
sa(dp795
g6
I01
sg7
g52
sg9
L2L
sg14
V__sizeof__() -> int\u000asize of object in memory, in bytes
p796
sa(dp797
g6
I01
sg7
g55
sg9
L5L
sa(dp798
g6
I01
sg7
g57
sg9
L2L
sg14
VAbstract classes can override this to customize issubclass().\u000a\u000aThis is invoked early on by abc.ABCMeta.__subclasscheck__().\u000aIt should return True, False or NotImplemented.  If it returns\u000aNotImplemented, the normal algorithm is used.  Otherwise, it\u000aoverrides the normal algorithm (and the outcome is cached).\u000a
p799
sa(dp800
g6
I01
sg7
g97
sg9
L5L
sa(dp801
g6
I01
sg7
g60
sg9
L5L
sa(dp802
g6
I01
sg7
V_fields
p803
sg9
L5L
sasg6
I01
sg7
VCall
p804
sg9
L3L
sg14
Nsa(dp805
g1
(lp806
(dp807
g6
I01
sg7
g8
sg9
L5L
sa(dp808
g6
I01
sg7
g11
sg9
L5L
sa(dp809
g6
I01
sg7
g13
sg9
L2L
sg14
V__dir__() -> list\u000adefault dir() implementation
p810
sa(dp811
g6
I01
sg7
g17
sg9
L5L
sa(dp812
g6
I01
sg7
g19
sg9
L5L
sa(dp813
g6
I01
sg7
g21
sg9
L2L
sg14
Vdefault object formatter
p814
sa(dp815
g6
I01
sg7
g24
sg9
L5L
sa(dp816
g6
I01
sg7
g26
sg9
L5L
sa(dp817
g6
I01
sg7
g28
sg9
L5L
sa(dp818
g6
I01
sg7
g30
sg9
L5L
sa(dp819
g6
I01
sg7
g32
sg9
L5L
sa(dp820
g6
I01
sg7
g34
sg9
L5L
sa(dp821
g6
I01
sg7
g36
sg9
L5L
sa(dp822
g6
I01
sg7
V__module__
p823
sg9
L5L
sa(dp824
g6
I01
sg7
g38
sg9
L5L
sa(dp825
g6
I01
sg7
g40
sg9
L2L
sg14
VCreate and return a new object.  See help(type) for accurate signature.
p826
sa(dp827
g6
I01
sg7
g43
sg9
L2L
sg14
Nsa(dp828
g6
I01
sg7
g45
sg9
L2L
sg14
Vhelper for pickle
p829
sa(dp830
g6
I01
sg7
g48
sg9
L5L
sa(dp831
g6
I01
sg7
g50
sg9
L5L
sa(dp832
g6
I01
sg7
g52
sg9
L2L
sg14
V__sizeof__() -> int\u000asize of object in memory, in bytes
p833
sa(dp834
g6
I01
sg7
g55
sg9
L5L
sa(dp835
g6
I01
sg7
g57
sg9
L2L
sg14
VAbstract classes can override this to customize issubclass().\u000a\u000aThis is invoked early on by abc.ABCMeta.__subclasscheck__().\u000aIt should return True, False or NotImplemented.  If it returns\u000aNotImplemented, the normal algorithm is used.  Otherwise, it\u000aoverrides the normal algorithm (and the outcome is cached).\u000a
p836
sa(dp837
g6
I01
sg7
g97
sg9
L5L
sa(dp838
g6
I01
sg7
g60
sg9
L5L
sa(dp839
g6
I01
sg7
V_fields
p840
sg9
L5L
sasg6
I01
sg7
VClassDef
p841
sg9
L3L
sg14
Nsa(dp842
g1
(lp843
(dp844
g6
I01
sg7
g8
sg9
L5L
sa(dp845
g6
I01
sg7
g11
sg9
L5L
sa(dp846
g6
I01
sg7
g13
sg9
L2L
sg14
V__dir__() -> list\u000adefault dir() implementation
p847
sa(dp848
g6
I01
sg7
g17
sg9
L5L
sa(dp849
g6
I01
sg7
g19
sg9
L5L
sa(dp850
g6
I01
sg7
g21
sg9
L2L
sg14
Vdefault object formatter
p851
sa(dp852
g6
I01
sg7
g24
sg9
L5L
sa(dp853
g6
I01
sg7
g26
sg9
L5L
sa(dp854
g6
I01
sg7
g28
sg9
L5L
sa(dp855
g6
I01
sg7
g30
sg9
L5L
sa(dp856
g6
I01
sg7
g32
sg9
L5L
sa(dp857
g6
I01
sg7
g34
sg9
L5L
sa(dp858
g6
I01
sg7
g36
sg9
L5L
sa(dp859
g6
I01
sg7
V__module__
p860
sg9
L5L
sa(dp861
g6
I01
sg7
g38
sg9
L5L
sa(dp862
g6
I01
sg7
g40
sg9
L2L
sg14
VCreate and return a new object.  See help(type) for accurate signature.
p863
sa(dp864
g6
I01
sg7
g43
sg9
L2L
sg14
Nsa(dp865
g6
I01
sg7
g45
sg9
L2L
sg14
Vhelper for pickle
p866
sa(dp867
g6
I01
sg7
g48
sg9
L5L
sa(dp868
g6
I01
sg7
g50
sg9
L5L
sa(dp869
g6
I01
sg7
g52
sg9
L2L
sg14
V__sizeof__() -> int\u000asize of object in memory, in bytes
p870
sa(dp871
g6
I01
sg7
g55
sg9
L5L
sa(dp872
g6
I01
sg7
g57
sg9
L2L
sg14
VAbstract classes can override this to customize issubclass().\u000a\u000aThis is invoked early on by abc.ABCMeta.__subclasscheck__().\u000aIt should return True, False or NotImplemented.  If it returns\u000aNotImplemented, the normal algorithm is used.  Otherwise, it\u000aoverrides the normal algorithm (and the outcome is cached).\u000a
p873
sa(dp874
g6
I01
sg7
g97
sg9
L5L
sa(dp875
g6
I01
sg7
g60
sg9
L5L
sa(dp876
g6
I01
sg7
V_fields
p877
sg9
L5L
sasg6
I01
sg7
VCompare
p878
sg9
L3L
sg14
Nsa(dp879
g1
(lp880
(dp881
g6
I01
sg7
g8
sg9
L5L
sa(dp882
g6
I01
sg7
g11
sg9
L5L
sa(dp883
g6
I01
sg7
g13
sg9
L2L
sg14
V__dir__() -> list\u000adefault dir() implementation
p884
sa(dp885
g6
I01
sg7
g17
sg9
L5L
sa(dp886
g6
I01
sg7
g19
sg9
L5L
sa(dp887
g6
I01
sg7
g21
sg9
L2L
sg14
Vdefault object formatter
p888
sa(dp889
g6
I01
sg7
g24
sg9
L5L
sa(dp890
g6
I01
sg7
g26
sg9
L5L
sa(dp891
g6
I01
sg7
g28
sg9
L5L
sa(dp892
g6
I01
sg7
g30
sg9
L5L
sa(dp893
g6
I01
sg7
g32
sg9
L5L
sa(dp894
g6
I01
sg7
g34
sg9
L5L
sa(dp895
g6
I01
sg7
g36
sg9
L5L
sa(dp896
g6
I01
sg7
V__module__
p897
sg9
L5L
sa(dp898
g6
I01
sg7
g38
sg9
L5L
sa(dp899
g6
I01
sg7
g40
sg9
L2L
sg14
VCreate and return a new object.  See help(type) for accurate signature.
p900
sa(dp901
g6
I01
sg7
g43
sg9
L2L
sg14
Nsa(dp902
g6
I01
sg7
g45
sg9
L2L
sg14
Vhelper for pickle
p903
sa(dp904
g6
I01
sg7
g48
sg9
L5L
sa(dp905
g6
I01
sg7
g50
sg9
L5L
sa(dp906
g6
I01
sg7
g52
sg9
L2L
sg14
V__sizeof__() -> int\u000asize of object in memory, in bytes
p907
sa(dp908
g6
I01
sg7
g55
sg9
L5L
sa(dp909
g6
I01
sg7
g57
sg9
L2L
sg14
VAbstract classes can override this to customize issubclass().\u000a\u000aThis is invoked early on by abc.ABCMeta.__subclasscheck__().\u000aIt should return True, False or NotImplemented.  If it returns\u000aNotImplemented, the normal algorithm is used.  Otherwise, it\u000aoverrides the normal algorithm (and the outcome is cached).\u000a
p910
sa(dp911
g6
I01
sg7
g97
sg9
L5L
sa(dp912
g6
I01
sg7
g60
sg9
L5L
sa(dp913
g6
I01
sg7
V_fields
p914
sg9
L5L
sasg6
I01
sg7
VContinue
p915
sg9
L3L
sg14
Nsa(dp916
g1
(lp917
(dp918
g6
I01
sg7
g8
sg9
L5L
sa(dp919
g6
I01
sg7
g11
sg9
L5L
sa(dp920
g6
I01
sg7
g13
sg9
L2L
sg14
V__dir__() -> list\u000adefault dir() implementation
p921
sa(dp922
g6
I01
sg7
g17
sg9
L5L
sa(dp923
g6
I01
sg7
g19
sg9
L5L
sa(dp924
g6
I01
sg7
g21
sg9
L2L
sg14
Vdefault object formatter
p925
sa(dp926
g6
I01
sg7
g24
sg9
L5L
sa(dp927
g6
I01
sg7
g26
sg9
L5L
sa(dp928
g6
I01
sg7
g28
sg9
L5L
sa(dp929
g6
I01
sg7
g30
sg9
L5L
sa(dp930
g6
I01
sg7
g32
sg9
L5L
sa(dp931
g6
I01
sg7
g34
sg9
L5L
sa(dp932
g6
I01
sg7
g36
sg9
L5L
sa(dp933
g6
I01
sg7
V__module__
p934
sg9
L5L
sa(dp935
g6
I01
sg7
g38
sg9
L5L
sa(dp936
g6
I01
sg7
g40
sg9
L2L
sg14
VCreate and return a new object.  See help(type) for accurate signature.
p937
sa(dp938
g6
I01
sg7
g43
sg9
L2L
sg14
Nsa(dp939
g6
I01
sg7
g45
sg9
L2L
sg14
Vhelper for pickle
p940
sa(dp941
g6
I01
sg7
g48
sg9
L5L
sa(dp942
g6
I01
sg7
g50
sg9
L5L
sa(dp943
g6
I01
sg7
g52
sg9
L2L
sg14
V__sizeof__() -> int\u000asize of object in memory, in bytes
p944
sa(dp945
g6
I01
sg7
g55
sg9
L5L
sa(dp946
g6
I01
sg7
g57
sg9
L2L
sg14
VAbstract classes can override this to customize issubclass().\u000a\u000aThis is invoked early on by abc.ABCMeta.__subclasscheck__().\u000aIt should return True, False or NotImplemented.  If it returns\u000aNotImplemented, the normal algorithm is used.  Otherwise, it\u000aoverrides the normal algorithm (and the outcome is cached).\u000a
p947
sa(dp948
g6
I01
sg7
g97
sg9
L5L
sa(dp949
g6
I01
sg7
g60
sg9
L5L
sa(dp950
g6
I01
sg7
V_fields
p951
sg9
L5L
sasg6
I01
sg7
VDel
p952
sg9
L3L
sg14
Nsa(dp953
g1
(lp954
(dp955
g6
I01
sg7
g8
sg9
L5L
sa(dp956
g6
I01
sg7
g11
sg9
L5L
sa(dp957
g6
I01
sg7
g13
sg9
L2L
sg14
V__dir__() -> list\u000adefault dir() implementation
p958
sa(dp959
g6
I01
sg7
g17
sg9
L5L
sa(dp960
g6
I01
sg7
g19
sg9
L5L
sa(dp961
g6
I01
sg7
g21
sg9
L2L
sg14
Vdefault object formatter
p962
sa(dp963
g6
I01
sg7
g24
sg9
L5L
sa(dp964
g6
I01
sg7
g26
sg9
L5L
sa(dp965
g6
I01
sg7
g28
sg9
L5L
sa(dp966
g6
I01
sg7
g30
sg9
L5L
sa(dp967
g6
I01
sg7
g32
sg9
L5L
sa(dp968
g6
I01
sg7
g34
sg9
L5L
sa(dp969
g6
I01
sg7
g36
sg9
L5L
sa(dp970
g6
I01
sg7
V__module__
p971
sg9
L5L
sa(dp972
g6
I01
sg7
g38
sg9
L5L
sa(dp973
g6
I01
sg7
g40
sg9
L2L
sg14
VCreate and return a new object.  See help(type) for accurate signature.
p974
sa(dp975
g6
I01
sg7
g43
sg9
L2L
sg14
Nsa(dp976
g6
I01
sg7
g45
sg9
L2L
sg14
Vhelper for pickle
p977
sa(dp978
g6
I01
sg7
g48
sg9
L5L
sa(dp979
g6
I01
sg7
g50
sg9
L5L
sa(dp980
g6
I01
sg7
g52
sg9
L2L
sg14
V__sizeof__() -> int\u000asize of object in memory, in bytes
p981
sa(dp982
g6
I01
sg7
g55
sg9
L5L
sa(dp983
g6
I01
sg7
g57
sg9
L2L
sg14
VAbstract classes can override this to customize issubclass().\u000a\u000aThis is invoked early on by abc.ABCMeta.__subclasscheck__().\u000aIt should return True, False or NotImplemented.  If it returns\u000aNotImplemented, the normal algorithm is used.  Otherwise, it\u000aoverrides the normal algorithm (and the outcome is cached).\u000a
p984
sa(dp985
g6
I01
sg7
g97
sg9
L5L
sa(dp986
g6
I01
sg7
g60
sg9
L5L
sa(dp987
g6
I01
sg7
V_fields
p988
sg9
L5L
sasg6
I01
sg7
VDelete
p989
sg9
L3L
sg14
Nsa(dp990
g1
(lp991
(dp992
g6
I01
sg7
g8
sg9
L5L
sa(dp993
g6
I01
sg7
g11
sg9
L5L
sa(dp994
g6
I01
sg7
g13
sg9
L2L
sg14
V__dir__() -> list\u000adefault dir() implementation
p995
sa(dp996
g6
I01
sg7
g17
sg9
L5L
sa(dp997
g6
I01
sg7
g19
sg9
L5L
sa(dp998
g6
I01
sg7
g21
sg9
L2L
sg14
Vdefault object formatter
p999
sa(dp1000
g6
I01
sg7
g24
sg9
L5L
sa(dp1001
g6
I01
sg7
g26
sg9
L5L
sa(dp1002
g6
I01
sg7
g28
sg9
L5L
sa(dp1003
g6
I01
sg7
g30
sg9
L5L
sa(dp1004
g6
I01
sg7
g32
sg9
L5L
sa(dp1005
g6
I01
sg7
g34
sg9
L5L
sa(dp1006
g6
I01
sg7
g36
sg9
L5L
sa(dp1007
g6
I01
sg7
V__module__
p1008
sg9
L5L
sa(dp1009
g6
I01
sg7
g38
sg9
L5L
sa(dp1010
g6
I01
sg7
g40
sg9
L2L
sg14
VCreate and return a new object.  See help(type) for accurate signature.
p1011
sa(dp1012
g6
I01
sg7
g43
sg9
L2L
sg14
Nsa(dp1013
g6
I01
sg7
g45
sg9
L2L
sg14
Vhelper for pickle
p1014
sa(dp1015
g6
I01
sg7
g48
sg9
L5L
sa(dp1016
g6
I01
sg7
g50
sg9
L5L
sa(dp1017
g6
I01
sg7
g52
sg9
L2L
sg14
V__sizeof__() -> int\u000asize of object in memory, in bytes
p1018
sa(dp1019
g6
I01
sg7
g55
sg9
L5L
sa(dp1020
g6
I01
sg7
g57
sg9
L2L
sg14
VAbstract classes can override this to customize issubclass().\u000a\u000aThis is invoked early on by abc.ABCMeta.__subclasscheck__().\u000aIt should return True, False or NotImplemented.  If it returns\u000aNotImplemented, the normal algorithm is used.  Otherwise, it\u000aoverrides the normal algorithm (and the outcome is cached).\u000a
p1021
sa(dp1022
g6
I01
sg7
g97
sg9
L5L
sa(dp1023
g6
I01
sg7
g60
sg9
L5L
sa(dp1024
g6
I01
sg7
V_fields
p1025
sg9
L5L
sasg6
I01
sg7
VDict
p1026
sg9
L3L
sg14
Nsa(dp1027
g1
(lp1028
(dp1029
g6
I01
sg7
g8
sg9
L5L
sa(dp1030
g6
I01
sg7
g11
sg9
L5L
sa(dp1031
g6
I01
sg7
g13
sg9
L2L
sg14
V__dir__() -> list\u000adefault dir() implementation
p1032
sa(dp1033
g6
I01
sg7
g17
sg9
L5L
sa(dp1034
g6
I01
sg7
g19
sg9
L5L
sa(dp1035
g6
I01
sg7
g21
sg9
L2L
sg14
Vdefault object formatter
p1036
sa(dp1037
g6
I01
sg7
g24
sg9
L5L
sa(dp1038
g6
I01
sg7
g26
sg9
L5L
sa(dp1039
g6
I01
sg7
g28
sg9
L5L
sa(dp1040
g6
I01
sg7
g30
sg9
L5L
sa(dp1041
g6
I01
sg7
g32
sg9
L5L
sa(dp1042
g6
I01
sg7
g34
sg9
L5L
sa(dp1043
g6
I01
sg7
g36
sg9
L5L
sa(dp1044
g6
I01
sg7
V__module__
p1045
sg9
L5L
sa(dp1046
g6
I01
sg7
g38
sg9
L5L
sa(dp1047
g6
I01
sg7
g40
sg9
L2L
sg14
VCreate and return a new object.  See help(type) for accurate signature.
p1048
sa(dp1049
g6
I01
sg7
g43
sg9
L2L
sg14
Nsa(dp1050
g6
I01
sg7
g45
sg9
L2L
sg14
Vhelper for pickle
p1051
sa(dp1052
g6
I01
sg7
g48
sg9
L5L
sa(dp1053
g6
I01
sg7
g50
sg9
L5L
sa(dp1054
g6
I01
sg7
g52
sg9
L2L
sg14
V__sizeof__() -> int\u000asize of object in memory, in bytes
p1055
sa(dp1056
g6
I01
sg7
g55
sg9
L5L
sa(dp1057
g6
I01
sg7
g57
sg9
L2L
sg14
VAbstract classes can override this to customize issubclass().\u000a\u000aThis is invoked early on by abc.ABCMeta.__subclasscheck__().\u000aIt should return True, False or NotImplemented.  If it returns\u000aNotImplemented, the normal algorithm is used.  Otherwise, it\u000aoverrides the normal algorithm (and the outcome is cached).\u000a
p1058
sa(dp1059
g6
I01
sg7
g97
sg9
L5L
sa(dp1060
g6
I01
sg7
g60
sg9
L5L
sa(dp1061
g6
I01
sg7
V_fields
p1062
sg9
L5L
sasg6
I01
sg7
VDictComp
p1063
sg9
L3L
sg14
Nsa(dp1064
g1
(lp1065
(dp1066
g6
I01
sg7
g8
sg9
L5L
sa(dp1067
g6
I01
sg7
g11
sg9
L5L
sa(dp1068
g6
I01
sg7
g13
sg9
L2L
sg14
V__dir__() -> list\u000adefault dir() implementation
p1069
sa(dp1070
g6
I01
sg7
g17
sg9
L5L
sa(dp1071
g6
I01
sg7
g19
sg9
L5L
sa(dp1072
g6
I01
sg7
g21
sg9
L2L
sg14
Vdefault object formatter
p1073
sa(dp1074
g6
I01
sg7
g24
sg9
L5L
sa(dp1075
g6
I01
sg7
g26
sg9
L5L
sa(dp1076
g6
I01
sg7
g28
sg9
L5L
sa(dp1077
g6
I01
sg7
g30
sg9
L5L
sa(dp1078
g6
I01
sg7
g32
sg9
L5L
sa(dp1079
g6
I01
sg7
g34
sg9
L5L
sa(dp1080
g6
I01
sg7
g36
sg9
L5L
sa(dp1081
g6
I01
sg7
V__module__
p1082
sg9
L5L
sa(dp1083
g6
I01
sg7
g38
sg9
L5L
sa(dp1084
g6
I01
sg7
g40
sg9
L2L
sg14
VCreate and return a new object.  See help(type) for accurate signature.
p1085
sa(dp1086
g6
I01
sg7
g43
sg9
L2L
sg14
Nsa(dp1087
g6
I01
sg7
g45
sg9
L2L
sg14
Vhelper for pickle
p1088
sa(dp1089
g6
I01
sg7
g48
sg9
L5L
sa(dp1090
g6
I01
sg7
g50
sg9
L5L
sa(dp1091
g6
I01
sg7
g52
sg9
L2L
sg14
V__sizeof__() -> int\u000asize of object in memory, in bytes
p1092
sa(dp1093
g6
I01
sg7
g55
sg9
L5L
sa(dp1094
g6
I01
sg7
g57
sg9
L2L
sg14
VAbstract classes can override this to customize issubclass().\u000a\u000aThis is invoked early on by abc.ABCMeta.__subclasscheck__().\u000aIt should return True, False or NotImplemented.  If it returns\u000aNotImplemented, the normal algorithm is used.  Otherwise, it\u000aoverrides the normal algorithm (and the outcome is cached).\u000a
p1095
sa(dp1096
g6
I01
sg7
g97
sg9
L5L
sa(dp1097
g6
I01
sg7
g60
sg9
L5L
sa(dp1098
g6
I01
sg7
V_fields
p1099
sg9
L5L
sasg6
I01
sg7
VDiv
p1100
sg9
L3L
sg14
Nsa(dp1101
g1
(lp1102
(dp1103
g6
I01
sg7
g8
sg9
L5L
sa(dp1104
g6
I01
sg7
g11
sg9
L5L
sa(dp1105
g6
I01
sg7
g13
sg9
L2L
sg14
V__dir__() -> list\u000adefault dir() implementation
p1106
sa(dp1107
g6
I01
sg7
g17
sg9
L5L
sa(dp1108
g6
I01
sg7
g19
sg9
L5L
sa(dp1109
g6
I01
sg7
g21
sg9
L2L
sg14
Vdefault object formatter
p1110
sa(dp1111
g6
I01
sg7
g24
sg9
L5L
sa(dp1112
g6
I01
sg7
g26
sg9
L5L
sa(dp1113
g6
I01
sg7
g28
sg9
L5L
sa(dp1114
g6
I01
sg7
g30
sg9
L5L
sa(dp1115
g6
I01
sg7
g32
sg9
L5L
sa(dp1116
g6
I01
sg7
g34
sg9
L5L
sa(dp1117
g6
I01
sg7
g36
sg9
L5L
sa(dp1118
g6
I01
sg7
V__module__
p1119
sg9
L5L
sa(dp1120
g6
I01
sg7
g38
sg9
L5L
sa(dp1121
g6
I01
sg7
g40
sg9
L2L
sg14
VCreate and return a new object.  See help(type) for accurate signature.
p1122
sa(dp1123
g6
I01
sg7
g43
sg9
L2L
sg14
Nsa(dp1124
g6
I01
sg7
g45
sg9
L2L
sg14
Vhelper for pickle
p1125
sa(dp1126
g6
I01
sg7
g48
sg9
L5L
sa(dp1127
g6
I01
sg7
g50
sg9
L5L
sa(dp1128
g6
I01
sg7
g52
sg9
L2L
sg14
V__sizeof__() -> int\u000asize of object in memory, in bytes
p1129
sa(dp1130
g6
I01
sg7
g55
sg9
L5L
sa(dp1131
g6
I01
sg7
g57
sg9
L2L
sg14
VAbstract classes can override this to customize issubclass().\u000a\u000aThis is invoked early on by abc.ABCMeta.__subclasscheck__().\u000aIt should return True, False or NotImplemented.  If it returns\u000aNotImplemented, the normal algorithm is used.  Otherwise, it\u000aoverrides the normal algorithm (and the outcome is cached).\u000a
p1132
sa(dp1133
g6
I01
sg7
g97
sg9
L5L
sa(dp1134
g6
I01
sg7
g60
sg9
L5L
sa(dp1135
g6
I01
sg7
V_fields
p1136
sg9
L5L
sasg6
I01
sg7
VEllipsis
p1137
sg9
L3L
sg14
Nsa(dp1138
g1
(lp1139
(dp1140
g6
I01
sg7
g8
sg9
L5L
sa(dp1141
g6
I01
sg7
g11
sg9
L5L
sa(dp1142
g6
I01
sg7
g13
sg9
L2L
sg14
V__dir__() -> list\u000adefault dir() implementation
p1143
sa(dp1144
g6
I01
sg7
g17
sg9
L5L
sa(dp1145
g6
I01
sg7
g19
sg9
L5L
sa(dp1146
g6
I01
sg7
g21
sg9
L2L
sg14
Vdefault object formatter
p1147
sa(dp1148
g6
I01
sg7
g24
sg9
L5L
sa(dp1149
g6
I01
sg7
g26
sg9
L5L
sa(dp1150
g6
I01
sg7
g28
sg9
L5L
sa(dp1151
g6
I01
sg7
g30
sg9
L5L
sa(dp1152
g6
I01
sg7
g32
sg9
L5L
sa(dp1153
g6
I01
sg7
g34
sg9
L5L
sa(dp1154
g6
I01
sg7
g36
sg9
L5L
sa(dp1155
g6
I01
sg7
V__module__
p1156
sg9
L5L
sa(dp1157
g6
I01
sg7
g38
sg9
L5L
sa(dp1158
g6
I01
sg7
g40
sg9
L2L
sg14
VCreate and return a new object.  See help(type) for accurate signature.
p1159
sa(dp1160
g6
I01
sg7
g43
sg9
L2L
sg14
Nsa(dp1161
g6
I01
sg7
g45
sg9
L2L
sg14
Vhelper for pickle
p1162
sa(dp1163
g6
I01
sg7
g48
sg9
L5L
sa(dp1164
g6
I01
sg7
g50
sg9
L5L
sa(dp1165
g6
I01
sg7
g52
sg9
L2L
sg14
V__sizeof__() -> int\u000asize of object in memory, in bytes
p1166
sa(dp1167
g6
I01
sg7
g55
sg9
L5L
sa(dp1168
g6
I01
sg7
g57
sg9
L2L
sg14
VAbstract classes can override this to customize issubclass().\u000a\u000aThis is invoked early on by abc.ABCMeta.__subclasscheck__().\u000aIt should return True, False or NotImplemented.  If it returns\u000aNotImplemented, the normal algorithm is used.  Otherwise, it\u000aoverrides the normal algorithm (and the outcome is cached).\u000a
p1169
sa(dp1170
g6
I01
sg7
g97
sg9
L5L
sa(dp1171
g6
I01
sg7
g60
sg9
L5L
sa(dp1172
g6
I01
sg7
V_fields
p1173
sg9
L5L
sasg6
I01
sg7
VEq
p1174
sg9
L3L
sg14
Nsa(dp1175
g1
(lp1176
(dp1177
g6
I01
sg7
g8
sg9
L5L
sa(dp1178
g6
I01
sg7
g11
sg9
L5L
sa(dp1179
g6
I01
sg7
g13
sg9
L2L
sg14
V__dir__() -> list\u000adefault dir() implementation
p1180
sa(dp1181
g6
I01
sg7
g17
sg9
L5L
sa(dp1182
g6
I01
sg7
g19
sg9
L5L
sa(dp1183
g6
I01
sg7
g21
sg9
L2L
sg14
Vdefault object formatter
p1184
sa(dp1185
g6
I01
sg7
g24
sg9
L5L
sa(dp1186
g6
I01
sg7
g26
sg9
L5L
sa(dp1187
g6
I01
sg7
g28
sg9
L5L
sa(dp1188
g6
I01
sg7
g30
sg9
L5L
sa(dp1189
g6
I01
sg7
g32
sg9
L5L
sa(dp1190
g6
I01
sg7
g34
sg9
L5L
sa(dp1191
g6
I01
sg7
g36
sg9
L5L
sa(dp1192
g6
I01
sg7
V__module__
p1193
sg9
L5L
sa(dp1194
g6
I01
sg7
g38
sg9
L5L
sa(dp1195
g6
I01
sg7
g40
sg9
L2L
sg14
VCreate and return a new object.  See help(type) for accurate signature.
p1196
sa(dp1197
g6
I01
sg7
g43
sg9
L2L
sg14
Nsa(dp1198
g6
I01
sg7
g45
sg9
L2L
sg14
Vhelper for pickle
p1199
sa(dp1200
g6
I01
sg7
g48
sg9
L5L
sa(dp1201
g6
I01
sg7
g50
sg9
L5L
sa(dp1202
g6
I01
sg7
g52
sg9
L2L
sg14
V__sizeof__() -> int\u000asize of object in memory, in bytes
p1203
sa(dp1204
g6
I01
sg7
g55
sg9
L5L
sa(dp1205
g6
I01
sg7
g57
sg9
L2L
sg14
VAbstract classes can override this to customize issubclass().\u000a\u000aThis is invoked early on by abc.ABCMeta.__subclasscheck__().\u000aIt should return True, False or NotImplemented.  If it returns\u000aNotImplemented, the normal algorithm is used.  Otherwise, it\u000aoverrides the normal algorithm (and the outcome is cached).\u000a
p1206
sa(dp1207
g6
I01
sg7
g97
sg9
L5L
sa(dp1208
g6
I01
sg7
g60
sg9
L5L
sa(dp1209
g6
I01
sg7
V_fields
p1210
sg9
L5L
sasg6
I01
sg7
VExceptHandler
p1211
sg9
L3L
sg14
Nsa(dp1212
g1
(lp1213
(dp1214
g6
I01
sg7
g8
sg9
L5L
sa(dp1215
g6
I01
sg7
g11
sg9
L5L
sa(dp1216
g6
I01
sg7
g13
sg9
L2L
sg14
V__dir__() -> list\u000adefault dir() implementation
p1217
sa(dp1218
g6
I01
sg7
g17
sg9
L5L
sa(dp1219
g6
I01
sg7
g19
sg9
L5L
sa(dp1220
g6
I01
sg7
g21
sg9
L2L
sg14
Vdefault object formatter
p1221
sa(dp1222
g6
I01
sg7
g24
sg9
L5L
sa(dp1223
g6
I01
sg7
g26
sg9
L5L
sa(dp1224
g6
I01
sg7
g28
sg9
L5L
sa(dp1225
g6
I01
sg7
g30
sg9
L5L
sa(dp1226
g6
I01
sg7
g32
sg9
L5L
sa(dp1227
g6
I01
sg7
g34
sg9
L5L
sa(dp1228
g6
I01
sg7
g36
sg9
L5L
sa(dp1229
g6
I01
sg7
V__module__
p1230
sg9
L5L
sa(dp1231
g6
I01
sg7
g38
sg9
L5L
sa(dp1232
g6
I01
sg7
g40
sg9
L2L
sg14
VCreate and return a new object.  See help(type) for accurate signature.
p1233
sa(dp1234
g6
I01
sg7
g43
sg9
L2L
sg14
Nsa(dp1235
g6
I01
sg7
g45
sg9
L2L
sg14
Vhelper for pickle
p1236
sa(dp1237
g6
I01
sg7
g48
sg9
L5L
sa(dp1238
g6
I01
sg7
g50
sg9
L5L
sa(dp1239
g6
I01
sg7
g52
sg9
L2L
sg14
V__sizeof__() -> int\u000asize of object in memory, in bytes
p1240
sa(dp1241
g6
I01
sg7
g55
sg9
L5L
sa(dp1242
g6
I01
sg7
g57
sg9
L2L
sg14
VAbstract classes can override this to customize issubclass().\u000a\u000aThis is invoked early on by abc.ABCMeta.__subclasscheck__().\u000aIt should return True, False or NotImplemented.  If it returns\u000aNotImplemented, the normal algorithm is used.  Otherwise, it\u000aoverrides the normal algorithm (and the outcome is cached).\u000a
p1243
sa(dp1244
g6
I01
sg7
g97
sg9
L5L
sa(dp1245
g6
I01
sg7
g60
sg9
L5L
sa(dp1246
g6
I01
sg7
V_fields
p1247
sg9
L5L
sasg6
I01
sg7
VExpr
p1248
sg9
L3L
sg14
Nsa(dp1249
g1
(lp1250
(dp1251
g6
I01
sg7
g8
sg9
L5L
sa(dp1252
g6
I01
sg7
g11
sg9
L5L
sa(dp1253
g6
I01
sg7
g13
sg9
L2L
sg14
V__dir__() -> list\u000adefault dir() implementation
p1254
sa(dp1255
g6
I01
sg7
g17
sg9
L5L
sa(dp1256
g6
I01
sg7
g19
sg9
L5L
sa(dp1257
g6
I01
sg7
g21
sg9
L2L
sg14
Vdefault object formatter
p1258
sa(dp1259
g6
I01
sg7
g24
sg9
L5L
sa(dp1260
g6
I01
sg7
g26
sg9
L5L
sa(dp1261
g6
I01
sg7
g28
sg9
L5L
sa(dp1262
g6
I01
sg7
g30
sg9
L5L
sa(dp1263
g6
I01
sg7
g32
sg9
L5L
sa(dp1264
g6
I01
sg7
g34
sg9
L5L
sa(dp1265
g6
I01
sg7
g36
sg9
L5L
sa(dp1266
g6
I01
sg7
V__module__
p1267
sg9
L5L
sa(dp1268
g6
I01
sg7
g38
sg9
L5L
sa(dp1269
g6
I01
sg7
g40
sg9
L2L
sg14
VCreate and return a new object.  See help(type) for accurate signature.
p1270
sa(dp1271
g6
I01
sg7
g43
sg9
L2L
sg14
Nsa(dp1272
g6
I01
sg7
g45
sg9
L2L
sg14
Vhelper for pickle
p1273
sa(dp1274
g6
I01
sg7
g48
sg9
L5L
sa(dp1275
g6
I01
sg7
g50
sg9
L5L
sa(dp1276
g6
I01
sg7
g52
sg9
L2L
sg14
V__sizeof__() -> int\u000asize of object in memory, in bytes
p1277
sa(dp1278
g6
I01
sg7
g55
sg9
L5L
sa(dp1279
g6
I01
sg7
g57
sg9
L2L
sg14
VAbstract classes can override this to customize issubclass().\u000a\u000aThis is invoked early on by abc.ABCMeta.__subclasscheck__().\u000aIt should return True, False or NotImplemented.  If it returns\u000aNotImplemented, the normal algorithm is used.  Otherwise, it\u000aoverrides the normal algorithm (and the outcome is cached).\u000a
p1280
sa(dp1281
g6
I01
sg7
g97
sg9
L5L
sa(dp1282
g6
I01
sg7
g60
sg9
L5L
sa(dp1283
g6
I01
sg7
V_fields
p1284
sg9
L5L
sasg6
I01
sg7
VExpression
p1285
sg9
L3L
sg14
Nsa(dp1286
g1
(lp1287
(dp1288
g6
I01
sg7
g8
sg9
L5L
sa(dp1289
g6
I01
sg7
g11
sg9
L5L
sa(dp1290
g6
I01
sg7
g13
sg9
L2L
sg14
V__dir__() -> list\u000adefault dir() implementation
p1291
sa(dp1292
g6
I01
sg7
g17
sg9
L5L
sa(dp1293
g6
I01
sg7
g19
sg9
L5L
sa(dp1294
g6
I01
sg7
g21
sg9
L2L
sg14
Vdefault object formatter
p1295
sa(dp1296
g6
I01
sg7
g24
sg9
L5L
sa(dp1297
g6
I01
sg7
g26
sg9
L5L
sa(dp1298
g6
I01
sg7
g28
sg9
L5L
sa(dp1299
g6
I01
sg7
g30
sg9
L5L
sa(dp1300
g6
I01
sg7
g32
sg9
L5L
sa(dp1301
g6
I01
sg7
g34
sg9
L5L
sa(dp1302
g6
I01
sg7
g36
sg9
L5L
sa(dp1303
g6
I01
sg7
V__module__
p1304
sg9
L5L
sa(dp1305
g6
I01
sg7
g38
sg9
L5L
sa(dp1306
g6
I01
sg7
g40
sg9
L2L
sg14
VCreate and return a new object.  See help(type) for accurate signature.
p1307
sa(dp1308
g6
I01
sg7
g43
sg9
L2L
sg14
Nsa(dp1309
g6
I01
sg7
g45
sg9
L2L
sg14
Vhelper for pickle
p1310
sa(dp1311
g6
I01
sg7
g48
sg9
L5L
sa(dp1312
g6
I01
sg7
g50
sg9
L5L
sa(dp1313
g6
I01
sg7
g52
sg9
L2L
sg14
V__sizeof__() -> int\u000asize of object in memory, in bytes
p1314
sa(dp1315
g6
I01
sg7
g55
sg9
L5L
sa(dp1316
g6
I01
sg7
g57
sg9
L2L
sg14
VAbstract classes can override this to customize issubclass().\u000a\u000aThis is invoked early on by abc.ABCMeta.__subclasscheck__().\u000aIt should return True, False or NotImplemented.  If it returns\u000aNotImplemented, the normal algorithm is used.  Otherwise, it\u000aoverrides the normal algorithm (and the outcome is cached).\u000a
p1317
sa(dp1318
g6
I01
sg7
g97
sg9
L5L
sa(dp1319
g6
I01
sg7
g60
sg9
L5L
sa(dp1320
g6
I01
sg7
V_fields
p1321
sg9
L5L
sasg6
I01
sg7
VExtSlice
p1322
sg9
L3L
sg14
Nsa(dp1323
g1
(lp1324
(dp1325
g6
I01
sg7
g8
sg9
L5L
sa(dp1326
g6
I01
sg7
g11
sg9
L5L
sa(dp1327
g6
I01
sg7
g13
sg9
L2L
sg14
V__dir__() -> list\u000adefault dir() implementation
p1328
sa(dp1329
g6
I01
sg7
g17
sg9
L5L
sa(dp1330
g6
I01
sg7
g19
sg9
L5L
sa(dp1331
g6
I01
sg7
g21
sg9
L2L
sg14
Vdefault object formatter
p1332
sa(dp1333
g6
I01
sg7
g24
sg9
L5L
sa(dp1334
g6
I01
sg7
g26
sg9
L5L
sa(dp1335
g6
I01
sg7
g28
sg9
L5L
sa(dp1336
g6
I01
sg7
g30
sg9
L5L
sa(dp1337
g6
I01
sg7
g32
sg9
L5L
sa(dp1338
g6
I01
sg7
g34
sg9
L5L
sa(dp1339
g6
I01
sg7
g36
sg9
L5L
sa(dp1340
g6
I01
sg7
V__module__
p1341
sg9
L5L
sa(dp1342
g6
I01
sg7
g38
sg9
L5L
sa(dp1343
g6
I01
sg7
g40
sg9
L2L
sg14
VCreate and return a new object.  See help(type) for accurate signature.
p1344
sa(dp1345
g6
I01
sg7
g43
sg9
L2L
sg14
Nsa(dp1346
g6
I01
sg7
g45
sg9
L2L
sg14
Vhelper for pickle
p1347
sa(dp1348
g6
I01
sg7
g48
sg9
L5L
sa(dp1349
g6
I01
sg7
g50
sg9
L5L
sa(dp1350
g6
I01
sg7
g52
sg9
L2L
sg14
V__sizeof__() -> int\u000asize of object in memory, in bytes
p1351
sa(dp1352
g6
I01
sg7
g55
sg9
L5L
sa(dp1353
g6
I01
sg7
g57
sg9
L2L
sg14
VAbstract classes can override this to customize issubclass().\u000a\u000aThis is invoked early on by abc.ABCMeta.__subclasscheck__().\u000aIt should return True, False or NotImplemented.  If it returns\u000aNotImplemented, the normal algorithm is used.  Otherwise, it\u000aoverrides the normal algorithm (and the outcome is cached).\u000a
p1354
sa(dp1355
g6
I01
sg7
g97
sg9
L5L
sa(dp1356
g6
I01
sg7
g60
sg9
L5L
sa(dp1357
g6
I01
sg7
V_fields
p1358
sg9
L5L
sasg6
I01
sg7
VFloorDiv
p1359
sg9
L3L
sg14
Nsa(dp1360
g1
(lp1361
(dp1362
g6
I01
sg7
g8
sg9
L5L
sa(dp1363
g6
I01
sg7
g11
sg9
L5L
sa(dp1364
g6
I01
sg7
g13
sg9
L2L
sg14
V__dir__() -> list\u000adefault dir() implementation
p1365
sa(dp1366
g6
I01
sg7
g17
sg9
L5L
sa(dp1367
g6
I01
sg7
g19
sg9
L5L
sa(dp1368
g6
I01
sg7
g21
sg9
L2L
sg14
Vdefault object formatter
p1369
sa(dp1370
g6
I01
sg7
g24
sg9
L5L
sa(dp1371
g6
I01
sg7
g26
sg9
L5L
sa(dp1372
g6
I01
sg7
g28
sg9
L5L
sa(dp1373
g6
I01
sg7
g30
sg9
L5L
sa(dp1374
g6
I01
sg7
g32
sg9
L5L
sa(dp1375
g6
I01
sg7
g34
sg9
L5L
sa(dp1376
g6
I01
sg7
g36
sg9
L5L
sa(dp1377
g6
I01
sg7
V__module__
p1378
sg9
L5L
sa(dp1379
g6
I01
sg7
g38
sg9
L5L
sa(dp1380
g6
I01
sg7
g40
sg9
L2L
sg14
VCreate and return a new object.  See help(type) for accurate signature.
p1381
sa(dp1382
g6
I01
sg7
g43
sg9
L2L
sg14
Nsa(dp1383
g6
I01
sg7
g45
sg9
L2L
sg14
Vhelper for pickle
p1384
sa(dp1385
g6
I01
sg7
g48
sg9
L5L
sa(dp1386
g6
I01
sg7
g50
sg9
L5L
sa(dp1387
g6
I01
sg7
g52
sg9
L2L
sg14
V__sizeof__() -> int\u000asize of object in memory, in bytes
p1388
sa(dp1389
g6
I01
sg7
g55
sg9
L5L
sa(dp1390
g6
I01
sg7
g57
sg9
L2L
sg14
VAbstract classes can override this to customize issubclass().\u000a\u000aThis is invoked early on by abc.ABCMeta.__subclasscheck__().\u000aIt should return True, False or NotImplemented.  If it returns\u000aNotImplemented, the normal algorithm is used.  Otherwise, it\u000aoverrides the normal algorithm (and the outcome is cached).\u000a
p1391
sa(dp1392
g6
I01
sg7
g97
sg9
L5L
sa(dp1393
g6
I01
sg7
g60
sg9
L5L
sa(dp1394
g6
I01
sg7
V_fields
p1395
sg9
L5L
sasg6
I01
sg7
VFor
p1396
sg9
L3L
sg14
Nsa(dp1397
g1
(lp1398
(dp1399
g6
I01
sg7
g8
sg9
L5L
sa(dp1400
g6
I01
sg7
g11
sg9
L5L
sa(dp1401
g6
I01
sg7
g13
sg9
L2L
sg14
V__dir__() -> list\u000adefault dir() implementation
p1402
sa(dp1403
g6
I01
sg7
g17
sg9
L5L
sa(dp1404
g6
I01
sg7
g19
sg9
L5L
sa(dp1405
g6
I01
sg7
g21
sg9
L2L
sg14
Vdefault object formatter
p1406
sa(dp1407
g6
I01
sg7
g24
sg9
L5L
sa(dp1408
g6
I01
sg7
g26
sg9
L5L
sa(dp1409
g6
I01
sg7
g28
sg9
L5L
sa(dp1410
g6
I01
sg7
g30
sg9
L5L
sa(dp1411
g6
I01
sg7
g32
sg9
L5L
sa(dp1412
g6
I01
sg7
g34
sg9
L5L
sa(dp1413
g6
I01
sg7
g36
sg9
L5L
sa(dp1414
g6
I01
sg7
V__module__
p1415
sg9
L5L
sa(dp1416
g6
I01
sg7
g38
sg9
L5L
sa(dp1417
g6
I01
sg7
g40
sg9
L2L
sg14
VCreate and return a new object.  See help(type) for accurate signature.
p1418
sa(dp1419
g6
I01
sg7
g43
sg9
L2L
sg14
Nsa(dp1420
g6
I01
sg7
g45
sg9
L2L
sg14
Vhelper for pickle
p1421
sa(dp1422
g6
I01
sg7
g48
sg9
L5L
sa(dp1423
g6
I01
sg7
g50
sg9
L5L
sa(dp1424
g6
I01
sg7
g52
sg9
L2L
sg14
V__sizeof__() -> int\u000asize of object in memory, in bytes
p1425
sa(dp1426
g6
I01
sg7
g55
sg9
L5L
sa(dp1427
g6
I01
sg7
g57
sg9
L2L
sg14
VAbstract classes can override this to customize issubclass().\u000a\u000aThis is invoked early on by abc.ABCMeta.__subclasscheck__().\u000aIt should return True, False or NotImplemented.  If it returns\u000aNotImplemented, the normal algorithm is used.  Otherwise, it\u000aoverrides the normal algorithm (and the outcome is cached).\u000a
p1428
sa(dp1429
g6
I01
sg7
g97
sg9
L5L
sa(dp1430
g6
I01
sg7
g60
sg9
L5L
sa(dp1431
g6
I01
sg7
V_fields
p1432
sg9
L5L
sasg6
I01
sg7
VFunctionDef
p1433
sg9
L3L
sg14
Nsa(dp1434
g1
(lp1435
(dp1436
g6
I01
sg7
g8
sg9
L5L
sa(dp1437
g6
I01
sg7
g11
sg9
L5L
sa(dp1438
g6
I01
sg7
g13
sg9
L2L
sg14
V__dir__() -> list\u000adefault dir() implementation
p1439
sa(dp1440
g6
I01
sg7
g17
sg9
L5L
sa(dp1441
g6
I01
sg7
g19
sg9
L5L
sa(dp1442
g6
I01
sg7
g21
sg9
L2L
sg14
Vdefault object formatter
p1443
sa(dp1444
g6
I01
sg7
g24
sg9
L5L
sa(dp1445
g6
I01
sg7
g26
sg9
L5L
sa(dp1446
g6
I01
sg7
g28
sg9
L5L
sa(dp1447
g6
I01
sg7
g30
sg9
L5L
sa(dp1448
g6
I01
sg7
g32
sg9
L5L
sa(dp1449
g6
I01
sg7
g34
sg9
L5L
sa(dp1450
g6
I01
sg7
g36
sg9
L5L
sa(dp1451
g6
I01
sg7
V__module__
p1452
sg9
L5L
sa(dp1453
g6
I01
sg7
g38
sg9
L5L
sa(dp1454
g6
I01
sg7
g40
sg9
L2L
sg14
VCreate and return a new object.  See help(type) for accurate signature.
p1455
sa(dp1456
g6
I01
sg7
g43
sg9
L2L
sg14
Nsa(dp1457
g6
I01
sg7
g45
sg9
L2L
sg14
Vhelper for pickle
p1458
sa(dp1459
g6
I01
sg7
g48
sg9
L5L
sa(dp1460
g6
I01
sg7
g50
sg9
L5L
sa(dp1461
g6
I01
sg7
g52
sg9
L2L
sg14
V__sizeof__() -> int\u000asize of object in memory, in bytes
p1462
sa(dp1463
g6
I01
sg7
g55
sg9
L5L
sa(dp1464
g6
I01
sg7
g57
sg9
L2L
sg14
VAbstract classes can override this to customize issubclass().\u000a\u000aThis is invoked early on by abc.ABCMeta.__subclasscheck__().\u000aIt should return True, False or NotImplemented.  If it returns\u000aNotImplemented, the normal algorithm is used.  Otherwise, it\u000aoverrides the normal algorithm (and the outcome is cached).\u000a
p1465
sa(dp1466
g6
I01
sg7
g97
sg9
L5L
sa(dp1467
g6
I01
sg7
g60
sg9
L5L
sa(dp1468
g6
I01
sg7
V_fields
p1469
sg9
L5L
sasg6
I01
sg7
VGeneratorExp
p1470
sg9
L3L
sg14
Nsa(dp1471
g1
(lp1472
(dp1473
g6
I01
sg7
g8
sg9
L5L
sa(dp1474
g6
I01
sg7
g11
sg9
L5L
sa(dp1475
g6
I01
sg7
g13
sg9
L2L
sg14
V__dir__() -> list\u000adefault dir() implementation
p1476
sa(dp1477
g6
I01
sg7
g17
sg9
L5L
sa(dp1478
g6
I01
sg7
g19
sg9
L5L
sa(dp1479
g6
I01
sg7
g21
sg9
L2L
sg14
Vdefault object formatter
p1480
sa(dp1481
g6
I01
sg7
g24
sg9
L5L
sa(dp1482
g6
I01
sg7
g26
sg9
L5L
sa(dp1483
g6
I01
sg7
g28
sg9
L5L
sa(dp1484
g6
I01
sg7
g30
sg9
L5L
sa(dp1485
g6
I01
sg7
g32
sg9
L5L
sa(dp1486
g6
I01
sg7
g34
sg9
L5L
sa(dp1487
g6
I01
sg7
g36
sg9
L5L
sa(dp1488
g6
I01
sg7
V__module__
p1489
sg9
L5L
sa(dp1490
g6
I01
sg7
g38
sg9
L5L
sa(dp1491
g6
I01
sg7
g40
sg9
L2L
sg14
VCreate and return a new object.  See help(type) for accurate signature.
p1492
sa(dp1493
g6
I01
sg7
g43
sg9
L2L
sg14
Nsa(dp1494
g6
I01
sg7
g45
sg9
L2L
sg14
Vhelper for pickle
p1495
sa(dp1496
g6
I01
sg7
g48
sg9
L5L
sa(dp1497
g6
I01
sg7
g50
sg9
L5L
sa(dp1498
g6
I01
sg7
g52
sg9
L2L
sg14
V__sizeof__() -> int\u000asize of object in memory, in bytes
p1499
sa(dp1500
g6
I01
sg7
g55
sg9
L5L
sa(dp1501
g6
I01
sg7
g57
sg9
L2L
sg14
VAbstract classes can override this to customize issubclass().\u000a\u000aThis is invoked early on by abc.ABCMeta.__subclasscheck__().\u000aIt should return True, False or NotImplemented.  If it returns\u000aNotImplemented, the normal algorithm is used.  Otherwise, it\u000aoverrides the normal algorithm (and the outcome is cached).\u000a
p1502
sa(dp1503
g6
I01
sg7
g97
sg9
L5L
sa(dp1504
g6
I01
sg7
g60
sg9
L5L
sa(dp1505
g6
I01
sg7
V_fields
p1506
sg9
L5L
sasg6
I01
sg7
VGlobal
p1507
sg9
L3L
sg14
Nsa(dp1508
g1
(lp1509
(dp1510
g6
I01
sg7
g8
sg9
L5L
sa(dp1511
g6
I01
sg7
g11
sg9
L5L
sa(dp1512
g6
I01
sg7
g13
sg9
L2L
sg14
V__dir__() -> list\u000adefault dir() implementation
p1513
sa(dp1514
g6
I01
sg7
g17
sg9
L5L
sa(dp1515
g6
I01
sg7
g19
sg9
L5L
sa(dp1516
g6
I01
sg7
g21
sg9
L2L
sg14
Vdefault object formatter
p1517
sa(dp1518
g6
I01
sg7
g24
sg9
L5L
sa(dp1519
g6
I01
sg7
g26
sg9
L5L
sa(dp1520
g6
I01
sg7
g28
sg9
L5L
sa(dp1521
g6
I01
sg7
g30
sg9
L5L
sa(dp1522
g6
I01
sg7
g32
sg9
L5L
sa(dp1523
g6
I01
sg7
g34
sg9
L5L
sa(dp1524
g6
I01
sg7
g36
sg9
L5L
sa(dp1525
g6
I01
sg7
V__module__
p1526
sg9
L5L
sa(dp1527
g6
I01
sg7
g38
sg9
L5L
sa(dp1528
g6
I01
sg7
g40
sg9
L2L
sg14
VCreate and return a new object.  See help(type) for accurate signature.
p1529
sa(dp1530
g6
I01
sg7
g43
sg9
L2L
sg14
Nsa(dp1531
g6
I01
sg7
g45
sg9
L2L
sg14
Vhelper for pickle
p1532
sa(dp1533
g6
I01
sg7
g48
sg9
L5L
sa(dp1534
g6
I01
sg7
g50
sg9
L5L
sa(dp1535
g6
I01
sg7
g52
sg9
L2L
sg14
V__sizeof__() -> int\u000asize of object in memory, in bytes
p1536
sa(dp1537
g6
I01
sg7
g55
sg9
L5L
sa(dp1538
g6
I01
sg7
g57
sg9
L2L
sg14
VAbstract classes can override this to customize issubclass().\u000a\u000aThis is invoked early on by abc.ABCMeta.__subclasscheck__().\u000aIt should return True, False or NotImplemented.  If it returns\u000aNotImplemented, the normal algorithm is used.  Otherwise, it\u000aoverrides the normal algorithm (and the outcome is cached).\u000a
p1539
sa(dp1540
g6
I01
sg7
g97
sg9
L5L
sa(dp1541
g6
I01
sg7
g60
sg9
L5L
sa(dp1542
g6
I01
sg7
V_fields
p1543
sg9
L5L
sasg6
I01
sg7
VGt
p1544
sg9
L3L
sg14
Nsa(dp1545
g1
(lp1546
(dp1547
g6
I01
sg7
g8
sg9
L5L
sa(dp1548
g6
I01
sg7
g11
sg9
L5L
sa(dp1549
g6
I01
sg7
g13
sg9
L2L
sg14
V__dir__() -> list\u000adefault dir() implementation
p1550
sa(dp1551
g6
I01
sg7
g17
sg9
L5L
sa(dp1552
g6
I01
sg7
g19
sg9
L5L
sa(dp1553
g6
I01
sg7
g21
sg9
L2L
sg14
Vdefault object formatter
p1554
sa(dp1555
g6
I01
sg7
g24
sg9
L5L
sa(dp1556
g6
I01
sg7
g26
sg9
L5L
sa(dp1557
g6
I01
sg7
g28
sg9
L5L
sa(dp1558
g6
I01
sg7
g30
sg9
L5L
sa(dp1559
g6
I01
sg7
g32
sg9
L5L
sa(dp1560
g6
I01
sg7
g34
sg9
L5L
sa(dp1561
g6
I01
sg7
g36
sg9
L5L
sa(dp1562
g6
I01
sg7
V__module__
p1563
sg9
L5L
sa(dp1564
g6
I01
sg7
g38
sg9
L5L
sa(dp1565
g6
I01
sg7
g40
sg9
L2L
sg14
VCreate and return a new object.  See help(type) for accurate signature.
p1566
sa(dp1567
g6
I01
sg7
g43
sg9
L2L
sg14
Nsa(dp1568
g6
I01
sg7
g45
sg9
L2L
sg14
Vhelper for pickle
p1569
sa(dp1570
g6
I01
sg7
g48
sg9
L5L
sa(dp1571
g6
I01
sg7
g50
sg9
L5L
sa(dp1572
g6
I01
sg7
g52
sg9
L2L
sg14
V__sizeof__() -> int\u000asize of object in memory, in bytes
p1573
sa(dp1574
g6
I01
sg7
g55
sg9
L5L
sa(dp1575
g6
I01
sg7
g57
sg9
L2L
sg14
VAbstract classes can override this to customize issubclass().\u000a\u000aThis is invoked early on by abc.ABCMeta.__subclasscheck__().\u000aIt should return True, False or NotImplemented.  If it returns\u000aNotImplemented, the normal algorithm is used.  Otherwise, it\u000aoverrides the normal algorithm (and the outcome is cached).\u000a
p1576
sa(dp1577
g6
I01
sg7
g97
sg9
L5L
sa(dp1578
g6
I01
sg7
g60
sg9
L5L
sa(dp1579
g6
I01
sg7
V_fields
p1580
sg9
L5L
sasg6
I01
sg7
VGtE
p1581
sg9
L3L
sg14
Nsa(dp1582
g1
(lp1583
(dp1584
g6
I01
sg7
g8
sg9
L5L
sa(dp1585
g6
I01
sg7
g11
sg9
L5L
sa(dp1586
g6
I01
sg7
g13
sg9
L2L
sg14
V__dir__() -> list\u000adefault dir() implementation
p1587
sa(dp1588
g6
I01
sg7
g17
sg9
L5L
sa(dp1589
g6
I01
sg7
g19
sg9
L5L
sa(dp1590
g6
I01
sg7
g21
sg9
L2L
sg14
Vdefault object formatter
p1591
sa(dp1592
g6
I01
sg7
g24
sg9
L5L
sa(dp1593
g6
I01
sg7
g26
sg9
L5L
sa(dp1594
g6
I01
sg7
g28
sg9
L5L
sa(dp1595
g6
I01
sg7
g30
sg9
L5L
sa(dp1596
g6
I01
sg7
g32
sg9
L5L
sa(dp1597
g6
I01
sg7
g34
sg9
L5L
sa(dp1598
g6
I01
sg7
g36
sg9
L5L
sa(dp1599
g6
I01
sg7
V__module__
p1600
sg9
L5L
sa(dp1601
g6
I01
sg7
g38
sg9
L5L
sa(dp1602
g6
I01
sg7
g40
sg9
L2L
sg14
VCreate and return a new object.  See help(type) for accurate signature.
p1603
sa(dp1604
g6
I01
sg7
g43
sg9
L2L
sg14
Nsa(dp1605
g6
I01
sg7
g45
sg9
L2L
sg14
Vhelper for pickle
p1606
sa(dp1607
g6
I01
sg7
g48
sg9
L5L
sa(dp1608
g6
I01
sg7
g50
sg9
L5L
sa(dp1609
g6
I01
sg7
g52
sg9
L2L
sg14
V__sizeof__() -> int\u000asize of object in memory, in bytes
p1610
sa(dp1611
g6
I01
sg7
g55
sg9
L5L
sa(dp1612
g6
I01
sg7
g57
sg9
L2L
sg14
VAbstract classes can override this to customize issubclass().\u000a\u000aThis is invoked early on by abc.ABCMeta.__subclasscheck__().\u000aIt should return True, False or NotImplemented.  If it returns\u000aNotImplemented, the normal algorithm is used.  Otherwise, it\u000aoverrides the normal algorithm (and the outcome is cached).\u000a
p1613
sa(dp1614
g6
I01
sg7
g97
sg9
L5L
sa(dp1615
g6
I01
sg7
g60
sg9
L5L
sa(dp1616
g6
I01
sg7
V_fields
p1617
sg9
L5L
sasg6
I01
sg7
VIf
p1618
sg9
L3L
sg14
Nsa(dp1619
g1
(lp1620
(dp1621
g6
I01
sg7
g8
sg9
L5L
sa(dp1622
g6
I01
sg7
g11
sg9
L5L
sa(dp1623
g6
I01
sg7
g13
sg9
L2L
sg14
V__dir__() -> list\u000adefault dir() implementation
p1624
sa(dp1625
g6
I01
sg7
g17
sg9
L5L
sa(dp1626
g6
I01
sg7
g19
sg9
L5L
sa(dp1627
g6
I01
sg7
g21
sg9
L2L
sg14
Vdefault object formatter
p1628
sa(dp1629
g6
I01
sg7
g24
sg9
L5L
sa(dp1630
g6
I01
sg7
g26
sg9
L5L
sa(dp1631
g6
I01
sg7
g28
sg9
L5L
sa(dp1632
g6
I01
sg7
g30
sg9
L5L
sa(dp1633
g6
I01
sg7
g32
sg9
L5L
sa(dp1634
g6
I01
sg7
g34
sg9
L5L
sa(dp1635
g6
I01
sg7
g36
sg9
L5L
sa(dp1636
g6
I01
sg7
V__module__
p1637
sg9
L5L
sa(dp1638
g6
I01
sg7
g38
sg9
L5L
sa(dp1639
g6
I01
sg7
g40
sg9
L2L
sg14
VCreate and return a new object.  See help(type) for accurate signature.
p1640
sa(dp1641
g6
I01
sg7
g43
sg9
L2L
sg14
Nsa(dp1642
g6
I01
sg7
g45
sg9
L2L
sg14
Vhelper for pickle
p1643
sa(dp1644
g6
I01
sg7
g48
sg9
L5L
sa(dp1645
g6
I01
sg7
g50
sg9
L5L
sa(dp1646
g6
I01
sg7
g52
sg9
L2L
sg14
V__sizeof__() -> int\u000asize of object in memory, in bytes
p1647
sa(dp1648
g6
I01
sg7
g55
sg9
L5L
sa(dp1649
g6
I01
sg7
g57
sg9
L2L
sg14
VAbstract classes can override this to customize issubclass().\u000a\u000aThis is invoked early on by abc.ABCMeta.__subclasscheck__().\u000aIt should return True, False or NotImplemented.  If it returns\u000aNotImplemented, the normal algorithm is used.  Otherwise, it\u000aoverrides the normal algorithm (and the outcome is cached).\u000a
p1650
sa(dp1651
g6
I01
sg7
g97
sg9
L5L
sa(dp1652
g6
I01
sg7
g60
sg9
L5L
sa(dp1653
g6
I01
sg7
V_fields
p1654
sg9
L5L
sasg6
I01
sg7
VIfExp
p1655
sg9
L3L
sg14
Nsa(dp1656
g1
(lp1657
(dp1658
g6
I01
sg7
g8
sg9
L5L
sa(dp1659
g6
I01
sg7
g11
sg9
L5L
sa(dp1660
g6
I01
sg7
g13
sg9
L2L
sg14
V__dir__() -> list\u000adefault dir() implementation
p1661
sa(dp1662
g6
I01
sg7
g17
sg9
L5L
sa(dp1663
g6
I01
sg7
g19
sg9
L5L
sa(dp1664
g6
I01
sg7
g21
sg9
L2L
sg14
Vdefault object formatter
p1665
sa(dp1666
g6
I01
sg7
g24
sg9
L5L
sa(dp1667
g6
I01
sg7
g26
sg9
L5L
sa(dp1668
g6
I01
sg7
g28
sg9
L5L
sa(dp1669
g6
I01
sg7
g30
sg9
L5L
sa(dp1670
g6
I01
sg7
g32
sg9
L5L
sa(dp1671
g6
I01
sg7
g34
sg9
L5L
sa(dp1672
g6
I01
sg7
g36
sg9
L5L
sa(dp1673
g6
I01
sg7
V__module__
p1674
sg9
L5L
sa(dp1675
g6
I01
sg7
g38
sg9
L5L
sa(dp1676
g6
I01
sg7
g40
sg9
L2L
sg14
VCreate and return a new object.  See help(type) for accurate signature.
p1677
sa(dp1678
g6
I01
sg7
g43
sg9
L2L
sg14
Nsa(dp1679
g6
I01
sg7
g45
sg9
L2L
sg14
Vhelper for pickle
p1680
sa(dp1681
g6
I01
sg7
g48
sg9
L5L
sa(dp1682
g6
I01
sg7
g50
sg9
L5L
sa(dp1683
g6
I01
sg7
g52
sg9
L2L
sg14
V__sizeof__() -> int\u000asize of object in memory, in bytes
p1684
sa(dp1685
g6
I01
sg7
g55
sg9
L5L
sa(dp1686
g6
I01
sg7
g57
sg9
L2L
sg14
VAbstract classes can override this to customize issubclass().\u000a\u000aThis is invoked early on by abc.ABCMeta.__subclasscheck__().\u000aIt should return True, False or NotImplemented.  If it returns\u000aNotImplemented, the normal algorithm is used.  Otherwise, it\u000aoverrides the normal algorithm (and the outcome is cached).\u000a
p1687
sa(dp1688
g6
I01
sg7
g97
sg9
L5L
sa(dp1689
g6
I01
sg7
g60
sg9
L5L
sa(dp1690
g6
I01
sg7
V_fields
p1691
sg9
L5L
sasg6
I01
sg7
VImport
p1692
sg9
L3L
sg14
Nsa(dp1693
g1
(lp1694
(dp1695
g6
I01
sg7
g8
sg9
L5L
sa(dp1696
g6
I01
sg7
g11
sg9
L5L
sa(dp1697
g6
I01
sg7
g13
sg9
L2L
sg14
V__dir__() -> list\u000adefault dir() implementation
p1698
sa(dp1699
g6
I01
sg7
g17
sg9
L5L
sa(dp1700
g6
I01
sg7
g19
sg9
L5L
sa(dp1701
g6
I01
sg7
g21
sg9
L2L
sg14
Vdefault object formatter
p1702
sa(dp1703
g6
I01
sg7
g24
sg9
L5L
sa(dp1704
g6
I01
sg7
g26
sg9
L5L
sa(dp1705
g6
I01
sg7
g28
sg9
L5L
sa(dp1706
g6
I01
sg7
g30
sg9
L5L
sa(dp1707
g6
I01
sg7
g32
sg9
L5L
sa(dp1708
g6
I01
sg7
g34
sg9
L5L
sa(dp1709
g6
I01
sg7
g36
sg9
L5L
sa(dp1710
g6
I01
sg7
V__module__
p1711
sg9
L5L
sa(dp1712
g6
I01
sg7
g38
sg9
L5L
sa(dp1713
g6
I01
sg7
g40
sg9
L2L
sg14
VCreate and return a new object.  See help(type) for accurate signature.
p1714
sa(dp1715
g6
I01
sg7
g43
sg9
L2L
sg14
Nsa(dp1716
g6
I01
sg7
g45
sg9
L2L
sg14
Vhelper for pickle
p1717
sa(dp1718
g6
I01
sg7
g48
sg9
L5L
sa(dp1719
g6
I01
sg7
g50
sg9
L5L
sa(dp1720
g6
I01
sg7
g52
sg9
L2L
sg14
V__sizeof__() -> int\u000asize of object in memory, in bytes
p1721
sa(dp1722
g6
I01
sg7
g55
sg9
L5L
sa(dp1723
g6
I01
sg7
g57
sg9
L2L
sg14
VAbstract classes can override this to customize issubclass().\u000a\u000aThis is invoked early on by abc.ABCMeta.__subclasscheck__().\u000aIt should return True, False or NotImplemented.  If it returns\u000aNotImplemented, the normal algorithm is used.  Otherwise, it\u000aoverrides the normal algorithm (and the outcome is cached).\u000a
p1724
sa(dp1725
g6
I01
sg7
g97
sg9
L5L
sa(dp1726
g6
I01
sg7
g60
sg9
L5L
sa(dp1727
g6
I01
sg7
V_fields
p1728
sg9
L5L
sasg6
I01
sg7
VImportFrom
p1729
sg9
L3L
sg14
Nsa(dp1730
g1
(lp1731
(dp1732
g6
I01
sg7
g8
sg9
L5L
sa(dp1733
g6
I01
sg7
g11
sg9
L5L
sa(dp1734
g6
I01
sg7
g13
sg9
L2L
sg14
V__dir__() -> list\u000adefault dir() implementation
p1735
sa(dp1736
g6
I01
sg7
g17
sg9
L5L
sa(dp1737
g6
I01
sg7
g19
sg9
L5L
sa(dp1738
g6
I01
sg7
g21
sg9
L2L
sg14
Vdefault object formatter
p1739
sa(dp1740
g6
I01
sg7
g24
sg9
L5L
sa(dp1741
g6
I01
sg7
g26
sg9
L5L
sa(dp1742
g6
I01
sg7
g28
sg9
L5L
sa(dp1743
g6
I01
sg7
g30
sg9
L5L
sa(dp1744
g6
I01
sg7
g32
sg9
L5L
sa(dp1745
g6
I01
sg7
g34
sg9
L5L
sa(dp1746
g6
I01
sg7
g36
sg9
L5L
sa(dp1747
g6
I01
sg7
V__module__
p1748
sg9
L5L
sa(dp1749
g6
I01
sg7
g38
sg9
L5L
sa(dp1750
g6
I01
sg7
g40
sg9
L2L
sg14
VCreate and return a new object.  See help(type) for accurate signature.
p1751
sa(dp1752
g6
I01
sg7
g43
sg9
L2L
sg14
Nsa(dp1753
g6
I01
sg7
g45
sg9
L2L
sg14
Vhelper for pickle
p1754
sa(dp1755
g6
I01
sg7
g48
sg9
L5L
sa(dp1756
g6
I01
sg7
g50
sg9
L5L
sa(dp1757
g6
I01
sg7
g52
sg9
L2L
sg14
V__sizeof__() -> int\u000asize of object in memory, in bytes
p1758
sa(dp1759
g6
I01
sg7
g55
sg9
L5L
sa(dp1760
g6
I01
sg7
g57
sg9
L2L
sg14
VAbstract classes can override this to customize issubclass().\u000a\u000aThis is invoked early on by abc.ABCMeta.__subclasscheck__().\u000aIt should return True, False or NotImplemented.  If it returns\u000aNotImplemented, the normal algorithm is used.  Otherwise, it\u000aoverrides the normal algorithm (and the outcome is cached).\u000a
p1761
sa(dp1762
g6
I01
sg7
g97
sg9
L5L
sa(dp1763
g6
I01
sg7
g60
sg9
L5L
sa(dp1764
g6
I01
sg7
V_fields
p1765
sg9
L5L
sasg6
I01
sg7
VIn
p1766
sg9
L3L
sg14
Nsa(dp1767
g1
(lp1768
(dp1769
g6
I01
sg7
g8
sg9
L5L
sa(dp1770
g6
I01
sg7
g11
sg9
L5L
sa(dp1771
g6
I01
sg7
g13
sg9
L2L
sg14
V__dir__() -> list\u000adefault dir() implementation
p1772
sa(dp1773
g6
I01
sg7
g17
sg9
L5L
sa(dp1774
g6
I01
sg7
g19
sg9
L5L
sa(dp1775
g6
I01
sg7
g21
sg9
L2L
sg14
Vdefault object formatter
p1776
sa(dp1777
g6
I01
sg7
g24
sg9
L5L
sa(dp1778
g6
I01
sg7
g26
sg9
L5L
sa(dp1779
g6
I01
sg7
g28
sg9
L5L
sa(dp1780
g6
I01
sg7
g30
sg9
L5L
sa(dp1781
g6
I01
sg7
g32
sg9
L5L
sa(dp1782
g6
I01
sg7
g34
sg9
L5L
sa(dp1783
g6
I01
sg7
g36
sg9
L5L
sa(dp1784
g6
I01
sg7
V__module__
p1785
sg9
L5L
sa(dp1786
g6
I01
sg7
g38
sg9
L5L
sa(dp1787
g6
I01
sg7
g40
sg9
L2L
sg14
VCreate and return a new object.  See help(type) for accurate signature.
p1788
sa(dp1789
g6
I01
sg7
g43
sg9
L2L
sg14
Nsa(dp1790
g6
I01
sg7
g45
sg9
L2L
sg14
Vhelper for pickle
p1791
sa(dp1792
g6
I01
sg7
g48
sg9
L5L
sa(dp1793
g6
I01
sg7
g50
sg9
L5L
sa(dp1794
g6
I01
sg7
g52
sg9
L2L
sg14
V__sizeof__() -> int\u000asize of object in memory, in bytes
p1795
sa(dp1796
g6
I01
sg7
g55
sg9
L5L
sa(dp1797
g6
I01
sg7
g57
sg9
L2L
sg14
VAbstract classes can override this to customize issubclass().\u000a\u000aThis is invoked early on by abc.ABCMeta.__subclasscheck__().\u000aIt should return True, False or NotImplemented.  If it returns\u000aNotImplemented, the normal algorithm is used.  Otherwise, it\u000aoverrides the normal algorithm (and the outcome is cached).\u000a
p1798
sa(dp1799
g6
I01
sg7
g97
sg9
L5L
sa(dp1800
g6
I01
sg7
g60
sg9
L5L
sa(dp1801
g6
I01
sg7
V_fields
p1802
sg9
L5L
sasg6
I01
sg7
VIndex
p1803
sg9
L3L
sg14
Nsa(dp1804
g1
(lp1805
(dp1806
g6
I01
sg7
g8
sg9
L5L
sa(dp1807
g6
I01
sg7
g11
sg9
L5L
sa(dp1808
g6
I01
sg7
g13
sg9
L2L
sg14
V__dir__() -> list\u000adefault dir() implementation
p1809
sa(dp1810
g6
I01
sg7
g17
sg9
L5L
sa(dp1811
g6
I01
sg7
g19
sg9
L5L
sa(dp1812
g6
I01
sg7
g21
sg9
L2L
sg14
Vdefault object formatter
p1813
sa(dp1814
g6
I01
sg7
g24
sg9
L5L
sa(dp1815
g6
I01
sg7
g26
sg9
L5L
sa(dp1816
g6
I01
sg7
g28
sg9
L5L
sa(dp1817
g6
I01
sg7
g30
sg9
L5L
sa(dp1818
g6
I01
sg7
g32
sg9
L5L
sa(dp1819
g6
I01
sg7
g34
sg9
L5L
sa(dp1820
g6
I01
sg7
g36
sg9
L5L
sa(dp1821
g6
I01
sg7
V__module__
p1822
sg9
L5L
sa(dp1823
g6
I01
sg7
g38
sg9
L5L
sa(dp1824
g6
I01
sg7
g40
sg9
L2L
sg14
VCreate and return a new object.  See help(type) for accurate signature.
p1825
sa(dp1826
g6
I01
sg7
g43
sg9
L2L
sg14
Nsa(dp1827
g6
I01
sg7
g45
sg9
L2L
sg14
Vhelper for pickle
p1828
sa(dp1829
g6
I01
sg7
g48
sg9
L5L
sa(dp1830
g6
I01
sg7
g50
sg9
L5L
sa(dp1831
g6
I01
sg7
g52
sg9
L2L
sg14
V__sizeof__() -> int\u000asize of object in memory, in bytes
p1832
sa(dp1833
g6
I01
sg7
g55
sg9
L5L
sa(dp1834
g6
I01
sg7
g57
sg9
L2L
sg14
VAbstract classes can override this to customize issubclass().\u000a\u000aThis is invoked early on by abc.ABCMeta.__subclasscheck__().\u000aIt should return True, False or NotImplemented.  If it returns\u000aNotImplemented, the normal algorithm is used.  Otherwise, it\u000aoverrides the normal algorithm (and the outcome is cached).\u000a
p1835
sa(dp1836
g6
I01
sg7
g97
sg9
L5L
sa(dp1837
g6
I01
sg7
g60
sg9
L5L
sa(dp1838
g6
I01
sg7
V_fields
p1839
sg9
L5L
sasg6
I01
sg7
VInteractive
p1840
sg9
L3L
sg14
Nsa(dp1841
g1
(lp1842
(dp1843
g6
I01
sg7
g8
sg9
L5L
sa(dp1844
g6
I01
sg7
g11
sg9
L5L
sa(dp1845
g6
I01
sg7
g13
sg9
L2L
sg14
V__dir__() -> list\u000adefault dir() implementation
p1846
sa(dp1847
g6
I01
sg7
g17
sg9
L5L
sa(dp1848
g6
I01
sg7
g19
sg9
L5L
sa(dp1849
g6
I01
sg7
g21
sg9
L2L
sg14
Vdefault object formatter
p1850
sa(dp1851
g6
I01
sg7
g24
sg9
L5L
sa(dp1852
g6
I01
sg7
g26
sg9
L5L
sa(dp1853
g6
I01
sg7
g28
sg9
L5L
sa(dp1854
g6
I01
sg7
g30
sg9
L5L
sa(dp1855
g6
I01
sg7
g32
sg9
L5L
sa(dp1856
g6
I01
sg7
g34
sg9
L5L
sa(dp1857
g6
I01
sg7
g36
sg9
L5L
sa(dp1858
g6
I01
sg7
V__module__
p1859
sg9
L5L
sa(dp1860
g6
I01
sg7
g38
sg9
L5L
sa(dp1861
g6
I01
sg7
g40
sg9
L2L
sg14
VCreate and return a new object.  See help(type) for accurate signature.
p1862
sa(dp1863
g6
I01
sg7
g43
sg9
L2L
sg14
Nsa(dp1864
g6
I01
sg7
g45
sg9
L2L
sg14
Vhelper for pickle
p1865
sa(dp1866
g6
I01
sg7
g48
sg9
L5L
sa(dp1867
g6
I01
sg7
g50
sg9
L5L
sa(dp1868
g6
I01
sg7
g52
sg9
L2L
sg14
V__sizeof__() -> int\u000asize of object in memory, in bytes
p1869
sa(dp1870
g6
I01
sg7
g55
sg9
L5L
sa(dp1871
g6
I01
sg7
g57
sg9
L2L
sg14
VAbstract classes can override this to customize issubclass().\u000a\u000aThis is invoked early on by abc.ABCMeta.__subclasscheck__().\u000aIt should return True, False or NotImplemented.  If it returns\u000aNotImplemented, the normal algorithm is used.  Otherwise, it\u000aoverrides the normal algorithm (and the outcome is cached).\u000a
p1872
sa(dp1873
g6
I01
sg7
g97
sg9
L5L
sa(dp1874
g6
I01
sg7
g60
sg9
L5L
sa(dp1875
g6
I01
sg7
V_fields
p1876
sg9
L5L
sasg6
I01
sg7
VInvert
p1877
sg9
L3L
sg14
Nsa(dp1878
g1
(lp1879
(dp1880
g6
I01
sg7
g8
sg9
L5L
sa(dp1881
g6
I01
sg7
g11
sg9
L5L
sa(dp1882
g6
I01
sg7
g13
sg9
L2L
sg14
V__dir__() -> list\u000adefault dir() implementation
p1883
sa(dp1884
g6
I01
sg7
g17
sg9
L5L
sa(dp1885
g6
I01
sg7
g19
sg9
L5L
sa(dp1886
g6
I01
sg7
g21
sg9
L2L
sg14
Vdefault object formatter
p1887
sa(dp1888
g6
I01
sg7
g24
sg9
L5L
sa(dp1889
g6
I01
sg7
g26
sg9
L5L
sa(dp1890
g6
I01
sg7
g28
sg9
L5L
sa(dp1891
g6
I01
sg7
g30
sg9
L5L
sa(dp1892
g6
I01
sg7
g32
sg9
L5L
sa(dp1893
g6
I01
sg7
g34
sg9
L5L
sa(dp1894
g6
I01
sg7
g36
sg9
L5L
sa(dp1895
g6
I01
sg7
V__module__
p1896
sg9
L5L
sa(dp1897
g6
I01
sg7
g38
sg9
L5L
sa(dp1898
g6
I01
sg7
g40
sg9
L2L
sg14
VCreate and return a new object.  See help(type) for accurate signature.
p1899
sa(dp1900
g6
I01
sg7
g43
sg9
L2L
sg14
Nsa(dp1901
g6
I01
sg7
g45
sg9
L2L
sg14
Vhelper for pickle
p1902
sa(dp1903
g6
I01
sg7
g48
sg9
L5L
sa(dp1904
g6
I01
sg7
g50
sg9
L5L
sa(dp1905
g6
I01
sg7
g52
sg9
L2L
sg14
V__sizeof__() -> int\u000asize of object in memory, in bytes
p1906
sa(dp1907
g6
I01
sg7
g55
sg9
L5L
sa(dp1908
g6
I01
sg7
g57
sg9
L2L
sg14
VAbstract classes can override this to customize issubclass().\u000a\u000aThis is invoked early on by abc.ABCMeta.__subclasscheck__().\u000aIt should return True, False or NotImplemented.  If it returns\u000aNotImplemented, the normal algorithm is used.  Otherwise, it\u000aoverrides the normal algorithm (and the outcome is cached).\u000a
p1909
sa(dp1910
g6
I01
sg7
g97
sg9
L5L
sa(dp1911
g6
I01
sg7
g60
sg9
L5L
sa(dp1912
g6
I01
sg7
V_fields
p1913
sg9
L5L
sasg6
I01
sg7
VIs
p1914
sg9
L3L
sg14
Nsa(dp1915
g1
(lp1916
(dp1917
g6
I01
sg7
g8
sg9
L5L
sa(dp1918
g6
I01
sg7
g11
sg9
L5L
sa(dp1919
g6
I01
sg7
g13
sg9
L2L
sg14
V__dir__() -> list\u000adefault dir() implementation
p1920
sa(dp1921
g6
I01
sg7
g17
sg9
L5L
sa(dp1922
g6
I01
sg7
g19
sg9
L5L
sa(dp1923
g6
I01
sg7
g21
sg9
L2L
sg14
Vdefault object formatter
p1924
sa(dp1925
g6
I01
sg7
g24
sg9
L5L
sa(dp1926
g6
I01
sg7
g26
sg9
L5L
sa(dp1927
g6
I01
sg7
g28
sg9
L5L
sa(dp1928
g6
I01
sg7
g30
sg9
L5L
sa(dp1929
g6
I01
sg7
g32
sg9
L5L
sa(dp1930
g6
I01
sg7
g34
sg9
L5L
sa(dp1931
g6
I01
sg7
g36
sg9
L5L
sa(dp1932
g6
I01
sg7
V__module__
p1933
sg9
L5L
sa(dp1934
g6
I01
sg7
g38
sg9
L5L
sa(dp1935
g6
I01
sg7
g40
sg9
L2L
sg14
VCreate and return a new object.  See help(type) for accurate signature.
p1936
sa(dp1937
g6
I01
sg7
g43
sg9
L2L
sg14
Nsa(dp1938
g6
I01
sg7
g45
sg9
L2L
sg14
Vhelper for pickle
p1939
sa(dp1940
g6
I01
sg7
g48
sg9
L5L
sa(dp1941
g6
I01
sg7
g50
sg9
L5L
sa(dp1942
g6
I01
sg7
g52
sg9
L2L
sg14
V__sizeof__() -> int\u000asize of object in memory, in bytes
p1943
sa(dp1944
g6
I01
sg7
g55
sg9
L5L
sa(dp1945
g6
I01
sg7
g57
sg9
L2L
sg14
VAbstract classes can override this to customize issubclass().\u000a\u000aThis is invoked early on by abc.ABCMeta.__subclasscheck__().\u000aIt should return True, False or NotImplemented.  If it returns\u000aNotImplemented, the normal algorithm is used.  Otherwise, it\u000aoverrides the normal algorithm (and the outcome is cached).\u000a
p1946
sa(dp1947
g6
I01
sg7
g97
sg9
L5L
sa(dp1948
g6
I01
sg7
g60
sg9
L5L
sa(dp1949
g6
I01
sg7
V_fields
p1950
sg9
L5L
sasg6
I01
sg7
VIsNot
p1951
sg9
L3L
sg14
Nsa(dp1952
g1
(lp1953
(dp1954
g6
I01
sg7
g8
sg9
L5L
sa(dp1955
g6
I01
sg7
g11
sg9
L5L
sa(dp1956
g6
I01
sg7
g13
sg9
L2L
sg14
V__dir__() -> list\u000adefault dir() implementation
p1957
sa(dp1958
g6
I01
sg7
g17
sg9
L5L
sa(dp1959
g6
I01
sg7
g19
sg9
L5L
sa(dp1960
g6
I01
sg7
g21
sg9
L2L
sg14
Vdefault object formatter
p1961
sa(dp1962
g6
I01
sg7
g24
sg9
L5L
sa(dp1963
g6
I01
sg7
g26
sg9
L5L
sa(dp1964
g6
I01
sg7
g28
sg9
L5L
sa(dp1965
g6
I01
sg7
g30
sg9
L5L
sa(dp1966
g6
I01
sg7
g32
sg9
L5L
sa(dp1967
g6
I01
sg7
g34
sg9
L5L
sa(dp1968
g6
I01
sg7
g36
sg9
L5L
sa(dp1969
g6
I01
sg7
V__module__
p1970
sg9
L5L
sa(dp1971
g6
I01
sg7
g38
sg9
L5L
sa(dp1972
g6
I01
sg7
g40
sg9
L2L
sg14
VCreate and return a new object.  See help(type) for accurate signature.
p1973
sa(dp1974
g6
I01
sg7
g43
sg9
L2L
sg14
Nsa(dp1975
g6
I01
sg7
g45
sg9
L2L
sg14
Vhelper for pickle
p1976
sa(dp1977
g6
I01
sg7
g48
sg9
L5L
sa(dp1978
g6
I01
sg7
g50
sg9
L5L
sa(dp1979
g6
I01
sg7
g52
sg9
L2L
sg14
V__sizeof__() -> int\u000asize of object in memory, in bytes
p1980
sa(dp1981
g6
I01
sg7
g55
sg9
L5L
sa(dp1982
g6
I01
sg7
g57
sg9
L2L
sg14
VAbstract classes can override this to customize issubclass().\u000a\u000aThis is invoked early on by abc.ABCMeta.__subclasscheck__().\u000aIt should return True, False or NotImplemented.  If it returns\u000aNotImplemented, the normal algorithm is used.  Otherwise, it\u000aoverrides the normal algorithm (and the outcome is cached).\u000a
p1983
sa(dp1984
g6
I01
sg7
g97
sg9
L5L
sa(dp1985
g6
I01
sg7
g60
sg9
L5L
sa(dp1986
g6
I01
sg7
V_fields
p1987
sg9
L5L
sasg6
I01
sg7
VLShift
p1988
sg9
L3L
sg14
Nsa(dp1989
g1
(lp1990
(dp1991
g6
I01
sg7
g8
sg9
L5L
sa(dp1992
g6
I01
sg7
g11
sg9
L5L
sa(dp1993
g6
I01
sg7
g13
sg9
L2L
sg14
V__dir__() -> list\u000adefault dir() implementation
p1994
sa(dp1995
g6
I01
sg7
g17
sg9
L5L
sa(dp1996
g6
I01
sg7
g19
sg9
L5L
sa(dp1997
g6
I01
sg7
g21
sg9
L2L
sg14
Vdefault object formatter
p1998
sa(dp1999
g6
I01
sg7
g24
sg9
L5L
sa(dp2000
g6
I01
sg7
g26
sg9
L5L
sa(dp2001
g6
I01
sg7
g28
sg9
L5L
sa(dp2002
g6
I01
sg7
g30
sg9
L5L
sa(dp2003
g6
I01
sg7
g32
sg9
L5L
sa(dp2004
g6
I01
sg7
g34
sg9
L5L
sa(dp2005
g6
I01
sg7
g36
sg9
L5L
sa(dp2006
g6
I01
sg7
V__module__
p2007
sg9
L5L
sa(dp2008
g6
I01
sg7
g38
sg9
L5L
sa(dp2009
g6
I01
sg7
g40
sg9
L2L
sg14
VCreate and return a new object.  See help(type) for accurate signature.
p2010
sa(dp2011
g6
I01
sg7
g43
sg9
L2L
sg14
Nsa(dp2012
g6
I01
sg7
g45
sg9
L2L
sg14
Vhelper for pickle
p2013
sa(dp2014
g6
I01
sg7
g48
sg9
L5L
sa(dp2015
g6
I01
sg7
g50
sg9
L5L
sa(dp2016
g6
I01
sg7
g52
sg9
L2L
sg14
V__sizeof__() -> int\u000asize of object in memory, in bytes
p2017
sa(dp2018
g6
I01
sg7
g55
sg9
L5L
sa(dp2019
g6
I01
sg7
g57
sg9
L2L
sg14
VAbstract classes can override this to customize issubclass().\u000a\u000aThis is invoked early on by abc.ABCMeta.__subclasscheck__().\u000aIt should return True, False or NotImplemented.  If it returns\u000aNotImplemented, the normal algorithm is used.  Otherwise, it\u000aoverrides the normal algorithm (and the outcome is cached).\u000a
p2020
sa(dp2021
g6
I01
sg7
g97
sg9
L5L
sa(dp2022
g6
I01
sg7
g60
sg9
L5L
sa(dp2023
g6
I01
sg7
V_fields
p2024
sg9
L5L
sasg6
I01
sg7
VLambda
p2025
sg9
L3L
sg14
Nsa(dp2026
g1
(lp2027
(dp2028
g6
I01
sg7
g8
sg9
L5L
sa(dp2029
g6
I01
sg7
g11
sg9
L5L
sa(dp2030
g6
I01
sg7
g13
sg9
L2L
sg14
V__dir__() -> list\u000adefault dir() implementation
p2031
sa(dp2032
g6
I01
sg7
g17
sg9
L5L
sa(dp2033
g6
I01
sg7
g19
sg9
L5L
sa(dp2034
g6
I01
sg7
g21
sg9
L2L
sg14
Vdefault object formatter
p2035
sa(dp2036
g6
I01
sg7
g24
sg9
L5L
sa(dp2037
g6
I01
sg7
g26
sg9
L5L
sa(dp2038
g6
I01
sg7
g28
sg9
L5L
sa(dp2039
g6
I01
sg7
g30
sg9
L5L
sa(dp2040
g6
I01
sg7
g32
sg9
L5L
sa(dp2041
g6
I01
sg7
g34
sg9
L5L
sa(dp2042
g6
I01
sg7
g36
sg9
L5L
sa(dp2043
g6
I01
sg7
V__module__
p2044
sg9
L5L
sa(dp2045
g6
I01
sg7
g38
sg9
L5L
sa(dp2046
g6
I01
sg7
g40
sg9
L2L
sg14
VCreate and return a new object.  See help(type) for accurate signature.
p2047
sa(dp2048
g6
I01
sg7
g43
sg9
L2L
sg14
Nsa(dp2049
g6
I01
sg7
g45
sg9
L2L
sg14
Vhelper for pickle
p2050
sa(dp2051
g6
I01
sg7
g48
sg9
L5L
sa(dp2052
g6
I01
sg7
g50
sg9
L5L
sa(dp2053
g6
I01
sg7
g52
sg9
L2L
sg14
V__sizeof__() -> int\u000asize of object in memory, in bytes
p2054
sa(dp2055
g6
I01
sg7
g55
sg9
L5L
sa(dp2056
g6
I01
sg7
g57
sg9
L2L
sg14
VAbstract classes can override this to customize issubclass().\u000a\u000aThis is invoked early on by abc.ABCMeta.__subclasscheck__().\u000aIt should return True, False or NotImplemented.  If it returns\u000aNotImplemented, the normal algorithm is used.  Otherwise, it\u000aoverrides the normal algorithm (and the outcome is cached).\u000a
p2057
sa(dp2058
g6
I01
sg7
g97
sg9
L5L
sa(dp2059
g6
I01
sg7
g60
sg9
L5L
sa(dp2060
g6
I01
sg7
V_fields
p2061
sg9
L5L
sasg6
I01
sg7
VList
p2062
sg9
L3L
sg14
Nsa(dp2063
g1
(lp2064
(dp2065
g6
I01
sg7
g8
sg9
L5L
sa(dp2066
g6
I01
sg7
g11
sg9
L5L
sa(dp2067
g6
I01
sg7
g13
sg9
L2L
sg14
V__dir__() -> list\u000adefault dir() implementation
p2068
sa(dp2069
g6
I01
sg7
g17
sg9
L5L
sa(dp2070
g6
I01
sg7
g19
sg9
L5L
sa(dp2071
g6
I01
sg7
g21
sg9
L2L
sg14
Vdefault object formatter
p2072
sa(dp2073
g6
I01
sg7
g24
sg9
L5L
sa(dp2074
g6
I01
sg7
g26
sg9
L5L
sa(dp2075
g6
I01
sg7
g28
sg9
L5L
sa(dp2076
g6
I01
sg7
g30
sg9
L5L
sa(dp2077
g6
I01
sg7
g32
sg9
L5L
sa(dp2078
g6
I01
sg7
g34
sg9
L5L
sa(dp2079
g6
I01
sg7
g36
sg9
L5L
sa(dp2080
g6
I01
sg7
V__module__
p2081
sg9
L5L
sa(dp2082
g6
I01
sg7
g38
sg9
L5L
sa(dp2083
g6
I01
sg7
g40
sg9
L2L
sg14
VCreate and return a new object.  See help(type) for accurate signature.
p2084
sa(dp2085
g6
I01
sg7
g43
sg9
L2L
sg14
Nsa(dp2086
g6
I01
sg7
g45
sg9
L2L
sg14
Vhelper for pickle
p2087
sa(dp2088
g6
I01
sg7
g48
sg9
L5L
sa(dp2089
g6
I01
sg7
g50
sg9
L5L
sa(dp2090
g6
I01
sg7
g52
sg9
L2L
sg14
V__sizeof__() -> int\u000asize of object in memory, in bytes
p2091
sa(dp2092
g6
I01
sg7
g55
sg9
L5L
sa(dp2093
g6
I01
sg7
g57
sg9
L2L
sg14
VAbstract classes can override this to customize issubclass().\u000a\u000aThis is invoked early on by abc.ABCMeta.__subclasscheck__().\u000aIt should return True, False or NotImplemented.  If it returns\u000aNotImplemented, the normal algorithm is used.  Otherwise, it\u000aoverrides the normal algorithm (and the outcome is cached).\u000a
p2094
sa(dp2095
g6
I01
sg7
g97
sg9
L5L
sa(dp2096
g6
I01
sg7
g60
sg9
L5L
sa(dp2097
g6
I01
sg7
V_fields
p2098
sg9
L5L
sasg6
I01
sg7
VListComp
p2099
sg9
L3L
sg14
Nsa(dp2100
g1
(lp2101
(dp2102
g6
I01
sg7
g8
sg9
L5L
sa(dp2103
g6
I01
sg7
g11
sg9
L5L
sa(dp2104
g6
I01
sg7
g13
sg9
L2L
sg14
V__dir__() -> list\u000adefault dir() implementation
p2105
sa(dp2106
g6
I01
sg7
g17
sg9
L5L
sa(dp2107
g6
I01
sg7
g19
sg9
L5L
sa(dp2108
g6
I01
sg7
g21
sg9
L2L
sg14
Vdefault object formatter
p2109
sa(dp2110
g6
I01
sg7
g24
sg9
L5L
sa(dp2111
g6
I01
sg7
g26
sg9
L5L
sa(dp2112
g6
I01
sg7
g28
sg9
L5L
sa(dp2113
g6
I01
sg7
g30
sg9
L5L
sa(dp2114
g6
I01
sg7
g32
sg9
L5L
sa(dp2115
g6
I01
sg7
g34
sg9
L5L
sa(dp2116
g6
I01
sg7
g36
sg9
L5L
sa(dp2117
g6
I01
sg7
V__module__
p2118
sg9
L5L
sa(dp2119
g6
I01
sg7
g38
sg9
L5L
sa(dp2120
g6
I01
sg7
g40
sg9
L2L
sg14
VCreate and return a new object.  See help(type) for accurate signature.
p2121
sa(dp2122
g6
I01
sg7
g43
sg9
L2L
sg14
Nsa(dp2123
g6
I01
sg7
g45
sg9
L2L
sg14
Vhelper for pickle
p2124
sa(dp2125
g6
I01
sg7
g48
sg9
L5L
sa(dp2126
g6
I01
sg7
g50
sg9
L5L
sa(dp2127
g6
I01
sg7
g52
sg9
L2L
sg14
V__sizeof__() -> int\u000asize of object in memory, in bytes
p2128
sa(dp2129
g6
I01
sg7
g55
sg9
L5L
sa(dp2130
g6
I01
sg7
g57
sg9
L2L
sg14
VAbstract classes can override this to customize issubclass().\u000a\u000aThis is invoked early on by abc.ABCMeta.__subclasscheck__().\u000aIt should return True, False or NotImplemented.  If it returns\u000aNotImplemented, the normal algorithm is used.  Otherwise, it\u000aoverrides the normal algorithm (and the outcome is cached).\u000a
p2131
sa(dp2132
g6
I01
sg7
g97
sg9
L5L
sa(dp2133
g6
I01
sg7
g60
sg9
L5L
sa(dp2134
g6
I01
sg7
V_fields
p2135
sg9
L5L
sasg6
I01
sg7
VLoad
p2136
sg9
L3L
sg14
Nsa(dp2137
g1
(lp2138
(dp2139
g6
I01
sg7
g8
sg9
L5L
sa(dp2140
g6
I01
sg7
g11
sg9
L5L
sa(dp2141
g6
I01
sg7
g13
sg9
L2L
sg14
V__dir__() -> list\u000adefault dir() implementation
p2142
sa(dp2143
g6
I01
sg7
g17
sg9
L5L
sa(dp2144
g6
I01
sg7
g19
sg9
L5L
sa(dp2145
g6
I01
sg7
g21
sg9
L2L
sg14
Vdefault object formatter
p2146
sa(dp2147
g6
I01
sg7
g24
sg9
L5L
sa(dp2148
g6
I01
sg7
g26
sg9
L5L
sa(dp2149
g6
I01
sg7
g28
sg9
L5L
sa(dp2150
g6
I01
sg7
g30
sg9
L5L
sa(dp2151
g6
I01
sg7
g32
sg9
L5L
sa(dp2152
g6
I01
sg7
g34
sg9
L5L
sa(dp2153
g6
I01
sg7
g36
sg9
L5L
sa(dp2154
g6
I01
sg7
V__module__
p2155
sg9
L5L
sa(dp2156
g6
I01
sg7
g38
sg9
L5L
sa(dp2157
g6
I01
sg7
g40
sg9
L2L
sg14
VCreate and return a new object.  See help(type) for accurate signature.
p2158
sa(dp2159
g6
I01
sg7
g43
sg9
L2L
sg14
Nsa(dp2160
g6
I01
sg7
g45
sg9
L2L
sg14
Vhelper for pickle
p2161
sa(dp2162
g6
I01
sg7
g48
sg9
L5L
sa(dp2163
g6
I01
sg7
g50
sg9
L5L
sa(dp2164
g6
I01
sg7
g52
sg9
L2L
sg14
V__sizeof__() -> int\u000asize of object in memory, in bytes
p2165
sa(dp2166
g6
I01
sg7
g55
sg9
L5L
sa(dp2167
g6
I01
sg7
g57
sg9
L2L
sg14
VAbstract classes can override this to customize issubclass().\u000a\u000aThis is invoked early on by abc.ABCMeta.__subclasscheck__().\u000aIt should return True, False or NotImplemented.  If it returns\u000aNotImplemented, the normal algorithm is used.  Otherwise, it\u000aoverrides the normal algorithm (and the outcome is cached).\u000a
p2168
sa(dp2169
g6
I01
sg7
g97
sg9
L5L
sa(dp2170
g6
I01
sg7
g60
sg9
L5L
sa(dp2171
g6
I01
sg7
V_fields
p2172
sg9
L5L
sasg6
I01
sg7
VLt
p2173
sg9
L3L
sg14
Nsa(dp2174
g1
(lp2175
(dp2176
g6
I01
sg7
g8
sg9
L5L
sa(dp2177
g6
I01
sg7
g11
sg9
L5L
sa(dp2178
g6
I01
sg7
g13
sg9
L2L
sg14
V__dir__() -> list\u000adefault dir() implementation
p2179
sa(dp2180
g6
I01
sg7
g17
sg9
L5L
sa(dp2181
g6
I01
sg7
g19
sg9
L5L
sa(dp2182
g6
I01
sg7
g21
sg9
L2L
sg14
Vdefault object formatter
p2183
sa(dp2184
g6
I01
sg7
g24
sg9
L5L
sa(dp2185
g6
I01
sg7
g26
sg9
L5L
sa(dp2186
g6
I01
sg7
g28
sg9
L5L
sa(dp2187
g6
I01
sg7
g30
sg9
L5L
sa(dp2188
g6
I01
sg7
g32
sg9
L5L
sa(dp2189
g6
I01
sg7
g34
sg9
L5L
sa(dp2190
g6
I01
sg7
g36
sg9
L5L
sa(dp2191
g6
I01
sg7
V__module__
p2192
sg9
L5L
sa(dp2193
g6
I01
sg7
g38
sg9
L5L
sa(dp2194
g6
I01
sg7
g40
sg9
L2L
sg14
VCreate and return a new object.  See help(type) for accurate signature.
p2195
sa(dp2196
g6
I01
sg7
g43
sg9
L2L
sg14
Nsa(dp2197
g6
I01
sg7
g45
sg9
L2L
sg14
Vhelper for pickle
p2198
sa(dp2199
g6
I01
sg7
g48
sg9
L5L
sa(dp2200
g6
I01
sg7
g50
sg9
L5L
sa(dp2201
g6
I01
sg7
g52
sg9
L2L
sg14
V__sizeof__() -> int\u000asize of object in memory, in bytes
p2202
sa(dp2203
g6
I01
sg7
g55
sg9
L5L
sa(dp2204
g6
I01
sg7
g57
sg9
L2L
sg14
VAbstract classes can override this to customize issubclass().\u000a\u000aThis is invoked early on by abc.ABCMeta.__subclasscheck__().\u000aIt should return True, False or NotImplemented.  If it returns\u000aNotImplemented, the normal algorithm is used.  Otherwise, it\u000aoverrides the normal algorithm (and the outcome is cached).\u000a
p2205
sa(dp2206
g6
I01
sg7
g97
sg9
L5L
sa(dp2207
g6
I01
sg7
g60
sg9
L5L
sa(dp2208
g6
I01
sg7
V_fields
p2209
sg9
L5L
sasg6
I01
sg7
VLtE
p2210
sg9
L3L
sg14
Nsa(dp2211
g1
(lp2212
(dp2213
g6
I01
sg7
g8
sg9
L5L
sa(dp2214
g6
I01
sg7
g11
sg9
L5L
sa(dp2215
g6
I01
sg7
g13
sg9
L2L
sg14
V__dir__() -> list\u000adefault dir() implementation
p2216
sa(dp2217
g6
I01
sg7
g17
sg9
L5L
sa(dp2218
g6
I01
sg7
g19
sg9
L5L
sa(dp2219
g6
I01
sg7
g21
sg9
L2L
sg14
Vdefault object formatter
p2220
sa(dp2221
g6
I01
sg7
g24
sg9
L5L
sa(dp2222
g6
I01
sg7
g26
sg9
L5L
sa(dp2223
g6
I01
sg7
g28
sg9
L5L
sa(dp2224
g6
I01
sg7
g30
sg9
L5L
sa(dp2225
g6
I01
sg7
g32
sg9
L5L
sa(dp2226
g6
I01
sg7
g34
sg9
L5L
sa(dp2227
g6
I01
sg7
g36
sg9
L5L
sa(dp2228
g6
I01
sg7
V__module__
p2229
sg9
L5L
sa(dp2230
g6
I01
sg7
g38
sg9
L5L
sa(dp2231
g6
I01
sg7
g40
sg9
L2L
sg14
VCreate and return a new object.  See help(type) for accurate signature.
p2232
sa(dp2233
g6
I01
sg7
g43
sg9
L2L
sg14
Nsa(dp2234
g6
I01
sg7
g45
sg9
L2L
sg14
Vhelper for pickle
p2235
sa(dp2236
g6
I01
sg7
g48
sg9
L5L
sa(dp2237
g6
I01
sg7
g50
sg9
L5L
sa(dp2238
g6
I01
sg7
g52
sg9
L2L
sg14
V__sizeof__() -> int\u000asize of object in memory, in bytes
p2239
sa(dp2240
g6
I01
sg7
g55
sg9
L5L
sa(dp2241
g6
I01
sg7
g57
sg9
L2L
sg14
VAbstract classes can override this to customize issubclass().\u000a\u000aThis is invoked early on by abc.ABCMeta.__subclasscheck__().\u000aIt should return True, False or NotImplemented.  If it returns\u000aNotImplemented, the normal algorithm is used.  Otherwise, it\u000aoverrides the normal algorithm (and the outcome is cached).\u000a
p2242
sa(dp2243
g6
I01
sg7
g97
sg9
L5L
sa(dp2244
g6
I01
sg7
g60
sg9
L5L
sa(dp2245
g6
I01
sg7
V_fields
p2246
sg9
L5L
sasg6
I01
sg7
VMatMult
p2247
sg9
L3L
sg14
Nsa(dp2248
g1
(lp2249
(dp2250
g6
I01
sg7
g8
sg9
L5L
sa(dp2251
g6
I01
sg7
g11
sg9
L5L
sa(dp2252
g6
I01
sg7
g13
sg9
L2L
sg14
V__dir__() -> list\u000adefault dir() implementation
p2253
sa(dp2254
g6
I01
sg7
g17
sg9
L5L
sa(dp2255
g6
I01
sg7
g19
sg9
L5L
sa(dp2256
g6
I01
sg7
g21
sg9
L2L
sg14
Vdefault object formatter
p2257
sa(dp2258
g6
I01
sg7
g24
sg9
L5L
sa(dp2259
g6
I01
sg7
g26
sg9
L5L
sa(dp2260
g6
I01
sg7
g28
sg9
L5L
sa(dp2261
g6
I01
sg7
g30
sg9
L5L
sa(dp2262
g6
I01
sg7
g32
sg9
L5L
sa(dp2263
g6
I01
sg7
g34
sg9
L5L
sa(dp2264
g6
I01
sg7
g36
sg9
L5L
sa(dp2265
g6
I01
sg7
V__module__
p2266
sg9
L5L
sa(dp2267
g6
I01
sg7
g38
sg9
L5L
sa(dp2268
g6
I01
sg7
g40
sg9
L2L
sg14
VCreate and return a new object.  See help(type) for accurate signature.
p2269
sa(dp2270
g6
I01
sg7
g43
sg9
L2L
sg14
Nsa(dp2271
g6
I01
sg7
g45
sg9
L2L
sg14
Vhelper for pickle
p2272
sa(dp2273
g6
I01
sg7
g48
sg9
L5L
sa(dp2274
g6
I01
sg7
g50
sg9
L5L
sa(dp2275
g6
I01
sg7
g52
sg9
L2L
sg14
V__sizeof__() -> int\u000asize of object in memory, in bytes
p2276
sa(dp2277
g6
I01
sg7
g55
sg9
L5L
sa(dp2278
g6
I01
sg7
g57
sg9
L2L
sg14
VAbstract classes can override this to customize issubclass().\u000a\u000aThis is invoked early on by abc.ABCMeta.__subclasscheck__().\u000aIt should return True, False or NotImplemented.  If it returns\u000aNotImplemented, the normal algorithm is used.  Otherwise, it\u000aoverrides the normal algorithm (and the outcome is cached).\u000a
p2279
sa(dp2280
g6
I01
sg7
g97
sg9
L5L
sa(dp2281
g6
I01
sg7
g60
sg9
L5L
sa(dp2282
g6
I01
sg7
V_fields
p2283
sg9
L5L
sasg6
I01
sg7
VMod
p2284
sg9
L3L
sg14
Nsa(dp2285
g1
(lp2286
(dp2287
g6
I01
sg7
g8
sg9
L5L
sa(dp2288
g6
I01
sg7
g11
sg9
L5L
sa(dp2289
g6
I01
sg7
g13
sg9
L2L
sg14
V__dir__() -> list\u000adefault dir() implementation
p2290
sa(dp2291
g6
I01
sg7
g17
sg9
L5L
sa(dp2292
g6
I01
sg7
g19
sg9
L5L
sa(dp2293
g6
I01
sg7
g21
sg9
L2L
sg14
Vdefault object formatter
p2294
sa(dp2295
g6
I01
sg7
g24
sg9
L5L
sa(dp2296
g6
I01
sg7
g26
sg9
L5L
sa(dp2297
g6
I01
sg7
g28
sg9
L5L
sa(dp2298
g6
I01
sg7
g30
sg9
L5L
sa(dp2299
g6
I01
sg7
g32
sg9
L5L
sa(dp2300
g6
I01
sg7
g34
sg9
L5L
sa(dp2301
g6
I01
sg7
g36
sg9
L5L
sa(dp2302
g6
I01
sg7
V__module__
p2303
sg9
L5L
sa(dp2304
g6
I01
sg7
g38
sg9
L5L
sa(dp2305
g6
I01
sg7
g40
sg9
L2L
sg14
VCreate and return a new object.  See help(type) for accurate signature.
p2306
sa(dp2307
g6
I01
sg7
g43
sg9
L2L
sg14
Nsa(dp2308
g6
I01
sg7
g45
sg9
L2L
sg14
Vhelper for pickle
p2309
sa(dp2310
g6
I01
sg7
g48
sg9
L5L
sa(dp2311
g6
I01
sg7
g50
sg9
L5L
sa(dp2312
g6
I01
sg7
g52
sg9
L2L
sg14
V__sizeof__() -> int\u000asize of object in memory, in bytes
p2313
sa(dp2314
g6
I01
sg7
g55
sg9
L5L
sa(dp2315
g6
I01
sg7
g57
sg9
L2L
sg14
VAbstract classes can override this to customize issubclass().\u000a\u000aThis is invoked early on by abc.ABCMeta.__subclasscheck__().\u000aIt should return True, False or NotImplemented.  If it returns\u000aNotImplemented, the normal algorithm is used.  Otherwise, it\u000aoverrides the normal algorithm (and the outcome is cached).\u000a
p2316
sa(dp2317
g6
I01
sg7
g97
sg9
L5L
sa(dp2318
g6
I01
sg7
g60
sg9
L5L
sa(dp2319
g6
I01
sg7
V_fields
p2320
sg9
L5L
sasg6
I01
sg7
VModule
p2321
sg9
L3L
sg14
Nsa(dp2322
g1
(lp2323
(dp2324
g6
I01
sg7
g8
sg9
L5L
sa(dp2325
g6
I01
sg7
g11
sg9
L5L
sa(dp2326
g6
I01
sg7
g13
sg9
L2L
sg14
V__dir__() -> list\u000adefault dir() implementation
p2327
sa(dp2328
g6
I01
sg7
g17
sg9
L5L
sa(dp2329
g6
I01
sg7
g19
sg9
L5L
sa(dp2330
g6
I01
sg7
g21
sg9
L2L
sg14
Vdefault object formatter
p2331
sa(dp2332
g6
I01
sg7
g24
sg9
L5L
sa(dp2333
g6
I01
sg7
g26
sg9
L5L
sa(dp2334
g6
I01
sg7
g28
sg9
L5L
sa(dp2335
g6
I01
sg7
g30
sg9
L5L
sa(dp2336
g6
I01
sg7
g32
sg9
L5L
sa(dp2337
g6
I01
sg7
g34
sg9
L5L
sa(dp2338
g6
I01
sg7
g36
sg9
L5L
sa(dp2339
g6
I01
sg7
V__module__
p2340
sg9
L5L
sa(dp2341
g6
I01
sg7
g38
sg9
L5L
sa(dp2342
g6
I01
sg7
g40
sg9
L2L
sg14
VCreate and return a new object.  See help(type) for accurate signature.
p2343
sa(dp2344
g6
I01
sg7
g43
sg9
L2L
sg14
Nsa(dp2345
g6
I01
sg7
g45
sg9
L2L
sg14
Vhelper for pickle
p2346
sa(dp2347
g6
I01
sg7
g48
sg9
L5L
sa(dp2348
g6
I01
sg7
g50
sg9
L5L
sa(dp2349
g6
I01
sg7
g52
sg9
L2L
sg14
V__sizeof__() -> int\u000asize of object in memory, in bytes
p2350
sa(dp2351
g6
I01
sg7
g55
sg9
L5L
sa(dp2352
g6
I01
sg7
g57
sg9
L2L
sg14
VAbstract classes can override this to customize issubclass().\u000a\u000aThis is invoked early on by abc.ABCMeta.__subclasscheck__().\u000aIt should return True, False or NotImplemented.  If it returns\u000aNotImplemented, the normal algorithm is used.  Otherwise, it\u000aoverrides the normal algorithm (and the outcome is cached).\u000a
p2353
sa(dp2354
g6
I01
sg7
g97
sg9
L5L
sa(dp2355
g6
I01
sg7
g60
sg9
L5L
sa(dp2356
g6
I01
sg7
V_fields
p2357
sg9
L5L
sasg6
I01
sg7
VMult
p2358
sg9
L3L
sg14
Nsa(dp2359
g1
(lp2360
(dp2361
g6
I01
sg7
g8
sg9
L5L
sa(dp2362
g6
I01
sg7
g11
sg9
L5L
sa(dp2363
g6
I01
sg7
g13
sg9
L2L
sg14
V__dir__() -> list\u000adefault dir() implementation
p2364
sa(dp2365
g6
I01
sg7
g17
sg9
L5L
sa(dp2366
g6
I01
sg7
g19
sg9
L5L
sa(dp2367
g6
I01
sg7
g21
sg9
L2L
sg14
Vdefault object formatter
p2368
sa(dp2369
g6
I01
sg7
g24
sg9
L5L
sa(dp2370
g6
I01
sg7
g26
sg9
L5L
sa(dp2371
g6
I01
sg7
g28
sg9
L5L
sa(dp2372
g6
I01
sg7
g30
sg9
L5L
sa(dp2373
g6
I01
sg7
g32
sg9
L5L
sa(dp2374
g6
I01
sg7
g34
sg9
L5L
sa(dp2375
g6
I01
sg7
g36
sg9
L5L
sa(dp2376
g6
I01
sg7
V__module__
p2377
sg9
L5L
sa(dp2378
g6
I01
sg7
g38
sg9
L5L
sa(dp2379
g6
I01
sg7
g40
sg9
L2L
sg14
VCreate and return a new object.  See help(type) for accurate signature.
p2380
sa(dp2381
g6
I01
sg7
g43
sg9
L2L
sg14
Nsa(dp2382
g6
I01
sg7
g45
sg9
L2L
sg14
Vhelper for pickle
p2383
sa(dp2384
g6
I01
sg7
g48
sg9
L5L
sa(dp2385
g6
I01
sg7
g50
sg9
L5L
sa(dp2386
g6
I01
sg7
g52
sg9
L2L
sg14
V__sizeof__() -> int\u000asize of object in memory, in bytes
p2387
sa(dp2388
g6
I01
sg7
g55
sg9
L5L
sa(dp2389
g6
I01
sg7
g57
sg9
L2L
sg14
VAbstract classes can override this to customize issubclass().\u000a\u000aThis is invoked early on by abc.ABCMeta.__subclasscheck__().\u000aIt should return True, False or NotImplemented.  If it returns\u000aNotImplemented, the normal algorithm is used.  Otherwise, it\u000aoverrides the normal algorithm (and the outcome is cached).\u000a
p2390
sa(dp2391
g6
I01
sg7
g97
sg9
L5L
sa(dp2392
g6
I01
sg7
g60
sg9
L5L
sa(dp2393
g6
I01
sg7
V_fields
p2394
sg9
L5L
sasg6
I01
sg7
VName
p2395
sg9
L3L
sg14
Nsa(dp2396
g1
(lp2397
(dp2398
g6
I01
sg7
g8
sg9
L5L
sa(dp2399
g6
I01
sg7
g11
sg9
L5L
sa(dp2400
g6
I01
sg7
g13
sg9
L2L
sg14
V__dir__() -> list\u000adefault dir() implementation
p2401
sa(dp2402
g6
I01
sg7
g17
sg9
L5L
sa(dp2403
g6
I01
sg7
g19
sg9
L5L
sa(dp2404
g6
I01
sg7
g21
sg9
L2L
sg14
Vdefault object formatter
p2405
sa(dp2406
g6
I01
sg7
g24
sg9
L5L
sa(dp2407
g6
I01
sg7
g26
sg9
L5L
sa(dp2408
g6
I01
sg7
g28
sg9
L5L
sa(dp2409
g6
I01
sg7
g30
sg9
L5L
sa(dp2410
g6
I01
sg7
g32
sg9
L5L
sa(dp2411
g6
I01
sg7
g34
sg9
L5L
sa(dp2412
g6
I01
sg7
g36
sg9
L5L
sa(dp2413
g6
I01
sg7
V__module__
p2414
sg9
L5L
sa(dp2415
g6
I01
sg7
g38
sg9
L5L
sa(dp2416
g6
I01
sg7
g40
sg9
L2L
sg14
VCreate and return a new object.  See help(type) for accurate signature.
p2417
sa(dp2418
g6
I01
sg7
g43
sg9
L2L
sg14
Nsa(dp2419
g6
I01
sg7
g45
sg9
L2L
sg14
Vhelper for pickle
p2420
sa(dp2421
g6
I01
sg7
g48
sg9
L5L
sa(dp2422
g6
I01
sg7
g50
sg9
L5L
sa(dp2423
g6
I01
sg7
g52
sg9
L2L
sg14
V__sizeof__() -> int\u000asize of object in memory, in bytes
p2424
sa(dp2425
g6
I01
sg7
g55
sg9
L5L
sa(dp2426
g6
I01
sg7
g57
sg9
L2L
sg14
VAbstract classes can override this to customize issubclass().\u000a\u000aThis is invoked early on by abc.ABCMeta.__subclasscheck__().\u000aIt should return True, False or NotImplemented.  If it returns\u000aNotImplemented, the normal algorithm is used.  Otherwise, it\u000aoverrides the normal algorithm (and the outcome is cached).\u000a
p2427
sa(dp2428
g6
I01
sg7
g97
sg9
L5L
sa(dp2429
g6
I01
sg7
g60
sg9
L5L
sa(dp2430
g6
I01
sg7
V_fields
p2431
sg9
L5L
sasg6
I01
sg7
VNameConstant
p2432
sg9
L3L
sg14
Nsa(dp2433
g1
(lp2434
(dp2435
g6
I01
sg7
g8
sg9
L5L
sa(dp2436
g6
I01
sg7
g11
sg9
L5L
sa(dp2437
g6
I01
sg7
g13
sg9
L2L
sg14
V__dir__() -> list\u000adefault dir() implementation
p2438
sa(dp2439
g6
I01
sg7
g17
sg9
L5L
sa(dp2440
g6
I01
sg7
g19
sg9
L5L
sa(dp2441
g6
I01
sg7
g21
sg9
L2L
sg14
Vdefault object formatter
p2442
sa(dp2443
g6
I01
sg7
g24
sg9
L5L
sa(dp2444
g6
I01
sg7
g26
sg9
L5L
sa(dp2445
g6
I01
sg7
g28
sg9
L5L
sa(dp2446
g6
I01
sg7
g30
sg9
L5L
sa(dp2447
g6
I01
sg7
g32
sg9
L5L
sa(dp2448
g6
I01
sg7
g34
sg9
L5L
sa(dp2449
g6
I01
sg7
g36
sg9
L5L
sa(dp2450
g6
I01
sg7
V__module__
p2451
sg9
L5L
sa(dp2452
g6
I01
sg7
g38
sg9
L5L
sa(dp2453
g6
I01
sg7
g40
sg9
L2L
sg14
VCreate and return a new object.  See help(type) for accurate signature.
p2454
sa(dp2455
g6
I01
sg7
g43
sg9
L2L
sg14
Nsa(dp2456
g6
I01
sg7
g45
sg9
L2L
sg14
Vhelper for pickle
p2457
sa(dp2458
g6
I01
sg7
g48
sg9
L5L
sa(dp2459
g6
I01
sg7
g50
sg9
L5L
sa(dp2460
g6
I01
sg7
g52
sg9
L2L
sg14
V__sizeof__() -> int\u000asize of object in memory, in bytes
p2461
sa(dp2462
g6
I01
sg7
g55
sg9
L5L
sa(dp2463
g6
I01
sg7
g57
sg9
L2L
sg14
VAbstract classes can override this to customize issubclass().\u000a\u000aThis is invoked early on by abc.ABCMeta.__subclasscheck__().\u000aIt should return True, False or NotImplemented.  If it returns\u000aNotImplemented, the normal algorithm is used.  Otherwise, it\u000aoverrides the normal algorithm (and the outcome is cached).\u000a
p2464
sa(dp2465
g6
I01
sg7
g97
sg9
L5L
sa(dp2466
g6
I01
sg7
g60
sg9
L5L
sa(dp2467
g6
I01
sg7
V_fields
p2468
sg9
L5L
sasg6
I01
sg7
VNonlocal
p2469
sg9
L3L
sg14
Nsa(dp2470
g1
(lp2471
(dp2472
g6
I01
sg7
g8
sg9
L5L
sa(dp2473
g6
I01
sg7
g11
sg9
L5L
sa(dp2474
g6
I01
sg7
g13
sg9
L2L
sg14
V__dir__() -> list\u000adefault dir() implementation
p2475
sa(dp2476
g6
I01
sg7
g17
sg9
L5L
sa(dp2477
g6
I01
sg7
g19
sg9
L5L
sa(dp2478
g6
I01
sg7
g21
sg9
L2L
sg14
Vdefault object formatter
p2479
sa(dp2480
g6
I01
sg7
g24
sg9
L5L
sa(dp2481
g6
I01
sg7
g26
sg9
L5L
sa(dp2482
g6
I01
sg7
g28
sg9
L5L
sa(dp2483
g6
I01
sg7
g30
sg9
L5L
sa(dp2484
g6
I01
sg7
g32
sg9
L5L
sa(dp2485
g6
I01
sg7
g34
sg9
L5L
sa(dp2486
g6
I01
sg7
g36
sg9
L5L
sa(dp2487
g6
I01
sg7
V__module__
p2488
sg9
L5L
sa(dp2489
g6
I01
sg7
g38
sg9
L5L
sa(dp2490
g6
I01
sg7
g40
sg9
L2L
sg14
VCreate and return a new object.  See help(type) for accurate signature.
p2491
sa(dp2492
g6
I01
sg7
g43
sg9
L2L
sg14
Nsa(dp2493
g6
I01
sg7
g45
sg9
L2L
sg14
Vhelper for pickle
p2494
sa(dp2495
g6
I01
sg7
g48
sg9
L5L
sa(dp2496
g6
I01
sg7
g50
sg9
L5L
sa(dp2497
g6
I01
sg7
g52
sg9
L2L
sg14
V__sizeof__() -> int\u000asize of object in memory, in bytes
p2498
sa(dp2499
g6
I01
sg7
g55
sg9
L5L
sa(dp2500
g6
I01
sg7
g57
sg9
L2L
sg14
VAbstract classes can override this to customize issubclass().\u000a\u000aThis is invoked early on by abc.ABCMeta.__subclasscheck__().\u000aIt should return True, False or NotImplemented.  If it returns\u000aNotImplemented, the normal algorithm is used.  Otherwise, it\u000aoverrides the normal algorithm (and the outcome is cached).\u000a
p2501
sa(dp2502
g6
I01
sg7
g97
sg9
L5L
sa(dp2503
g6
I01
sg7
g60
sg9
L5L
sa(dp2504
g6
I01
sg7
V_fields
p2505
sg9
L5L
sasg6
I01
sg7
VNot
p2506
sg9
L3L
sg14
Nsa(dp2507
g1
(lp2508
(dp2509
g6
I01
sg7
g8
sg9
L5L
sa(dp2510
g6
I01
sg7
g11
sg9
L5L
sa(dp2511
g6
I01
sg7
g13
sg9
L2L
sg14
V__dir__() -> list\u000adefault dir() implementation
p2512
sa(dp2513
g6
I01
sg7
g17
sg9
L5L
sa(dp2514
g6
I01
sg7
g19
sg9
L5L
sa(dp2515
g6
I01
sg7
g21
sg9
L2L
sg14
Vdefault object formatter
p2516
sa(dp2517
g6
I01
sg7
g24
sg9
L5L
sa(dp2518
g6
I01
sg7
g26
sg9
L5L
sa(dp2519
g6
I01
sg7
g28
sg9
L5L
sa(dp2520
g6
I01
sg7
g30
sg9
L5L
sa(dp2521
g6
I01
sg7
g32
sg9
L5L
sa(dp2522
g6
I01
sg7
g34
sg9
L5L
sa(dp2523
g6
I01
sg7
g36
sg9
L5L
sa(dp2524
g6
I01
sg7
V__module__
p2525
sg9
L5L
sa(dp2526
g6
I01
sg7
g38
sg9
L5L
sa(dp2527
g6
I01
sg7
g40
sg9
L2L
sg14
VCreate and return a new object.  See help(type) for accurate signature.
p2528
sa(dp2529
g6
I01
sg7
g43
sg9
L2L
sg14
Nsa(dp2530
g6
I01
sg7
g45
sg9
L2L
sg14
Vhelper for pickle
p2531
sa(dp2532
g6
I01
sg7
g48
sg9
L5L
sa(dp2533
g6
I01
sg7
g50
sg9
L5L
sa(dp2534
g6
I01
sg7
g52
sg9
L2L
sg14
V__sizeof__() -> int\u000asize of object in memory, in bytes
p2535
sa(dp2536
g6
I01
sg7
g55
sg9
L5L
sa(dp2537
g6
I01
sg7
g57
sg9
L2L
sg14
VAbstract classes can override this to customize issubclass().\u000a\u000aThis is invoked early on by abc.ABCMeta.__subclasscheck__().\u000aIt should return True, False or NotImplemented.  If it returns\u000aNotImplemented, the normal algorithm is used.  Otherwise, it\u000aoverrides the normal algorithm (and the outcome is cached).\u000a
p2538
sa(dp2539
g6
I01
sg7
g97
sg9
L5L
sa(dp2540
g6
I01
sg7
g60
sg9
L5L
sa(dp2541
g6
I01
sg7
V_fields
p2542
sg9
L5L
sasg6
I01
sg7
VNotEq
p2543
sg9
L3L
sg14
Nsa(dp2544
g1
(lp2545
(dp2546
g6
I01
sg7
g8
sg9
L5L
sa(dp2547
g6
I01
sg7
g11
sg9
L5L
sa(dp2548
g6
I01
sg7
g13
sg9
L2L
sg14
V__dir__() -> list\u000adefault dir() implementation
p2549
sa(dp2550
g6
I01
sg7
g17
sg9
L5L
sa(dp2551
g6
I01
sg7
g19
sg9
L5L
sa(dp2552
g6
I01
sg7
g21
sg9
L2L
sg14
Vdefault object formatter
p2553
sa(dp2554
g6
I01
sg7
g24
sg9
L5L
sa(dp2555
g6
I01
sg7
g26
sg9
L5L
sa(dp2556
g6
I01
sg7
g28
sg9
L5L
sa(dp2557
g6
I01
sg7
g30
sg9
L5L
sa(dp2558
g6
I01
sg7
g32
sg9
L5L
sa(dp2559
g6
I01
sg7
g34
sg9
L5L
sa(dp2560
g6
I01
sg7
g36
sg9
L5L
sa(dp2561
g6
I01
sg7
V__module__
p2562
sg9
L5L
sa(dp2563
g6
I01
sg7
g38
sg9
L5L
sa(dp2564
g6
I01
sg7
g40
sg9
L2L
sg14
VCreate and return a new object.  See help(type) for accurate signature.
p2565
sa(dp2566
g6
I01
sg7
g43
sg9
L2L
sg14
Nsa(dp2567
g6
I01
sg7
g45
sg9
L2L
sg14
Vhelper for pickle
p2568
sa(dp2569
g6
I01
sg7
g48
sg9
L5L
sa(dp2570
g6
I01
sg7
g50
sg9
L5L
sa(dp2571
g6
I01
sg7
g52
sg9
L2L
sg14
V__sizeof__() -> int\u000asize of object in memory, in bytes
p2572
sa(dp2573
g6
I01
sg7
g55
sg9
L5L
sa(dp2574
g6
I01
sg7
g57
sg9
L2L
sg14
VAbstract classes can override this to customize issubclass().\u000a\u000aThis is invoked early on by abc.ABCMeta.__subclasscheck__().\u000aIt should return True, False or NotImplemented.  If it returns\u000aNotImplemented, the normal algorithm is used.  Otherwise, it\u000aoverrides the normal algorithm (and the outcome is cached).\u000a
p2575
sa(dp2576
g6
I01
sg7
g97
sg9
L5L
sa(dp2577
g6
I01
sg7
g60
sg9
L5L
sa(dp2578
g6
I01
sg7
V_fields
p2579
sg9
L5L
sasg6
I01
sg7
VNotIn
p2580
sg9
L3L
sg14
Nsa(dp2581
g1
(lp2582
(dp2583
g6
I01
sg7
g8
sg9
L5L
sa(dp2584
g6
I01
sg7
g11
sg9
L5L
sa(dp2585
g6
I01
sg7
g13
sg9
L2L
sg14
V__dir__() -> list\u000adefault dir() implementation
p2586
sa(dp2587
g6
I01
sg7
g17
sg9
L5L
sa(dp2588
g6
I01
sg7
g19
sg9
L5L
sa(dp2589
g6
I01
sg7
g21
sg9
L2L
sg14
Vdefault object formatter
p2590
sa(dp2591
g6
I01
sg7
g24
sg9
L5L
sa(dp2592
g6
I01
sg7
g26
sg9
L5L
sa(dp2593
g6
I01
sg7
g28
sg9
L5L
sa(dp2594
g6
I01
sg7
g30
sg9
L5L
sa(dp2595
g6
I01
sg7
g32
sg9
L5L
sa(dp2596
g6
I01
sg7
g34
sg9
L5L
sa(dp2597
g6
I01
sg7
g36
sg9
L5L
sa(dp2598
g6
I01
sg7
V__module__
p2599
sg9
L5L
sa(dp2600
g6
I01
sg7
g38
sg9
L5L
sa(dp2601
g6
I01
sg7
g40
sg9
L2L
sg14
VCreate and return a new object.  See help(type) for accurate signature.
p2602
sa(dp2603
g6
I01
sg7
g43
sg9
L2L
sg14
Nsa(dp2604
g6
I01
sg7
g45
sg9
L2L
sg14
Vhelper for pickle
p2605
sa(dp2606
g6
I01
sg7
g48
sg9
L5L
sa(dp2607
g6
I01
sg7
g50
sg9
L5L
sa(dp2608
g6
I01
sg7
g52
sg9
L2L
sg14
V__sizeof__() -> int\u000asize of object in memory, in bytes
p2609
sa(dp2610
g6
I01
sg7
g55
sg9
L5L
sa(dp2611
g6
I01
sg7
g57
sg9
L2L
sg14
VAbstract classes can override this to customize issubclass().\u000a\u000aThis is invoked early on by abc.ABCMeta.__subclasscheck__().\u000aIt should return True, False or NotImplemented.  If it returns\u000aNotImplemented, the normal algorithm is used.  Otherwise, it\u000aoverrides the normal algorithm (and the outcome is cached).\u000a
p2612
sa(dp2613
g6
I01
sg7
g97
sg9
L5L
sa(dp2614
g6
I01
sg7
g60
sg9
L5L
sa(dp2615
g6
I01
sg7
V_fields
p2616
sg9
L5L
sasg6
I01
sg7
VNum
p2617
sg9
L3L
sg14
Nsa(dp2618
g1
(lp2619
(dp2620
g6
I01
sg7
g8
sg9
L5L
sa(dp2621
g6
I01
sg7
g11
sg9
L5L
sa(dp2622
g6
I01
sg7
g13
sg9
L2L
sg14
V__dir__() -> list\u000adefault dir() implementation
p2623
sa(dp2624
g6
I01
sg7
g17
sg9
L5L
sa(dp2625
g6
I01
sg7
g19
sg9
L5L
sa(dp2626
g6
I01
sg7
g21
sg9
L2L
sg14
Vdefault object formatter
p2627
sa(dp2628
g6
I01
sg7
g24
sg9
L5L
sa(dp2629
g6
I01
sg7
g26
sg9
L5L
sa(dp2630
g6
I01
sg7
g28
sg9
L5L
sa(dp2631
g6
I01
sg7
g30
sg9
L5L
sa(dp2632
g6
I01
sg7
g32
sg9
L5L
sa(dp2633
g6
I01
sg7
g34
sg9
L5L
sa(dp2634
g6
I01
sg7
g36
sg9
L5L
sa(dp2635
g6
I01
sg7
V__module__
p2636
sg9
L5L
sa(dp2637
g6
I01
sg7
g38
sg9
L5L
sa(dp2638
g6
I01
sg7
g40
sg9
L2L
sg14
VCreate and return a new object.  See help(type) for accurate signature.
p2639
sa(dp2640
g6
I01
sg7
g43
sg9
L2L
sg14
Nsa(dp2641
g6
I01
sg7
g45
sg9
L2L
sg14
Vhelper for pickle
p2642
sa(dp2643
g6
I01
sg7
g48
sg9
L5L
sa(dp2644
g6
I01
sg7
g50
sg9
L5L
sa(dp2645
g6
I01
sg7
g52
sg9
L2L
sg14
V__sizeof__() -> int\u000asize of object in memory, in bytes
p2646
sa(dp2647
g6
I01
sg7
g55
sg9
L5L
sa(dp2648
g6
I01
sg7
g57
sg9
L2L
sg14
VAbstract classes can override this to customize issubclass().\u000a\u000aThis is invoked early on by abc.ABCMeta.__subclasscheck__().\u000aIt should return True, False or NotImplemented.  If it returns\u000aNotImplemented, the normal algorithm is used.  Otherwise, it\u000aoverrides the normal algorithm (and the outcome is cached).\u000a
p2649
sa(dp2650
g6
I01
sg7
g97
sg9
L5L
sa(dp2651
g6
I01
sg7
g60
sg9
L5L
sa(dp2652
g6
I01
sg7
V_fields
p2653
sg9
L5L
sasg6
I01
sg7
VOr
p2654
sg9
L3L
sg14
Nsa(dp2655
g1
(lp2656
(dp2657
g6
I01
sg7
g8
sg9
L5L
sa(dp2658
g6
I01
sg7
g11
sg9
L5L
sa(dp2659
g6
I01
sg7
g13
sg9
L2L
sg14
V__dir__() -> list\u000adefault dir() implementation
p2660
sa(dp2661
g6
I01
sg7
g17
sg9
L5L
sa(dp2662
g6
I01
sg7
g19
sg9
L5L
sa(dp2663
g6
I01
sg7
g21
sg9
L2L
sg14
Vdefault object formatter
p2664
sa(dp2665
g6
I01
sg7
g24
sg9
L5L
sa(dp2666
g6
I01
sg7
g26
sg9
L5L
sa(dp2667
g6
I01
sg7
g28
sg9
L5L
sa(dp2668
g6
I01
sg7
g30
sg9
L5L
sa(dp2669
g6
I01
sg7
g32
sg9
L5L
sa(dp2670
g6
I01
sg7
g34
sg9
L5L
sa(dp2671
g6
I01
sg7
g36
sg9
L5L
sa(dp2672
g6
I01
sg7
V__module__
p2673
sg9
L5L
sa(dp2674
g6
I01
sg7
g38
sg9
L5L
sa(dp2675
g6
I01
sg7
g40
sg9
L2L
sg14
VCreate and return a new object.  See help(type) for accurate signature.
p2676
sa(dp2677
g6
I01
sg7
g43
sg9
L2L
sg14
Nsa(dp2678
g6
I01
sg7
g45
sg9
L2L
sg14
Vhelper for pickle
p2679
sa(dp2680
g6
I01
sg7
g48
sg9
L5L
sa(dp2681
g6
I01
sg7
g50
sg9
L5L
sa(dp2682
g6
I01
sg7
g52
sg9
L2L
sg14
V__sizeof__() -> int\u000asize of object in memory, in bytes
p2683
sa(dp2684
g6
I01
sg7
g55
sg9
L5L
sa(dp2685
g6
I01
sg7
g57
sg9
L2L
sg14
VAbstract classes can override this to customize issubclass().\u000a\u000aThis is invoked early on by abc.ABCMeta.__subclasscheck__().\u000aIt should return True, False or NotImplemented.  If it returns\u000aNotImplemented, the normal algorithm is used.  Otherwise, it\u000aoverrides the normal algorithm (and the outcome is cached).\u000a
p2686
sa(dp2687
g6
I01
sg7
g97
sg9
L5L
sa(dp2688
g6
I01
sg7
g60
sg9
L5L
sa(dp2689
g6
I01
sg7
V_fields
p2690
sg9
L5L
sasg6
I01
sg7
VParam
p2691
sg9
L3L
sg14
Nsa(dp2692
g1
(lp2693
(dp2694
g6
I01
sg7
g8
sg9
L5L
sa(dp2695
g6
I01
sg7
g11
sg9
L5L
sa(dp2696
g6
I01
sg7
g13
sg9
L2L
sg14
V__dir__() -> list\u000adefault dir() implementation
p2697
sa(dp2698
g6
I01
sg7
g17
sg9
L5L
sa(dp2699
g6
I01
sg7
g19
sg9
L5L
sa(dp2700
g6
I01
sg7
g21
sg9
L2L
sg14
Vdefault object formatter
p2701
sa(dp2702
g6
I01
sg7
g24
sg9
L5L
sa(dp2703
g6
I01
sg7
g26
sg9
L5L
sa(dp2704
g6
I01
sg7
g28
sg9
L5L
sa(dp2705
g6
I01
sg7
g30
sg9
L5L
sa(dp2706
g6
I01
sg7
g32
sg9
L5L
sa(dp2707
g6
I01
sg7
g34
sg9
L5L
sa(dp2708
g6
I01
sg7
g36
sg9
L5L
sa(dp2709
g6
I01
sg7
V__module__
p2710
sg9
L5L
sa(dp2711
g6
I01
sg7
g38
sg9
L5L
sa(dp2712
g6
I01
sg7
g40
sg9
L2L
sg14
VCreate and return a new object.  See help(type) for accurate signature.
p2713
sa(dp2714
g6
I01
sg7
g43
sg9
L2L
sg14
Nsa(dp2715
g6
I01
sg7
g45
sg9
L2L
sg14
Vhelper for pickle
p2716
sa(dp2717
g6
I01
sg7
g48
sg9
L5L
sa(dp2718
g6
I01
sg7
g50
sg9
L5L
sa(dp2719
g6
I01
sg7
g52
sg9
L2L
sg14
V__sizeof__() -> int\u000asize of object in memory, in bytes
p2720
sa(dp2721
g6
I01
sg7
g55
sg9
L5L
sa(dp2722
g6
I01
sg7
g57
sg9
L2L
sg14
VAbstract classes can override this to customize issubclass().\u000a\u000aThis is invoked early on by abc.ABCMeta.__subclasscheck__().\u000aIt should return True, False or NotImplemented.  If it returns\u000aNotImplemented, the normal algorithm is used.  Otherwise, it\u000aoverrides the normal algorithm (and the outcome is cached).\u000a
p2723
sa(dp2724
g6
I01
sg7
g97
sg9
L5L
sa(dp2725
g6
I01
sg7
g60
sg9
L5L
sa(dp2726
g6
I01
sg7
V_fields
p2727
sg9
L5L
sasg6
I01
sg7
VPass
p2728
sg9
L3L
sg14
Nsa(dp2729
g1
(lp2730
(dp2731
g6
I01
sg7
g8
sg9
L5L
sa(dp2732
g6
I01
sg7
g11
sg9
L5L
sa(dp2733
g6
I01
sg7
g13
sg9
L2L
sg14
V__dir__() -> list\u000adefault dir() implementation
p2734
sa(dp2735
g6
I01
sg7
g17
sg9
L5L
sa(dp2736
g6
I01
sg7
g19
sg9
L5L
sa(dp2737
g6
I01
sg7
g21
sg9
L2L
sg14
Vdefault object formatter
p2738
sa(dp2739
g6
I01
sg7
g24
sg9
L5L
sa(dp2740
g6
I01
sg7
g26
sg9
L5L
sa(dp2741
g6
I01
sg7
g28
sg9
L5L
sa(dp2742
g6
I01
sg7
g30
sg9
L5L
sa(dp2743
g6
I01
sg7
g32
sg9
L5L
sa(dp2744
g6
I01
sg7
g34
sg9
L5L
sa(dp2745
g6
I01
sg7
g36
sg9
L5L
sa(dp2746
g6
I01
sg7
V__module__
p2747
sg9
L5L
sa(dp2748
g6
I01
sg7
g38
sg9
L5L
sa(dp2749
g6
I01
sg7
g40
sg9
L2L
sg14
VCreate and return a new object.  See help(type) for accurate signature.
p2750
sa(dp2751
g6
I01
sg7
g43
sg9
L2L
sg14
Nsa(dp2752
g6
I01
sg7
g45
sg9
L2L
sg14
Vhelper for pickle
p2753
sa(dp2754
g6
I01
sg7
g48
sg9
L5L
sa(dp2755
g6
I01
sg7
g50
sg9
L5L
sa(dp2756
g6
I01
sg7
g52
sg9
L2L
sg14
V__sizeof__() -> int\u000asize of object in memory, in bytes
p2757
sa(dp2758
g6
I01
sg7
g55
sg9
L5L
sa(dp2759
g6
I01
sg7
g57
sg9
L2L
sg14
VAbstract classes can override this to customize issubclass().\u000a\u000aThis is invoked early on by abc.ABCMeta.__subclasscheck__().\u000aIt should return True, False or NotImplemented.  If it returns\u000aNotImplemented, the normal algorithm is used.  Otherwise, it\u000aoverrides the normal algorithm (and the outcome is cached).\u000a
p2760
sa(dp2761
g6
I01
sg7
g97
sg9
L5L
sa(dp2762
g6
I01
sg7
g60
sg9
L5L
sa(dp2763
g6
I01
sg7
V_fields
p2764
sg9
L5L
sasg6
I01
sg7
VPow
p2765
sg9
L3L
sg14
Nsa(dp2766
g6
I01
sg7
VPyCF_ONLY_AST
p2767
sg9
L5L
sa(dp2768
g1
(lp2769
(dp2770
g6
I01
sg7
g8
sg9
L5L
sa(dp2771
g6
I01
sg7
g11
sg9
L5L
sa(dp2772
g6
I01
sg7
g13
sg9
L2L
sg14
V__dir__() -> list\u000adefault dir() implementation
p2773
sa(dp2774
g6
I01
sg7
g17
sg9
L5L
sa(dp2775
g6
I01
sg7
g19
sg9
L5L
sa(dp2776
g6
I01
sg7
g21
sg9
L2L
sg14
Vdefault object formatter
p2777
sa(dp2778
g6
I01
sg7
g24
sg9
L5L
sa(dp2779
g6
I01
sg7
g26
sg9
L5L
sa(dp2780
g6
I01
sg7
g28
sg9
L5L
sa(dp2781
g6
I01
sg7
g30
sg9
L5L
sa(dp2782
g6
I01
sg7
g32
sg9
L5L
sa(dp2783
g6
I01
sg7
g34
sg9
L5L
sa(dp2784
g6
I01
sg7
g36
sg9
L5L
sa(dp2785
g6
I01
sg7
V__module__
p2786
sg9
L5L
sa(dp2787
g6
I01
sg7
g38
sg9
L5L
sa(dp2788
g6
I01
sg7
g40
sg9
L2L
sg14
VCreate and return a new object.  See help(type) for accurate signature.
p2789
sa(dp2790
g6
I01
sg7
g43
sg9
L2L
sg14
Nsa(dp2791
g6
I01
sg7
g45
sg9
L2L
sg14
Vhelper for pickle
p2792
sa(dp2793
g6
I01
sg7
g48
sg9
L5L
sa(dp2794
g6
I01
sg7
g50
sg9
L5L
sa(dp2795
g6
I01
sg7
g52
sg9
L2L
sg14
V__sizeof__() -> int\u000asize of object in memory, in bytes
p2796
sa(dp2797
g6
I01
sg7
g55
sg9
L5L
sa(dp2798
g6
I01
sg7
g57
sg9
L2L
sg14
VAbstract classes can override this to customize issubclass().\u000a\u000aThis is invoked early on by abc.ABCMeta.__subclasscheck__().\u000aIt should return True, False or NotImplemented.  If it returns\u000aNotImplemented, the normal algorithm is used.  Otherwise, it\u000aoverrides the normal algorithm (and the outcome is cached).\u000a
p2799
sa(dp2800
g6
I01
sg7
g97
sg9
L5L
sa(dp2801
g6
I01
sg7
g60
sg9
L5L
sa(dp2802
g6
I01
sg7
V_fields
p2803
sg9
L5L
sasg6
I01
sg7
VRShift
p2804
sg9
L3L
sg14
Nsa(dp2805
g1
(lp2806
(dp2807
g6
I01
sg7
g8
sg9
L5L
sa(dp2808
g6
I01
sg7
g11
sg9
L5L
sa(dp2809
g6
I01
sg7
g13
sg9
L2L
sg14
V__dir__() -> list\u000adefault dir() implementation
p2810
sa(dp2811
g6
I01
sg7
g17
sg9
L5L
sa(dp2812
g6
I01
sg7
g19
sg9
L5L
sa(dp2813
g6
I01
sg7
g21
sg9
L2L
sg14
Vdefault object formatter
p2814
sa(dp2815
g6
I01
sg7
g24
sg9
L5L
sa(dp2816
g6
I01
sg7
g26
sg9
L5L
sa(dp2817
g6
I01
sg7
g28
sg9
L5L
sa(dp2818
g6
I01
sg7
g30
sg9
L5L
sa(dp2819
g6
I01
sg7
g32
sg9
L5L
sa(dp2820
g6
I01
sg7
g34
sg9
L5L
sa(dp2821
g6
I01
sg7
g36
sg9
L5L
sa(dp2822
g6
I01
sg7
V__module__
p2823
sg9
L5L
sa(dp2824
g6
I01
sg7
g38
sg9
L5L
sa(dp2825
g6
I01
sg7
g40
sg9
L2L
sg14
VCreate and return a new object.  See help(type) for accurate signature.
p2826
sa(dp2827
g6
I01
sg7
g43
sg9
L2L
sg14
Nsa(dp2828
g6
I01
sg7
g45
sg9
L2L
sg14
Vhelper for pickle
p2829
sa(dp2830
g6
I01
sg7
g48
sg9
L5L
sa(dp2831
g6
I01
sg7
g50
sg9
L5L
sa(dp2832
g6
I01
sg7
g52
sg9
L2L
sg14
V__sizeof__() -> int\u000asize of object in memory, in bytes
p2833
sa(dp2834
g6
I01
sg7
g55
sg9
L5L
sa(dp2835
g6
I01
sg7
g57
sg9
L2L
sg14
VAbstract classes can override this to customize issubclass().\u000a\u000aThis is invoked early on by abc.ABCMeta.__subclasscheck__().\u000aIt should return True, False or NotImplemented.  If it returns\u000aNotImplemented, the normal algorithm is used.  Otherwise, it\u000aoverrides the normal algorithm (and the outcome is cached).\u000a
p2836
sa(dp2837
g6
I01
sg7
g97
sg9
L5L
sa(dp2838
g6
I01
sg7
g60
sg9
L5L
sa(dp2839
g6
I01
sg7
V_fields
p2840
sg9
L5L
sasg6
I01
sg7
VRaise
p2841
sg9
L3L
sg14
Nsa(dp2842
g1
(lp2843
(dp2844
g6
I01
sg7
g8
sg9
L5L
sa(dp2845
g6
I01
sg7
g11
sg9
L5L
sa(dp2846
g6
I01
sg7
g13
sg9
L2L
sg14
V__dir__() -> list\u000adefault dir() implementation
p2847
sa(dp2848
g6
I01
sg7
g17
sg9
L5L
sa(dp2849
g6
I01
sg7
g19
sg9
L5L
sa(dp2850
g6
I01
sg7
g21
sg9
L2L
sg14
Vdefault object formatter
p2851
sa(dp2852
g6
I01
sg7
g24
sg9
L5L
sa(dp2853
g6
I01
sg7
g26
sg9
L5L
sa(dp2854
g6
I01
sg7
g28
sg9
L5L
sa(dp2855
g6
I01
sg7
g30
sg9
L5L
sa(dp2856
g6
I01
sg7
g32
sg9
L5L
sa(dp2857
g6
I01
sg7
g34
sg9
L5L
sa(dp2858
g6
I01
sg7
g36
sg9
L5L
sa(dp2859
g6
I01
sg7
V__module__
p2860
sg9
L5L
sa(dp2861
g6
I01
sg7
g38
sg9
L5L
sa(dp2862
g6
I01
sg7
g40
sg9
L2L
sg14
VCreate and return a new object.  See help(type) for accurate signature.
p2863
sa(dp2864
g6
I01
sg7
g43
sg9
L2L
sg14
Nsa(dp2865
g6
I01
sg7
g45
sg9
L2L
sg14
Vhelper for pickle
p2866
sa(dp2867
g6
I01
sg7
g48
sg9
L5L
sa(dp2868
g6
I01
sg7
g50
sg9
L5L
sa(dp2869
g6
I01
sg7
g52
sg9
L2L
sg14
V__sizeof__() -> int\u000asize of object in memory, in bytes
p2870
sa(dp2871
g6
I01
sg7
g55
sg9
L5L
sa(dp2872
g6
I01
sg7
g57
sg9
L2L
sg14
VAbstract classes can override this to customize issubclass().\u000a\u000aThis is invoked early on by abc.ABCMeta.__subclasscheck__().\u000aIt should return True, False or NotImplemented.  If it returns\u000aNotImplemented, the normal algorithm is used.  Otherwise, it\u000aoverrides the normal algorithm (and the outcome is cached).\u000a
p2873
sa(dp2874
g6
I01
sg7
g97
sg9
L5L
sa(dp2875
g6
I01
sg7
g60
sg9
L5L
sa(dp2876
g6
I01
sg7
V_fields
p2877
sg9
L5L
sasg6
I01
sg7
VReturn
p2878
sg9
L3L
sg14
Nsa(dp2879
g1
(lp2880
(dp2881
g6
I01
sg7
g8
sg9
L5L
sa(dp2882
g6
I01
sg7
g11
sg9
L5L
sa(dp2883
g6
I01
sg7
g13
sg9
L2L
sg14
V__dir__() -> list\u000adefault dir() implementation
p2884
sa(dp2885
g6
I01
sg7
g17
sg9
L5L
sa(dp2886
g6
I01
sg7
g19
sg9
L5L
sa(dp2887
g6
I01
sg7
g21
sg9
L2L
sg14
Vdefault object formatter
p2888
sa(dp2889
g6
I01
sg7
g24
sg9
L5L
sa(dp2890
g6
I01
sg7
g26
sg9
L5L
sa(dp2891
g6
I01
sg7
g28
sg9
L5L
sa(dp2892
g6
I01
sg7
g30
sg9
L5L
sa(dp2893
g6
I01
sg7
g32
sg9
L5L
sa(dp2894
g6
I01
sg7
g34
sg9
L5L
sa(dp2895
g6
I01
sg7
g36
sg9
L5L
sa(dp2896
g6
I01
sg7
V__module__
p2897
sg9
L5L
sa(dp2898
g6
I01
sg7
g38
sg9
L5L
sa(dp2899
g6
I01
sg7
g40
sg9
L2L
sg14
VCreate and return a new object.  See help(type) for accurate signature.
p2900
sa(dp2901
g6
I01
sg7
g43
sg9
L2L
sg14
Nsa(dp2902
g6
I01
sg7
g45
sg9
L2L
sg14
Vhelper for pickle
p2903
sa(dp2904
g6
I01
sg7
g48
sg9
L5L
sa(dp2905
g6
I01
sg7
g50
sg9
L5L
sa(dp2906
g6
I01
sg7
g52
sg9
L2L
sg14
V__sizeof__() -> int\u000asize of object in memory, in bytes
p2907
sa(dp2908
g6
I01
sg7
g55
sg9
L5L
sa(dp2909
g6
I01
sg7
g57
sg9
L2L
sg14
VAbstract classes can override this to customize issubclass().\u000a\u000aThis is invoked early on by abc.ABCMeta.__subclasscheck__().\u000aIt should return True, False or NotImplemented.  If it returns\u000aNotImplemented, the normal algorithm is used.  Otherwise, it\u000aoverrides the normal algorithm (and the outcome is cached).\u000a
p2910
sa(dp2911
g6
I01
sg7
g97
sg9
L5L
sa(dp2912
g6
I01
sg7
g60
sg9
L5L
sa(dp2913
g6
I01
sg7
V_fields
p2914
sg9
L5L
sasg6
I01
sg7
VSet
p2915
sg9
L3L
sg14
Nsa(dp2916
g1
(lp2917
(dp2918
g6
I01
sg7
g8
sg9
L5L
sa(dp2919
g6
I01
sg7
g11
sg9
L5L
sa(dp2920
g6
I01
sg7
g13
sg9
L2L
sg14
V__dir__() -> list\u000adefault dir() implementation
p2921
sa(dp2922
g6
I01
sg7
g17
sg9
L5L
sa(dp2923
g6
I01
sg7
g19
sg9
L5L
sa(dp2924
g6
I01
sg7
g21
sg9
L2L
sg14
Vdefault object formatter
p2925
sa(dp2926
g6
I01
sg7
g24
sg9
L5L
sa(dp2927
g6
I01
sg7
g26
sg9
L5L
sa(dp2928
g6
I01
sg7
g28
sg9
L5L
sa(dp2929
g6
I01
sg7
g30
sg9
L5L
sa(dp2930
g6
I01
sg7
g32
sg9
L5L
sa(dp2931
g6
I01
sg7
g34
sg9
L5L
sa(dp2932
g6
I01
sg7
g36
sg9
L5L
sa(dp2933
g6
I01
sg7
V__module__
p2934
sg9
L5L
sa(dp2935
g6
I01
sg7
g38
sg9
L5L
sa(dp2936
g6
I01
sg7
g40
sg9
L2L
sg14
VCreate and return a new object.  See help(type) for accurate signature.
p2937
sa(dp2938
g6
I01
sg7
g43
sg9
L2L
sg14
Nsa(dp2939
g6
I01
sg7
g45
sg9
L2L
sg14
Vhelper for pickle
p2940
sa(dp2941
g6
I01
sg7
g48
sg9
L5L
sa(dp2942
g6
I01
sg7
g50
sg9
L5L
sa(dp2943
g6
I01
sg7
g52
sg9
L2L
sg14
V__sizeof__() -> int\u000asize of object in memory, in bytes
p2944
sa(dp2945
g6
I01
sg7
g55
sg9
L5L
sa(dp2946
g6
I01
sg7
g57
sg9
L2L
sg14
VAbstract classes can override this to customize issubclass().\u000a\u000aThis is invoked early on by abc.ABCMeta.__subclasscheck__().\u000aIt should return True, False or NotImplemented.  If it returns\u000aNotImplemented, the normal algorithm is used.  Otherwise, it\u000aoverrides the normal algorithm (and the outcome is cached).\u000a
p2947
sa(dp2948
g6
I01
sg7
g97
sg9
L5L
sa(dp2949
g6
I01
sg7
g60
sg9
L5L
sa(dp2950
g6
I01
sg7
V_fields
p2951
sg9
L5L
sasg6
I01
sg7
VSetComp
p2952
sg9
L3L
sg14
Nsa(dp2953
g1
(lp2954
(dp2955
g6
I01
sg7
g8
sg9
L5L
sa(dp2956
g6
I01
sg7
g11
sg9
L5L
sa(dp2957
g6
I01
sg7
g13
sg9
L2L
sg14
V__dir__() -> list\u000adefault dir() implementation
p2958
sa(dp2959
g6
I01
sg7
g17
sg9
L5L
sa(dp2960
g6
I01
sg7
g19
sg9
L5L
sa(dp2961
g6
I01
sg7
g21
sg9
L2L
sg14
Vdefault object formatter
p2962
sa(dp2963
g6
I01
sg7
g24
sg9
L5L
sa(dp2964
g6
I01
sg7
g26
sg9
L5L
sa(dp2965
g6
I01
sg7
g28
sg9
L5L
sa(dp2966
g6
I01
sg7
g30
sg9
L5L
sa(dp2967
g6
I01
sg7
g32
sg9
L5L
sa(dp2968
g6
I01
sg7
g34
sg9
L5L
sa(dp2969
g6
I01
sg7
g36
sg9
L5L
sa(dp2970
g6
I01
sg7
V__module__
p2971
sg9
L5L
sa(dp2972
g6
I01
sg7
g38
sg9
L5L
sa(dp2973
g6
I01
sg7
g40
sg9
L2L
sg14
VCreate and return a new object.  See help(type) for accurate signature.
p2974
sa(dp2975
g6
I01
sg7
g43
sg9
L2L
sg14
Nsa(dp2976
g6
I01
sg7
g45
sg9
L2L
sg14
Vhelper for pickle
p2977
sa(dp2978
g6
I01
sg7
g48
sg9
L5L
sa(dp2979
g6
I01
sg7
g50
sg9
L5L
sa(dp2980
g6
I01
sg7
g52
sg9
L2L
sg14
V__sizeof__() -> int\u000asize of object in memory, in bytes
p2981
sa(dp2982
g6
I01
sg7
g55
sg9
L5L
sa(dp2983
g6
I01
sg7
g57
sg9
L2L
sg14
VAbstract classes can override this to customize issubclass().\u000a\u000aThis is invoked early on by abc.ABCMeta.__subclasscheck__().\u000aIt should return True, False or NotImplemented.  If it returns\u000aNotImplemented, the normal algorithm is used.  Otherwise, it\u000aoverrides the normal algorithm (and the outcome is cached).\u000a
p2984
sa(dp2985
g6
I01
sg7
g97
sg9
L5L
sa(dp2986
g6
I01
sg7
g60
sg9
L5L
sa(dp2987
g6
I01
sg7
V_fields
p2988
sg9
L5L
sasg6
I01
sg7
VSlice
p2989
sg9
L3L
sg14
Nsa(dp2990
g1
(lp2991
(dp2992
g6
I01
sg7
g8
sg9
L5L
sa(dp2993
g6
I01
sg7
g11
sg9
L5L
sa(dp2994
g6
I01
sg7
g13
sg9
L2L
sg14
V__dir__() -> list\u000adefault dir() implementation
p2995
sa(dp2996
g6
I01
sg7
g17
sg9
L5L
sa(dp2997
g6
I01
sg7
g19
sg9
L5L
sa(dp2998
g6
I01
sg7
g21
sg9
L2L
sg14
Vdefault object formatter
p2999
sa(dp3000
g6
I01
sg7
g24
sg9
L5L
sa(dp3001
g6
I01
sg7
g26
sg9
L5L
sa(dp3002
g6
I01
sg7
g28
sg9
L5L
sa(dp3003
g6
I01
sg7
g30
sg9
L5L
sa(dp3004
g6
I01
sg7
g32
sg9
L5L
sa(dp3005
g6
I01
sg7
g34
sg9
L5L
sa(dp3006
g6
I01
sg7
g36
sg9
L5L
sa(dp3007
g6
I01
sg7
V__module__
p3008
sg9
L5L
sa(dp3009
g6
I01
sg7
g38
sg9
L5L
sa(dp3010
g6
I01
sg7
g40
sg9
L2L
sg14
VCreate and return a new object.  See help(type) for accurate signature.
p3011
sa(dp3012
g6
I01
sg7
g43
sg9
L2L
sg14
Nsa(dp3013
g6
I01
sg7
g45
sg9
L2L
sg14
Vhelper for pickle
p3014
sa(dp3015
g6
I01
sg7
g48
sg9
L5L
sa(dp3016
g6
I01
sg7
g50
sg9
L5L
sa(dp3017
g6
I01
sg7
g52
sg9
L2L
sg14
V__sizeof__() -> int\u000asize of object in memory, in bytes
p3018
sa(dp3019
g6
I01
sg7
g55
sg9
L5L
sa(dp3020
g6
I01
sg7
g57
sg9
L2L
sg14
VAbstract classes can override this to customize issubclass().\u000a\u000aThis is invoked early on by abc.ABCMeta.__subclasscheck__().\u000aIt should return True, False or NotImplemented.  If it returns\u000aNotImplemented, the normal algorithm is used.  Otherwise, it\u000aoverrides the normal algorithm (and the outcome is cached).\u000a
p3021
sa(dp3022
g6
I01
sg7
g97
sg9
L5L
sa(dp3023
g6
I01
sg7
g60
sg9
L5L
sa(dp3024
g6
I01
sg7
V_fields
p3025
sg9
L5L
sasg6
I01
sg7
VStarred
p3026
sg9
L3L
sg14
Nsa(dp3027
g1
(lp3028
(dp3029
g6
I01
sg7
g8
sg9
L5L
sa(dp3030
g6
I01
sg7
g11
sg9
L5L
sa(dp3031
g6
I01
sg7
g13
sg9
L2L
sg14
V__dir__() -> list\u000adefault dir() implementation
p3032
sa(dp3033
g6
I01
sg7
g17
sg9
L5L
sa(dp3034
g6
I01
sg7
g19
sg9
L5L
sa(dp3035
g6
I01
sg7
g21
sg9
L2L
sg14
Vdefault object formatter
p3036
sa(dp3037
g6
I01
sg7
g24
sg9
L5L
sa(dp3038
g6
I01
sg7
g26
sg9
L5L
sa(dp3039
g6
I01
sg7
g28
sg9
L5L
sa(dp3040
g6
I01
sg7
g30
sg9
L5L
sa(dp3041
g6
I01
sg7
g32
sg9
L5L
sa(dp3042
g6
I01
sg7
g34
sg9
L5L
sa(dp3043
g6
I01
sg7
g36
sg9
L5L
sa(dp3044
g6
I01
sg7
V__module__
p3045
sg9
L5L
sa(dp3046
g6
I01
sg7
g38
sg9
L5L
sa(dp3047
g6
I01
sg7
g40
sg9
L2L
sg14
VCreate and return a new object.  See help(type) for accurate signature.
p3048
sa(dp3049
g6
I01
sg7
g43
sg9
L2L
sg14
Nsa(dp3050
g6
I01
sg7
g45
sg9
L2L
sg14
Vhelper for pickle
p3051
sa(dp3052
g6
I01
sg7
g48
sg9
L5L
sa(dp3053
g6
I01
sg7
g50
sg9
L5L
sa(dp3054
g6
I01
sg7
g52
sg9
L2L
sg14
V__sizeof__() -> int\u000asize of object in memory, in bytes
p3055
sa(dp3056
g6
I01
sg7
g55
sg9
L5L
sa(dp3057
g6
I01
sg7
g57
sg9
L2L
sg14
VAbstract classes can override this to customize issubclass().\u000a\u000aThis is invoked early on by abc.ABCMeta.__subclasscheck__().\u000aIt should return True, False or NotImplemented.  If it returns\u000aNotImplemented, the normal algorithm is used.  Otherwise, it\u000aoverrides the normal algorithm (and the outcome is cached).\u000a
p3058
sa(dp3059
g6
I01
sg7
g97
sg9
L5L
sa(dp3060
g6
I01
sg7
g60
sg9
L5L
sa(dp3061
g6
I01
sg7
V_fields
p3062
sg9
L5L
sasg6
I01
sg7
VStore
p3063
sg9
L3L
sg14
Nsa(dp3064
g1
(lp3065
(dp3066
g6
I01
sg7
g8
sg9
L5L
sa(dp3067
g6
I01
sg7
g11
sg9
L5L
sa(dp3068
g6
I01
sg7
g13
sg9
L2L
sg14
V__dir__() -> list\u000adefault dir() implementation
p3069
sa(dp3070
g6
I01
sg7
g17
sg9
L5L
sa(dp3071
g6
I01
sg7
g19
sg9
L5L
sa(dp3072
g6
I01
sg7
g21
sg9
L2L
sg14
Vdefault object formatter
p3073
sa(dp3074
g6
I01
sg7
g24
sg9
L5L
sa(dp3075
g6
I01
sg7
g26
sg9
L5L
sa(dp3076
g6
I01
sg7
g28
sg9
L5L
sa(dp3077
g6
I01
sg7
g30
sg9
L5L
sa(dp3078
g6
I01
sg7
g32
sg9
L5L
sa(dp3079
g6
I01
sg7
g34
sg9
L5L
sa(dp3080
g6
I01
sg7
g36
sg9
L5L
sa(dp3081
g6
I01
sg7
V__module__
p3082
sg9
L5L
sa(dp3083
g6
I01
sg7
g38
sg9
L5L
sa(dp3084
g6
I01
sg7
g40
sg9
L2L
sg14
VCreate and return a new object.  See help(type) for accurate signature.
p3085
sa(dp3086
g6
I01
sg7
g43
sg9
L2L
sg14
Nsa(dp3087
g6
I01
sg7
g45
sg9
L2L
sg14
Vhelper for pickle
p3088
sa(dp3089
g6
I01
sg7
g48
sg9
L5L
sa(dp3090
g6
I01
sg7
g50
sg9
L5L
sa(dp3091
g6
I01
sg7
g52
sg9
L2L
sg14
V__sizeof__() -> int\u000asize of object in memory, in bytes
p3092
sa(dp3093
g6
I01
sg7
g55
sg9
L5L
sa(dp3094
g6
I01
sg7
g57
sg9
L2L
sg14
VAbstract classes can override this to customize issubclass().\u000a\u000aThis is invoked early on by abc.ABCMeta.__subclasscheck__().\u000aIt should return True, False or NotImplemented.  If it returns\u000aNotImplemented, the normal algorithm is used.  Otherwise, it\u000aoverrides the normal algorithm (and the outcome is cached).\u000a
p3095
sa(dp3096
g6
I01
sg7
g97
sg9
L5L
sa(dp3097
g6
I01
sg7
g60
sg9
L5L
sa(dp3098
g6
I01
sg7
V_fields
p3099
sg9
L5L
sasg6
I01
sg7
VStr
p3100
sg9
L3L
sg14
Nsa(dp3101
g1
(lp3102
(dp3103
g6
I01
sg7
g8
sg9
L5L
sa(dp3104
g6
I01
sg7
g11
sg9
L5L
sa(dp3105
g6
I01
sg7
g13
sg9
L2L
sg14
V__dir__() -> list\u000adefault dir() implementation
p3106
sa(dp3107
g6
I01
sg7
g17
sg9
L5L
sa(dp3108
g6
I01
sg7
g19
sg9
L5L
sa(dp3109
g6
I01
sg7
g21
sg9
L2L
sg14
Vdefault object formatter
p3110
sa(dp3111
g6
I01
sg7
g24
sg9
L5L
sa(dp3112
g6
I01
sg7
g26
sg9
L5L
sa(dp3113
g6
I01
sg7
g28
sg9
L5L
sa(dp3114
g6
I01
sg7
g30
sg9
L5L
sa(dp3115
g6
I01
sg7
g32
sg9
L5L
sa(dp3116
g6
I01
sg7
g34
sg9
L5L
sa(dp3117
g6
I01
sg7
g36
sg9
L5L
sa(dp3118
g6
I01
sg7
V__module__
p3119
sg9
L5L
sa(dp3120
g6
I01
sg7
g38
sg9
L5L
sa(dp3121
g6
I01
sg7
g40
sg9
L2L
sg14
VCreate and return a new object.  See help(type) for accurate signature.
p3122
sa(dp3123
g6
I01
sg7
g43
sg9
L2L
sg14
Nsa(dp3124
g6
I01
sg7
g45
sg9
L2L
sg14
Vhelper for pickle
p3125
sa(dp3126
g6
I01
sg7
g48
sg9
L5L
sa(dp3127
g6
I01
sg7
g50
sg9
L5L
sa(dp3128
g6
I01
sg7
g52
sg9
L2L
sg14
V__sizeof__() -> int\u000asize of object in memory, in bytes
p3129
sa(dp3130
g6
I01
sg7
g55
sg9
L5L
sa(dp3131
g6
I01
sg7
g57
sg9
L2L
sg14
VAbstract classes can override this to customize issubclass().\u000a\u000aThis is invoked early on by abc.ABCMeta.__subclasscheck__().\u000aIt should return True, False or NotImplemented.  If it returns\u000aNotImplemented, the normal algorithm is used.  Otherwise, it\u000aoverrides the normal algorithm (and the outcome is cached).\u000a
p3132
sa(dp3133
g6
I01
sg7
g97
sg9
L5L
sa(dp3134
g6
I01
sg7
g60
sg9
L5L
sa(dp3135
g6
I01
sg7
V_fields
p3136
sg9
L5L
sasg6
I01
sg7
VSub
p3137
sg9
L3L
sg14
Nsa(dp3138
g1
(lp3139
(dp3140
g6
I01
sg7
g8
sg9
L5L
sa(dp3141
g6
I01
sg7
g11
sg9
L5L
sa(dp3142
g6
I01
sg7
g13
sg9
L2L
sg14
V__dir__() -> list\u000adefault dir() implementation
p3143
sa(dp3144
g6
I01
sg7
g17
sg9
L5L
sa(dp3145
g6
I01
sg7
g19
sg9
L5L
sa(dp3146
g6
I01
sg7
g21
sg9
L2L
sg14
Vdefault object formatter
p3147
sa(dp3148
g6
I01
sg7
g24
sg9
L5L
sa(dp3149
g6
I01
sg7
g26
sg9
L5L
sa(dp3150
g6
I01
sg7
g28
sg9
L5L
sa(dp3151
g6
I01
sg7
g30
sg9
L5L
sa(dp3152
g6
I01
sg7
g32
sg9
L5L
sa(dp3153
g6
I01
sg7
g34
sg9
L5L
sa(dp3154
g6
I01
sg7
g36
sg9
L5L
sa(dp3155
g6
I01
sg7
V__module__
p3156
sg9
L5L
sa(dp3157
g6
I01
sg7
g38
sg9
L5L
sa(dp3158
g6
I01
sg7
g40
sg9
L2L
sg14
VCreate and return a new object.  See help(type) for accurate signature.
p3159
sa(dp3160
g6
I01
sg7
g43
sg9
L2L
sg14
Nsa(dp3161
g6
I01
sg7
g45
sg9
L2L
sg14
Vhelper for pickle
p3162
sa(dp3163
g6
I01
sg7
g48
sg9
L5L
sa(dp3164
g6
I01
sg7
g50
sg9
L5L
sa(dp3165
g6
I01
sg7
g52
sg9
L2L
sg14
V__sizeof__() -> int\u000asize of object in memory, in bytes
p3166
sa(dp3167
g6
I01
sg7
g55
sg9
L5L
sa(dp3168
g6
I01
sg7
g57
sg9
L2L
sg14
VAbstract classes can override this to customize issubclass().\u000a\u000aThis is invoked early on by abc.ABCMeta.__subclasscheck__().\u000aIt should return True, False or NotImplemented.  If it returns\u000aNotImplemented, the normal algorithm is used.  Otherwise, it\u000aoverrides the normal algorithm (and the outcome is cached).\u000a
p3169
sa(dp3170
g6
I01
sg7
g97
sg9
L5L
sa(dp3171
g6
I01
sg7
g60
sg9
L5L
sa(dp3172
g6
I01
sg7
V_fields
p3173
sg9
L5L
sasg6
I01
sg7
VSubscript
p3174
sg9
L3L
sg14
Nsa(dp3175
g1
(lp3176
(dp3177
g6
I01
sg7
g8
sg9
L5L
sa(dp3178
g6
I01
sg7
g11
sg9
L5L
sa(dp3179
g6
I01
sg7
g13
sg9
L2L
sg14
V__dir__() -> list\u000adefault dir() implementation
p3180
sa(dp3181
g6
I01
sg7
g17
sg9
L5L
sa(dp3182
g6
I01
sg7
g19
sg9
L5L
sa(dp3183
g6
I01
sg7
g21
sg9
L2L
sg14
Vdefault object formatter
p3184
sa(dp3185
g6
I01
sg7
g24
sg9
L5L
sa(dp3186
g6
I01
sg7
g26
sg9
L5L
sa(dp3187
g6
I01
sg7
g28
sg9
L5L
sa(dp3188
g6
I01
sg7
g30
sg9
L5L
sa(dp3189
g6
I01
sg7
g32
sg9
L5L
sa(dp3190
g6
I01
sg7
g34
sg9
L5L
sa(dp3191
g6
I01
sg7
g36
sg9
L5L
sa(dp3192
g6
I01
sg7
V__module__
p3193
sg9
L5L
sa(dp3194
g6
I01
sg7
g38
sg9
L5L
sa(dp3195
g6
I01
sg7
g40
sg9
L2L
sg14
VCreate and return a new object.  See help(type) for accurate signature.
p3196
sa(dp3197
g6
I01
sg7
g43
sg9
L2L
sg14
Nsa(dp3198
g6
I01
sg7
g45
sg9
L2L
sg14
Vhelper for pickle
p3199
sa(dp3200
g6
I01
sg7
g48
sg9
L5L
sa(dp3201
g6
I01
sg7
g50
sg9
L5L
sa(dp3202
g6
I01
sg7
g52
sg9
L2L
sg14
V__sizeof__() -> int\u000asize of object in memory, in bytes
p3203
sa(dp3204
g6
I01
sg7
g55
sg9
L5L
sa(dp3205
g6
I01
sg7
g57
sg9
L2L
sg14
VAbstract classes can override this to customize issubclass().\u000a\u000aThis is invoked early on by abc.ABCMeta.__subclasscheck__().\u000aIt should return True, False or NotImplemented.  If it returns\u000aNotImplemented, the normal algorithm is used.  Otherwise, it\u000aoverrides the normal algorithm (and the outcome is cached).\u000a
p3206
sa(dp3207
g6
I01
sg7
g97
sg9
L5L
sa(dp3208
g6
I01
sg7
g60
sg9
L5L
sa(dp3209
g6
I01
sg7
V_fields
p3210
sg9
L5L
sasg6
I01
sg7
VSuite
p3211
sg9
L3L
sg14
Nsa(dp3212
g1
(lp3213
(dp3214
g6
I01
sg7
g8
sg9
L5L
sa(dp3215
g6
I01
sg7
g11
sg9
L5L
sa(dp3216
g6
I01
sg7
g13
sg9
L2L
sg14
V__dir__() -> list\u000adefault dir() implementation
p3217
sa(dp3218
g6
I01
sg7
g17
sg9
L5L
sa(dp3219
g6
I01
sg7
g19
sg9
L5L
sa(dp3220
g6
I01
sg7
g21
sg9
L2L
sg14
Vdefault object formatter
p3221
sa(dp3222
g6
I01
sg7
g24
sg9
L5L
sa(dp3223
g6
I01
sg7
g26
sg9
L5L
sa(dp3224
g6
I01
sg7
g28
sg9
L5L
sa(dp3225
g6
I01
sg7
g30
sg9
L5L
sa(dp3226
g6
I01
sg7
g32
sg9
L5L
sa(dp3227
g6
I01
sg7
g34
sg9
L5L
sa(dp3228
g6
I01
sg7
g36
sg9
L5L
sa(dp3229
g6
I01
sg7
V__module__
p3230
sg9
L5L
sa(dp3231
g6
I01
sg7
g38
sg9
L5L
sa(dp3232
g6
I01
sg7
g40
sg9
L2L
sg14
VCreate and return a new object.  See help(type) for accurate signature.
p3233
sa(dp3234
g6
I01
sg7
g43
sg9
L2L
sg14
Nsa(dp3235
g6
I01
sg7
g45
sg9
L2L
sg14
Vhelper for pickle
p3236
sa(dp3237
g6
I01
sg7
g48
sg9
L5L
sa(dp3238
g6
I01
sg7
g50
sg9
L5L
sa(dp3239
g6
I01
sg7
g52
sg9
L2L
sg14
V__sizeof__() -> int\u000asize of object in memory, in bytes
p3240
sa(dp3241
g6
I01
sg7
g55
sg9
L5L
sa(dp3242
g6
I01
sg7
g57
sg9
L2L
sg14
VAbstract classes can override this to customize issubclass().\u000a\u000aThis is invoked early on by abc.ABCMeta.__subclasscheck__().\u000aIt should return True, False or NotImplemented.  If it returns\u000aNotImplemented, the normal algorithm is used.  Otherwise, it\u000aoverrides the normal algorithm (and the outcome is cached).\u000a
p3243
sa(dp3244
g6
I01
sg7
g97
sg9
L5L
sa(dp3245
g6
I01
sg7
g60
sg9
L5L
sa(dp3246
g6
I01
sg7
V_fields
p3247
sg9
L5L
sasg6
I01
sg7
VTry
p3248
sg9
L3L
sg14
Nsa(dp3249
g1
(lp3250
(dp3251
g6
I01
sg7
g8
sg9
L5L
sa(dp3252
g6
I01
sg7
g11
sg9
L5L
sa(dp3253
g6
I01
sg7
g13
sg9
L2L
sg14
V__dir__() -> list\u000adefault dir() implementation
p3254
sa(dp3255
g6
I01
sg7
g17
sg9
L5L
sa(dp3256
g6
I01
sg7
g19
sg9
L5L
sa(dp3257
g6
I01
sg7
g21
sg9
L2L
sg14
Vdefault object formatter
p3258
sa(dp3259
g6
I01
sg7
g24
sg9
L5L
sa(dp3260
g6
I01
sg7
g26
sg9
L5L
sa(dp3261
g6
I01
sg7
g28
sg9
L5L
sa(dp3262
g6
I01
sg7
g30
sg9
L5L
sa(dp3263
g6
I01
sg7
g32
sg9
L5L
sa(dp3264
g6
I01
sg7
g34
sg9
L5L
sa(dp3265
g6
I01
sg7
g36
sg9
L5L
sa(dp3266
g6
I01
sg7
V__module__
p3267
sg9
L5L
sa(dp3268
g6
I01
sg7
g38
sg9
L5L
sa(dp3269
g6
I01
sg7
g40
sg9
L2L
sg14
VCreate and return a new object.  See help(type) for accurate signature.
p3270
sa(dp3271
g6
I01
sg7
g43
sg9
L2L
sg14
Nsa(dp3272
g6
I01
sg7
g45
sg9
L2L
sg14
Vhelper for pickle
p3273
sa(dp3274
g6
I01
sg7
g48
sg9
L5L
sa(dp3275
g6
I01
sg7
g50
sg9
L5L
sa(dp3276
g6
I01
sg7
g52
sg9
L2L
sg14
V__sizeof__() -> int\u000asize of object in memory, in bytes
p3277
sa(dp3278
g6
I01
sg7
g55
sg9
L5L
sa(dp3279
g6
I01
sg7
g57
sg9
L2L
sg14
VAbstract classes can override this to customize issubclass().\u000a\u000aThis is invoked early on by abc.ABCMeta.__subclasscheck__().\u000aIt should return True, False or NotImplemented.  If it returns\u000aNotImplemented, the normal algorithm is used.  Otherwise, it\u000aoverrides the normal algorithm (and the outcome is cached).\u000a
p3280
sa(dp3281
g6
I01
sg7
g97
sg9
L5L
sa(dp3282
g6
I01
sg7
g60
sg9
L5L
sa(dp3283
g6
I01
sg7
V_fields
p3284
sg9
L5L
sasg6
I01
sg7
VTuple
p3285
sg9
L3L
sg14
Nsa(dp3286
g1
(lp3287
(dp3288
g6
I01
sg7
g8
sg9
L5L
sa(dp3289
g6
I01
sg7
g11
sg9
L5L
sa(dp3290
g6
I01
sg7
g13
sg9
L2L
sg14
V__dir__() -> list\u000adefault dir() implementation
p3291
sa(dp3292
g6
I01
sg7
g17
sg9
L5L
sa(dp3293
g6
I01
sg7
g19
sg9
L5L
sa(dp3294
g6
I01
sg7
g21
sg9
L2L
sg14
Vdefault object formatter
p3295
sa(dp3296
g6
I01
sg7
g24
sg9
L5L
sa(dp3297
g6
I01
sg7
g26
sg9
L5L
sa(dp3298
g6
I01
sg7
g28
sg9
L5L
sa(dp3299
g6
I01
sg7
g30
sg9
L5L
sa(dp3300
g6
I01
sg7
g32
sg9
L5L
sa(dp3301
g6
I01
sg7
g34
sg9
L5L
sa(dp3302
g6
I01
sg7
g36
sg9
L5L
sa(dp3303
g6
I01
sg7
V__module__
p3304
sg9
L5L
sa(dp3305
g6
I01
sg7
g38
sg9
L5L
sa(dp3306
g6
I01
sg7
g40
sg9
L2L
sg14
VCreate and return a new object.  See help(type) for accurate signature.
p3307
sa(dp3308
g6
I01
sg7
g43
sg9
L2L
sg14
Nsa(dp3309
g6
I01
sg7
g45
sg9
L2L
sg14
Vhelper for pickle
p3310
sa(dp3311
g6
I01
sg7
g48
sg9
L5L
sa(dp3312
g6
I01
sg7
g50
sg9
L5L
sa(dp3313
g6
I01
sg7
g52
sg9
L2L
sg14
V__sizeof__() -> int\u000asize of object in memory, in bytes
p3314
sa(dp3315
g6
I01
sg7
g55
sg9
L5L
sa(dp3316
g6
I01
sg7
g57
sg9
L2L
sg14
VAbstract classes can override this to customize issubclass().\u000a\u000aThis is invoked early on by abc.ABCMeta.__subclasscheck__().\u000aIt should return True, False or NotImplemented.  If it returns\u000aNotImplemented, the normal algorithm is used.  Otherwise, it\u000aoverrides the normal algorithm (and the outcome is cached).\u000a
p3317
sa(dp3318
g6
I01
sg7
g97
sg9
L5L
sa(dp3319
g6
I01
sg7
g60
sg9
L5L
sa(dp3320
g6
I01
sg7
V_fields
p3321
sg9
L5L
sasg6
I01
sg7
VUAdd
p3322
sg9
L3L
sg14
Nsa(dp3323
g1
(lp3324
(dp3325
g6
I01
sg7
g8
sg9
L5L
sa(dp3326
g6
I01
sg7
g11
sg9
L5L
sa(dp3327
g6
I01
sg7
g13
sg9
L2L
sg14
V__dir__() -> list\u000adefault dir() implementation
p3328
sa(dp3329
g6
I01
sg7
g17
sg9
L5L
sa(dp3330
g6
I01
sg7
g19
sg9
L5L
sa(dp3331
g6
I01
sg7
g21
sg9
L2L
sg14
Vdefault object formatter
p3332
sa(dp3333
g6
I01
sg7
g24
sg9
L5L
sa(dp3334
g6
I01
sg7
g26
sg9
L5L
sa(dp3335
g6
I01
sg7
g28
sg9
L5L
sa(dp3336
g6
I01
sg7
g30
sg9
L5L
sa(dp3337
g6
I01
sg7
g32
sg9
L5L
sa(dp3338
g6
I01
sg7
g34
sg9
L5L
sa(dp3339
g6
I01
sg7
g36
sg9
L5L
sa(dp3340
g6
I01
sg7
V__module__
p3341
sg9
L5L
sa(dp3342
g6
I01
sg7
g38
sg9
L5L
sa(dp3343
g6
I01
sg7
g40
sg9
L2L
sg14
VCreate and return a new object.  See help(type) for accurate signature.
p3344
sa(dp3345
g6
I01
sg7
g43
sg9
L2L
sg14
Nsa(dp3346
g6
I01
sg7
g45
sg9
L2L
sg14
Vhelper for pickle
p3347
sa(dp3348
g6
I01
sg7
g48
sg9
L5L
sa(dp3349
g6
I01
sg7
g50
sg9
L5L
sa(dp3350
g6
I01
sg7
g52
sg9
L2L
sg14
V__sizeof__() -> int\u000asize of object in memory, in bytes
p3351
sa(dp3352
g6
I01
sg7
g55
sg9
L5L
sa(dp3353
g6
I01
sg7
g57
sg9
L2L
sg14
VAbstract classes can override this to customize issubclass().\u000a\u000aThis is invoked early on by abc.ABCMeta.__subclasscheck__().\u000aIt should return True, False or NotImplemented.  If it returns\u000aNotImplemented, the normal algorithm is used.  Otherwise, it\u000aoverrides the normal algorithm (and the outcome is cached).\u000a
p3354
sa(dp3355
g6
I01
sg7
g97
sg9
L5L
sa(dp3356
g6
I01
sg7
g60
sg9
L5L
sa(dp3357
g6
I01
sg7
V_fields
p3358
sg9
L5L
sasg6
I01
sg7
VUSub
p3359
sg9
L3L
sg14
Nsa(dp3360
g1
(lp3361
(dp3362
g6
I01
sg7
g8
sg9
L5L
sa(dp3363
g6
I01
sg7
g11
sg9
L5L
sa(dp3364
g6
I01
sg7
g13
sg9
L2L
sg14
V__dir__() -> list\u000adefault dir() implementation
p3365
sa(dp3366
g6
I01
sg7
g17
sg9
L5L
sa(dp3367
g6
I01
sg7
g19
sg9
L5L
sa(dp3368
g6
I01
sg7
g21
sg9
L2L
sg14
Vdefault object formatter
p3369
sa(dp3370
g6
I01
sg7
g24
sg9
L5L
sa(dp3371
g6
I01
sg7
g26
sg9
L5L
sa(dp3372
g6
I01
sg7
g28
sg9
L5L
sa(dp3373
g6
I01
sg7
g30
sg9
L5L
sa(dp3374
g6
I01
sg7
g32
sg9
L5L
sa(dp3375
g6
I01
sg7
g34
sg9
L5L
sa(dp3376
g6
I01
sg7
g36
sg9
L5L
sa(dp3377
g6
I01
sg7
V__module__
p3378
sg9
L5L
sa(dp3379
g6
I01
sg7
g38
sg9
L5L
sa(dp3380
g6
I01
sg7
g40
sg9
L2L
sg14
VCreate and return a new object.  See help(type) for accurate signature.
p3381
sa(dp3382
g6
I01
sg7
g43
sg9
L2L
sg14
Nsa(dp3383
g6
I01
sg7
g45
sg9
L2L
sg14
Vhelper for pickle
p3384
sa(dp3385
g6
I01
sg7
g48
sg9
L5L
sa(dp3386
g6
I01
sg7
g50
sg9
L5L
sa(dp3387
g6
I01
sg7
g52
sg9
L2L
sg14
V__sizeof__() -> int\u000asize of object in memory, in bytes
p3388
sa(dp3389
g6
I01
sg7
g55
sg9
L5L
sa(dp3390
g6
I01
sg7
g57
sg9
L2L
sg14
VAbstract classes can override this to customize issubclass().\u000a\u000aThis is invoked early on by abc.ABCMeta.__subclasscheck__().\u000aIt should return True, False or NotImplemented.  If it returns\u000aNotImplemented, the normal algorithm is used.  Otherwise, it\u000aoverrides the normal algorithm (and the outcome is cached).\u000a
p3391
sa(dp3392
g6
I01
sg7
g97
sg9
L5L
sa(dp3393
g6
I01
sg7
g60
sg9
L5L
sa(dp3394
g6
I01
sg7
V_fields
p3395
sg9
L5L
sasg6
I01
sg7
VUnaryOp
p3396
sg9
L3L
sg14
Nsa(dp3397
g1
(lp3398
(dp3399
g6
I01
sg7
g8
sg9
L5L
sa(dp3400
g6
I01
sg7
g11
sg9
L5L
sa(dp3401
g6
I01
sg7
g13
sg9
L2L
sg14
V__dir__() -> list\u000adefault dir() implementation
p3402
sa(dp3403
g6
I01
sg7
g17
sg9
L5L
sa(dp3404
g6
I01
sg7
g19
sg9
L5L
sa(dp3405
g6
I01
sg7
g21
sg9
L2L
sg14
Vdefault object formatter
p3406
sa(dp3407
g6
I01
sg7
g24
sg9
L5L
sa(dp3408
g6
I01
sg7
g26
sg9
L5L
sa(dp3409
g6
I01
sg7
g28
sg9
L5L
sa(dp3410
g6
I01
sg7
g30
sg9
L5L
sa(dp3411
g6
I01
sg7
g32
sg9
L5L
sa(dp3412
g6
I01
sg7
g34
sg9
L5L
sa(dp3413
g6
I01
sg7
g36
sg9
L5L
sa(dp3414
g6
I01
sg7
V__module__
p3415
sg9
L5L
sa(dp3416
g6
I01
sg7
g38
sg9
L5L
sa(dp3417
g6
I01
sg7
g40
sg9
L2L
sg14
VCreate and return a new object.  See help(type) for accurate signature.
p3418
sa(dp3419
g6
I01
sg7
g43
sg9
L2L
sg14
Nsa(dp3420
g6
I01
sg7
g45
sg9
L2L
sg14
Vhelper for pickle
p3421
sa(dp3422
g6
I01
sg7
g48
sg9
L5L
sa(dp3423
g6
I01
sg7
g50
sg9
L5L
sa(dp3424
g6
I01
sg7
g52
sg9
L2L
sg14
V__sizeof__() -> int\u000asize of object in memory, in bytes
p3425
sa(dp3426
g6
I01
sg7
g55
sg9
L5L
sa(dp3427
g6
I01
sg7
g57
sg9
L2L
sg14
VAbstract classes can override this to customize issubclass().\u000a\u000aThis is invoked early on by abc.ABCMeta.__subclasscheck__().\u000aIt should return True, False or NotImplemented.  If it returns\u000aNotImplemented, the normal algorithm is used.  Otherwise, it\u000aoverrides the normal algorithm (and the outcome is cached).\u000a
p3428
sa(dp3429
g6
I01
sg7
g97
sg9
L5L
sa(dp3430
g6
I01
sg7
g60
sg9
L5L
sa(dp3431
g6
I01
sg7
V_fields
p3432
sg9
L5L
sasg6
I01
sg7
VWhile
p3433
sg9
L3L
sg14
Nsa(dp3434
g1
(lp3435
(dp3436
g6
I01
sg7
g8
sg9
L5L
sa(dp3437
g6
I01
sg7
g11
sg9
L5L
sa(dp3438
g6
I01
sg7
g13
sg9
L2L
sg14
V__dir__() -> list\u000adefault dir() implementation
p3439
sa(dp3440
g6
I01
sg7
g17
sg9
L5L
sa(dp3441
g6
I01
sg7
g19
sg9
L5L
sa(dp3442
g6
I01
sg7
g21
sg9
L2L
sg14
Vdefault object formatter
p3443
sa(dp3444
g6
I01
sg7
g24
sg9
L5L
sa(dp3445
g6
I01
sg7
g26
sg9
L5L
sa(dp3446
g6
I01
sg7
g28
sg9
L5L
sa(dp3447
g6
I01
sg7
g30
sg9
L5L
sa(dp3448
g6
I01
sg7
g32
sg9
L5L
sa(dp3449
g6
I01
sg7
g34
sg9
L5L
sa(dp3450
g6
I01
sg7
g36
sg9
L5L
sa(dp3451
g6
I01
sg7
V__module__
p3452
sg9
L5L
sa(dp3453
g6
I01
sg7
g38
sg9
L5L
sa(dp3454
g6
I01
sg7
g40
sg9
L2L
sg14
VCreate and return a new object.  See help(type) for accurate signature.
p3455
sa(dp3456
g6
I01
sg7
g43
sg9
L2L
sg14
Nsa(dp3457
g6
I01
sg7
g45
sg9
L2L
sg14
Vhelper for pickle
p3458
sa(dp3459
g6
I01
sg7
g48
sg9
L5L
sa(dp3460
g6
I01
sg7
g50
sg9
L5L
sa(dp3461
g6
I01
sg7
g52
sg9
L2L
sg14
V__sizeof__() -> int\u000asize of object in memory, in bytes
p3462
sa(dp3463
g6
I01
sg7
g55
sg9
L5L
sa(dp3464
g6
I01
sg7
g57
sg9
L2L
sg14
VAbstract classes can override this to customize issubclass().\u000a\u000aThis is invoked early on by abc.ABCMeta.__subclasscheck__().\u000aIt should return True, False or NotImplemented.  If it returns\u000aNotImplemented, the normal algorithm is used.  Otherwise, it\u000aoverrides the normal algorithm (and the outcome is cached).\u000a
p3465
sa(dp3466
g6
I01
sg7
g97
sg9
L5L
sa(dp3467
g6
I01
sg7
g60
sg9
L5L
sa(dp3468
g6
I01
sg7
V_fields
p3469
sg9
L5L
sasg6
I01
sg7
VWith
p3470
sg9
L3L
sg14
Nsa(dp3471
g1
(lp3472
(dp3473
g6
I01
sg7
g8
sg9
L5L
sa(dp3474
g6
I01
sg7
g11
sg9
L5L
sa(dp3475
g6
I01
sg7
g13
sg9
L2L
sg14
V__dir__() -> list\u000adefault dir() implementation
p3476
sa(dp3477
g6
I01
sg7
g17
sg9
L5L
sa(dp3478
g6
I01
sg7
g19
sg9
L5L
sa(dp3479
g6
I01
sg7
g21
sg9
L2L
sg14
Vdefault object formatter
p3480
sa(dp3481
g6
I01
sg7
g24
sg9
L5L
sa(dp3482
g6
I01
sg7
g26
sg9
L5L
sa(dp3483
g6
I01
sg7
g28
sg9
L5L
sa(dp3484
g6
I01
sg7
g30
sg9
L5L
sa(dp3485
g6
I01
sg7
g32
sg9
L5L
sa(dp3486
g6
I01
sg7
g34
sg9
L5L
sa(dp3487
g6
I01
sg7
g36
sg9
L5L
sa(dp3488
g6
I01
sg7
V__module__
p3489
sg9
L5L
sa(dp3490
g6
I01
sg7
g38
sg9
L5L
sa(dp3491
g6
I01
sg7
g40
sg9
L2L
sg14
VCreate and return a new object.  See help(type) for accurate signature.
p3492
sa(dp3493
g6
I01
sg7
g43
sg9
L2L
sg14
Nsa(dp3494
g6
I01
sg7
g45
sg9
L2L
sg14
Vhelper for pickle
p3495
sa(dp3496
g6
I01
sg7
g48
sg9
L5L
sa(dp3497
g6
I01
sg7
g50
sg9
L5L
sa(dp3498
g6
I01
sg7
g52
sg9
L2L
sg14
V__sizeof__() -> int\u000asize of object in memory, in bytes
p3499
sa(dp3500
g6
I01
sg7
g55
sg9
L5L
sa(dp3501
g6
I01
sg7
g57
sg9
L2L
sg14
VAbstract classes can override this to customize issubclass().\u000a\u000aThis is invoked early on by abc.ABCMeta.__subclasscheck__().\u000aIt should return True, False or NotImplemented.  If it returns\u000aNotImplemented, the normal algorithm is used.  Otherwise, it\u000aoverrides the normal algorithm (and the outcome is cached).\u000a
p3502
sa(dp3503
g6
I01
sg7
g97
sg9
L5L
sa(dp3504
g6
I01
sg7
g60
sg9
L5L
sa(dp3505
g6
I01
sg7
V_fields
p3506
sg9
L5L
sasg6
I01
sg7
VYield
p3507
sg9
L3L
sg14
Nsa(dp3508
g1
(lp3509
(dp3510
g6
I01
sg7
g8
sg9
L5L
sa(dp3511
g6
I01
sg7
g11
sg9
L5L
sa(dp3512
g6
I01
sg7
g13
sg9
L2L
sg14
V__dir__() -> list\u000adefault dir() implementation
p3513
sa(dp3514
g6
I01
sg7
g17
sg9
L5L
sa(dp3515
g6
I01
sg7
g19
sg9
L5L
sa(dp3516
g6
I01
sg7
g21
sg9
L2L
sg14
Vdefault object formatter
p3517
sa(dp3518
g6
I01
sg7
g24
sg9
L5L
sa(dp3519
g6
I01
sg7
g26
sg9
L5L
sa(dp3520
g6
I01
sg7
g28
sg9
L5L
sa(dp3521
g6
I01
sg7
g30
sg9
L5L
sa(dp3522
g6
I01
sg7
g32
sg9
L5L
sa(dp3523
g6
I01
sg7
g34
sg9
L5L
sa(dp3524
g6
I01
sg7
g36
sg9
L5L
sa(dp3525
g6
I01
sg7
V__module__
p3526
sg9
L5L
sa(dp3527
g6
I01
sg7
g38
sg9
L5L
sa(dp3528
g6
I01
sg7
g40
sg9
L2L
sg14
VCreate and return a new object.  See help(type) for accurate signature.
p3529
sa(dp3530
g6
I01
sg7
g43
sg9
L2L
sg14
Nsa(dp3531
g6
I01
sg7
g45
sg9
L2L
sg14
Vhelper for pickle
p3532
sa(dp3533
g6
I01
sg7
g48
sg9
L5L
sa(dp3534
g6
I01
sg7
g50
sg9
L5L
sa(dp3535
g6
I01
sg7
g52
sg9
L2L
sg14
V__sizeof__() -> int\u000asize of object in memory, in bytes
p3536
sa(dp3537
g6
I01
sg7
g55
sg9
L5L
sa(dp3538
g6
I01
sg7
g57
sg9
L2L
sg14
VAbstract classes can override this to customize issubclass().\u000a\u000aThis is invoked early on by abc.ABCMeta.__subclasscheck__().\u000aIt should return True, False or NotImplemented.  If it returns\u000aNotImplemented, the normal algorithm is used.  Otherwise, it\u000aoverrides the normal algorithm (and the outcome is cached).\u000a
p3539
sa(dp3540
g6
I01
sg7
g97
sg9
L5L
sa(dp3541
g6
I01
sg7
g60
sg9
L5L
sa(dp3542
g6
I01
sg7
V_fields
p3543
sg9
L5L
sasg6
I01
sg7
VYieldFrom
p3544
sg9
L3L
sg14
Nsa(dp3545
g6
I01
sg7
g17
sg9
L5L
sa(dp3546
g1
(lp3547
(dp3548
g6
I01
sg7
g8
sg9
L5L
sa(dp3549
g6
I01
sg7
g11
sg9
L5L
sa(dp3550
g6
I01
sg7
g13
sg9
L2L
sg14
V__dir__() -> list\u000adefault dir() implementation
p3551
sa(dp3552
g6
I01
sg7
g17
sg9
L5L
sa(dp3553
g6
I01
sg7
g19
sg9
L5L
sa(dp3554
g6
I01
sg7
g21
sg9
L2L
sg14
Vdefault object formatter
p3555
sa(dp3556
g6
I01
sg7
g24
sg9
L5L
sa(dp3557
g6
I01
sg7
g26
sg9
L5L
sa(dp3558
g6
I01
sg7
g28
sg9
L5L
sa(dp3559
g6
I01
sg7
g30
sg9
L5L
sa(dp3560
g6
I01
sg7
g32
sg9
L5L
sa(dp3561
g6
I01
sg7
g34
sg9
L5L
sa(dp3562
g6
I01
sg7
g36
sg9
L5L
sa(dp3563
g6
I01
sg7
V__module__
p3564
sg9
L5L
sa(dp3565
g6
I01
sg7
g38
sg9
L5L
sa(dp3566
g6
I01
sg7
g40
sg9
L2L
sg14
VCreate and return a new object.  See help(type) for accurate signature.
p3567
sa(dp3568
g6
I01
sg7
g43
sg9
L2L
sg14
Vhelper for pickle
p3569
sa(dp3570
g6
I01
sg7
g45
sg9
L2L
sg14
Vhelper for pickle
p3571
sa(dp3572
g6
I01
sg7
g48
sg9
L5L
sa(dp3573
g6
I01
sg7
g50
sg9
L5L
sa(dp3574
g6
I01
sg7
g52
sg9
L2L
sg14
V__sizeof__() -> int\u000asize of object in memory, in bytes
p3575
sa(dp3576
g6
I01
sg7
g55
sg9
L5L
sa(dp3577
g6
I01
sg7
g57
sg9
L2L
sg14
VAbstract classes can override this to customize issubclass().\u000a\u000aThis is invoked early on by abc.ABCMeta.__subclasscheck__().\u000aIt should return True, False or NotImplemented.  If it returns\u000aNotImplemented, the normal algorithm is used.  Otherwise, it\u000aoverrides the normal algorithm (and the outcome is cached).\u000a
p3578
sa(dp3579
g6
I01
sg7
g97
sg9
L5L
sa(dp3580
g6
I01
sg7
Vcreate_module
p3581
sg9
L5L
sa(dp3582
g6
I01
sg7
Vexec_module
p3583
sg9
L5L
sa(dp3584
g6
I01
sg7
Vfind_module
p3585
sg9
L5L
sa(dp3586
g6
I01
sg7
Vfind_spec
p3587
sg9
L5L
sa(dp3588
g6
I01
sg7
Vget_code
p3589
sg9
L5L
sa(dp3590
g6
I01
sg7
Vget_source
p3591
sg9
L5L
sa(dp3592
g6
I01
sg7
Vis_package
p3593
sg9
L5L
sa(dp3594
g6
I01
sg7
Vload_module
p3595
sg9
L5L
sa(dp3596
g6
I01
sg7
Vmodule_repr
p3597
sg9
L5L
sasg6
I01
sg7
V__loader__
p3598
sg9
L3L
sg14
VMeta path import for built-in modules.\u000a\u000a    All methods are either class or static methods to avoid the need to\u000a    instantiate the class.\u000a\u000a    
p3599
sa(dp3600
g6
I01
sg7
V__name__
p3601
sg9
L5L
sa(dp3602
g6
I01
sg7
V__package__
p3603
sg9
L5L
sa(dp3604
g6
I01
sg7
V__spec__
p3605
sg9
L5L
sa(dp3606
g1
(lp3607
(dp3608
g6
I01
sg7
g8
sg9
L5L
sa(dp3609
g6
I01
sg7
g11
sg9
L5L
sa(dp3610
g6
I01
sg7
g13
sg9
L2L
sg14
V__dir__() -> list\u000adefault dir() implementation
p3611
sa(dp3612
g6
I01
sg7
g17
sg9
L5L
sa(dp3613
g6
I01
sg7
g19
sg9
L5L
sa(dp3614
g6
I01
sg7
g21
sg9
L2L
sg14
Vdefault object formatter
p3615
sa(dp3616
g6
I01
sg7
g24
sg9
L5L
sa(dp3617
g6
I01
sg7
g26
sg9
L5L
sa(dp3618
g6
I01
sg7
g28
sg9
L5L
sa(dp3619
g6
I01
sg7
g30
sg9
L5L
sa(dp3620
g6
I01
sg7
g32
sg9
L5L
sa(dp3621
g6
I01
sg7
g34
sg9
L5L
sa(dp3622
g6
I01
sg7
g36
sg9
L5L
sa(dp3623
g6
I01
sg7
V__module__
p3624
sg9
L5L
sa(dp3625
g6
I01
sg7
g38
sg9
L5L
sa(dp3626
g6
I01
sg7
g40
sg9
L2L
sg14
VCreate and return a new object.  See help(type) for accurate signature.
p3627
sa(dp3628
g6
I01
sg7
g43
sg9
L2L
sg14
Nsa(dp3629
g6
I01
sg7
g45
sg9
L2L
sg14
Vhelper for pickle
p3630
sa(dp3631
g6
I01
sg7
g48
sg9
L5L
sa(dp3632
g6
I01
sg7
g50
sg9
L5L
sa(dp3633
g6
I01
sg7
g52
sg9
L2L
sg14
V__sizeof__() -> int\u000asize of object in memory, in bytes
p3634
sa(dp3635
g6
I01
sg7
g55
sg9
L5L
sa(dp3636
g6
I01
sg7
g57
sg9
L2L
sg14
VAbstract classes can override this to customize issubclass().\u000a\u000aThis is invoked early on by abc.ABCMeta.__subclasscheck__().\u000aIt should return True, False or NotImplemented.  If it returns\u000aNotImplemented, the normal algorithm is used.  Otherwise, it\u000aoverrides the normal algorithm (and the outcome is cached).\u000a
p3637
sa(dp3638
g6
I01
sg7
g97
sg9
L5L
sa(dp3639
g6
I01
sg7
g60
sg9
L5L
sa(dp3640
g6
I01
sg7
V_fields
p3641
sg9
L5L
sasg6
I01
sg7
Valias
p3642
sg9
L3L
sg14
Nsa(dp3643
g1
(lp3644
(dp3645
g6
I01
sg7
g8
sg9
L5L
sa(dp3646
g6
I01
sg7
g11
sg9
L5L
sa(dp3647
g6
I01
sg7
g13
sg9
L2L
sg14
V__dir__() -> list\u000adefault dir() implementation
p3648
sa(dp3649
g6
I01
sg7
g17
sg9
L5L
sa(dp3650
g6
I01
sg7
g19
sg9
L5L
sa(dp3651
g6
I01
sg7
g21
sg9
L2L
sg14
Vdefault object formatter
p3652
sa(dp3653
g6
I01
sg7
g24
sg9
L5L
sa(dp3654
g6
I01
sg7
g26
sg9
L5L
sa(dp3655
g6
I01
sg7
g28
sg9
L5L
sa(dp3656
g6
I01
sg7
g30
sg9
L5L
sa(dp3657
g6
I01
sg7
g32
sg9
L5L
sa(dp3658
g6
I01
sg7
g34
sg9
L5L
sa(dp3659
g6
I01
sg7
g36
sg9
L5L
sa(dp3660
g6
I01
sg7
V__module__
p3661
sg9
L5L
sa(dp3662
g6
I01
sg7
g38
sg9
L5L
sa(dp3663
g6
I01
sg7
g40
sg9
L2L
sg14
VCreate and return a new object.  See help(type) for accurate signature.
p3664
sa(dp3665
g6
I01
sg7
g43
sg9
L2L
sg14
Nsa(dp3666
g6
I01
sg7
g45
sg9
L2L
sg14
Vhelper for pickle
p3667
sa(dp3668
g6
I01
sg7
g48
sg9
L5L
sa(dp3669
g6
I01
sg7
g50
sg9
L5L
sa(dp3670
g6
I01
sg7
g52
sg9
L2L
sg14
V__sizeof__() -> int\u000asize of object in memory, in bytes
p3671
sa(dp3672
g6
I01
sg7
g55
sg9
L5L
sa(dp3673
g6
I01
sg7
g57
sg9
L2L
sg14
VAbstract classes can override this to customize issubclass().\u000a\u000aThis is invoked early on by abc.ABCMeta.__subclasscheck__().\u000aIt should return True, False or NotImplemented.  If it returns\u000aNotImplemented, the normal algorithm is used.  Otherwise, it\u000aoverrides the normal algorithm (and the outcome is cached).\u000a
p3674
sa(dp3675
g6
I01
sg7
g97
sg9
L5L
sa(dp3676
g6
I01
sg7
g60
sg9
L5L
sa(dp3677
g6
I01
sg7
V_fields
p3678
sg9
L5L
sasg6
I01
sg7
Varg
p3679
sg9
L3L
sg14
Nsa(dp3680
g1
(lp3681
(dp3682
g6
I01
sg7
g8
sg9
L5L
sa(dp3683
g6
I01
sg7
g11
sg9
L5L
sa(dp3684
g6
I01
sg7
g13
sg9
L2L
sg14
V__dir__() -> list\u000adefault dir() implementation
p3685
sa(dp3686
g6
I01
sg7
g17
sg9
L5L
sa(dp3687
g6
I01
sg7
g19
sg9
L5L
sa(dp3688
g6
I01
sg7
g21
sg9
L2L
sg14
Vdefault object formatter
p3689
sa(dp3690
g6
I01
sg7
g24
sg9
L5L
sa(dp3691
g6
I01
sg7
g26
sg9
L5L
sa(dp3692
g6
I01
sg7
g28
sg9
L5L
sa(dp3693
g6
I01
sg7
g30
sg9
L5L
sa(dp3694
g6
I01
sg7
g32
sg9
L5L
sa(dp3695
g6
I01
sg7
g34
sg9
L5L
sa(dp3696
g6
I01
sg7
g36
sg9
L5L
sa(dp3697
g6
I01
sg7
V__module__
p3698
sg9
L5L
sa(dp3699
g6
I01
sg7
g38
sg9
L5L
sa(dp3700
g6
I01
sg7
g40
sg9
L2L
sg14
VCreate and return a new object.  See help(type) for accurate signature.
p3701
sa(dp3702
g6
I01
sg7
g43
sg9
L2L
sg14
Nsa(dp3703
g6
I01
sg7
g45
sg9
L2L
sg14
Vhelper for pickle
p3704
sa(dp3705
g6
I01
sg7
g48
sg9
L5L
sa(dp3706
g6
I01
sg7
g50
sg9
L5L
sa(dp3707
g6
I01
sg7
g52
sg9
L2L
sg14
V__sizeof__() -> int\u000asize of object in memory, in bytes
p3708
sa(dp3709
g6
I01
sg7
g55
sg9
L5L
sa(dp3710
g6
I01
sg7
g57
sg9
L2L
sg14
VAbstract classes can override this to customize issubclass().\u000a\u000aThis is invoked early on by abc.ABCMeta.__subclasscheck__().\u000aIt should return True, False or NotImplemented.  If it returns\u000aNotImplemented, the normal algorithm is used.  Otherwise, it\u000aoverrides the normal algorithm (and the outcome is cached).\u000a
p3711
sa(dp3712
g6
I01
sg7
g97
sg9
L5L
sa(dp3713
g6
I01
sg7
g60
sg9
L5L
sa(dp3714
g6
I01
sg7
V_fields
p3715
sg9
L5L
sasg6
I01
sg7
Varguments
p3716
sg9
L3L
sg14
Nsa(dp3717
g1
(lp3718
(dp3719
g6
I01
sg7
g8
sg9
L5L
sa(dp3720
g6
I01
sg7
g11
sg9
L5L
sa(dp3721
g6
I01
sg7
g13
sg9
L2L
sg14
V__dir__() -> list\u000adefault dir() implementation
p3722
sa(dp3723
g6
I01
sg7
g17
sg9
L5L
sa(dp3724
g6
I01
sg7
g19
sg9
L5L
sa(dp3725
g6
I01
sg7
g21
sg9
L2L
sg14
Vdefault object formatter
p3726
sa(dp3727
g6
I01
sg7
g24
sg9
L5L
sa(dp3728
g6
I01
sg7
g26
sg9
L5L
sa(dp3729
g6
I01
sg7
g28
sg9
L5L
sa(dp3730
g6
I01
sg7
g30
sg9
L5L
sa(dp3731
g6
I01
sg7
g32
sg9
L5L
sa(dp3732
g6
I01
sg7
g34
sg9
L5L
sa(dp3733
g6
I01
sg7
g36
sg9
L5L
sa(dp3734
g6
I01
sg7
V__module__
p3735
sg9
L5L
sa(dp3736
g6
I01
sg7
g38
sg9
L5L
sa(dp3737
g6
I01
sg7
g40
sg9
L2L
sg14
VCreate and return a new object.  See help(type) for accurate signature.
p3738
sa(dp3739
g6
I01
sg7
g43
sg9
L2L
sg14
Nsa(dp3740
g6
I01
sg7
g45
sg9
L2L
sg14
Vhelper for pickle
p3741
sa(dp3742
g6
I01
sg7
g48
sg9
L5L
sa(dp3743
g6
I01
sg7
g50
sg9
L5L
sa(dp3744
g6
I01
sg7
g52
sg9
L2L
sg14
V__sizeof__() -> int\u000asize of object in memory, in bytes
p3745
sa(dp3746
g6
I01
sg7
g55
sg9
L5L
sa(dp3747
g6
I01
sg7
g57
sg9
L2L
sg14
VAbstract classes can override this to customize issubclass().\u000a\u000aThis is invoked early on by abc.ABCMeta.__subclasscheck__().\u000aIt should return True, False or NotImplemented.  If it returns\u000aNotImplemented, the normal algorithm is used.  Otherwise, it\u000aoverrides the normal algorithm (and the outcome is cached).\u000a
p3748
sa(dp3749
g6
I01
sg7
g97
sg9
L5L
sa(dp3750
g6
I01
sg7
g60
sg9
L5L
sa(dp3751
g6
I01
sg7
V_fields
p3752
sg9
L5L
sasg6
I01
sg7
Vboolop
p3753
sg9
L3L
sg14
Nsa(dp3754
g1
(lp3755
(dp3756
g6
I01
sg7
g8
sg9
L5L
sa(dp3757
g6
I01
sg7
g11
sg9
L5L
sa(dp3758
g6
I01
sg7
g13
sg9
L2L
sg14
V__dir__() -> list\u000adefault dir() implementation
p3759
sa(dp3760
g6
I01
sg7
g17
sg9
L5L
sa(dp3761
g6
I01
sg7
g19
sg9
L5L
sa(dp3762
g6
I01
sg7
g21
sg9
L2L
sg14
Vdefault object formatter
p3763
sa(dp3764
g6
I01
sg7
g24
sg9
L5L
sa(dp3765
g6
I01
sg7
g26
sg9
L5L
sa(dp3766
g6
I01
sg7
g28
sg9
L5L
sa(dp3767
g6
I01
sg7
g30
sg9
L5L
sa(dp3768
g6
I01
sg7
g32
sg9
L5L
sa(dp3769
g6
I01
sg7
g34
sg9
L5L
sa(dp3770
g6
I01
sg7
g36
sg9
L5L
sa(dp3771
g6
I01
sg7
V__module__
p3772
sg9
L5L
sa(dp3773
g6
I01
sg7
g38
sg9
L5L
sa(dp3774
g6
I01
sg7
g40
sg9
L2L
sg14
VCreate and return a new object.  See help(type) for accurate signature.
p3775
sa(dp3776
g6
I01
sg7
g43
sg9
L2L
sg14
Nsa(dp3777
g6
I01
sg7
g45
sg9
L2L
sg14
Vhelper for pickle
p3778
sa(dp3779
g6
I01
sg7
g48
sg9
L5L
sa(dp3780
g6
I01
sg7
g50
sg9
L5L
sa(dp3781
g6
I01
sg7
g52
sg9
L2L
sg14
V__sizeof__() -> int\u000asize of object in memory, in bytes
p3782
sa(dp3783
g6
I01
sg7
g55
sg9
L5L
sa(dp3784
g6
I01
sg7
g57
sg9
L2L
sg14
VAbstract classes can override this to customize issubclass().\u000a\u000aThis is invoked early on by abc.ABCMeta.__subclasscheck__().\u000aIt should return True, False or NotImplemented.  If it returns\u000aNotImplemented, the normal algorithm is used.  Otherwise, it\u000aoverrides the normal algorithm (and the outcome is cached).\u000a
p3785
sa(dp3786
g6
I01
sg7
g97
sg9
L5L
sa(dp3787
g6
I01
sg7
g60
sg9
L5L
sa(dp3788
g6
I01
sg7
V_fields
p3789
sg9
L5L
sasg6
I01
sg7
Vcmpop
p3790
sg9
L3L
sg14
Nsa(dp3791
g1
(lp3792
(dp3793
g6
I01
sg7
g8
sg9
L5L
sa(dp3794
g6
I01
sg7
g11
sg9
L5L
sa(dp3795
g6
I01
sg7
g13
sg9
L2L
sg14
V__dir__() -> list\u000adefault dir() implementation
p3796
sa(dp3797
g6
I01
sg7
g17
sg9
L5L
sa(dp3798
g6
I01
sg7
g19
sg9
L5L
sa(dp3799
g6
I01
sg7
g21
sg9
L2L
sg14
Vdefault object formatter
p3800
sa(dp3801
g6
I01
sg7
g24
sg9
L5L
sa(dp3802
g6
I01
sg7
g26
sg9
L5L
sa(dp3803
g6
I01
sg7
g28
sg9
L5L
sa(dp3804
g6
I01
sg7
g30
sg9
L5L
sa(dp3805
g6
I01
sg7
g32
sg9
L5L
sa(dp3806
g6
I01
sg7
g34
sg9
L5L
sa(dp3807
g6
I01
sg7
g36
sg9
L5L
sa(dp3808
g6
I01
sg7
V__module__
p3809
sg9
L5L
sa(dp3810
g6
I01
sg7
g38
sg9
L5L
sa(dp3811
g6
I01
sg7
g40
sg9
L2L
sg14
VCreate and return a new object.  See help(type) for accurate signature.
p3812
sa(dp3813
g6
I01
sg7
g43
sg9
L2L
sg14
Nsa(dp3814
g6
I01
sg7
g45
sg9
L2L
sg14
Vhelper for pickle
p3815
sa(dp3816
g6
I01
sg7
g48
sg9
L5L
sa(dp3817
g6
I01
sg7
g50
sg9
L5L
sa(dp3818
g6
I01
sg7
g52
sg9
L2L
sg14
V__sizeof__() -> int\u000asize of object in memory, in bytes
p3819
sa(dp3820
g6
I01
sg7
g55
sg9
L5L
sa(dp3821
g6
I01
sg7
g57
sg9
L2L
sg14
VAbstract classes can override this to customize issubclass().\u000a\u000aThis is invoked early on by abc.ABCMeta.__subclasscheck__().\u000aIt should return True, False or NotImplemented.  If it returns\u000aNotImplemented, the normal algorithm is used.  Otherwise, it\u000aoverrides the normal algorithm (and the outcome is cached).\u000a
p3822
sa(dp3823
g6
I01
sg7
g97
sg9
L5L
sa(dp3824
g6
I01
sg7
g60
sg9
L5L
sa(dp3825
g6
I01
sg7
V_fields
p3826
sg9
L5L
sasg6
I01
sg7
Vcomprehension
p3827
sg9
L3L
sg14
Nsa(dp3828
g1
(lp3829
(dp3830
g6
I01
sg7
g8
sg9
L5L
sa(dp3831
g6
I01
sg7
g11
sg9
L5L
sa(dp3832
g6
I01
sg7
g13
sg9
L2L
sg14
V__dir__() -> list\u000adefault dir() implementation
p3833
sa(dp3834
g6
I01
sg7
g17
sg9
L5L
sa(dp3835
g6
I01
sg7
g19
sg9
L5L
sa(dp3836
g6
I01
sg7
g21
sg9
L2L
sg14
Vdefault object formatter
p3837
sa(dp3838
g6
I01
sg7
g24
sg9
L5L
sa(dp3839
g6
I01
sg7
g26
sg9
L5L
sa(dp3840
g6
I01
sg7
g28
sg9
L5L
sa(dp3841
g6
I01
sg7
g30
sg9
L5L
sa(dp3842
g6
I01
sg7
g32
sg9
L5L
sa(dp3843
g6
I01
sg7
g34
sg9
L5L
sa(dp3844
g6
I01
sg7
g36
sg9
L5L
sa(dp3845
g6
I01
sg7
V__module__
p3846
sg9
L5L
sa(dp3847
g6
I01
sg7
g38
sg9
L5L
sa(dp3848
g6
I01
sg7
g40
sg9
L2L
sg14
VCreate and return a new object.  See help(type) for accurate signature.
p3849
sa(dp3850
g6
I01
sg7
g43
sg9
L2L
sg14
Nsa(dp3851
g6
I01
sg7
g45
sg9
L2L
sg14
Vhelper for pickle
p3852
sa(dp3853
g6
I01
sg7
g48
sg9
L5L
sa(dp3854
g6
I01
sg7
g50
sg9
L5L
sa(dp3855
g6
I01
sg7
g52
sg9
L2L
sg14
V__sizeof__() -> int\u000asize of object in memory, in bytes
p3856
sa(dp3857
g6
I01
sg7
g55
sg9
L5L
sa(dp3858
g6
I01
sg7
g57
sg9
L2L
sg14
VAbstract classes can override this to customize issubclass().\u000a\u000aThis is invoked early on by abc.ABCMeta.__subclasscheck__().\u000aIt should return True, False or NotImplemented.  If it returns\u000aNotImplemented, the normal algorithm is used.  Otherwise, it\u000aoverrides the normal algorithm (and the outcome is cached).\u000a
p3859
sa(dp3860
g6
I01
sg7
g97
sg9
L5L
sa(dp3861
g6
I01
sg7
g60
sg9
L5L
sa(dp3862
g6
I01
sg7
V_fields
p3863
sg9
L5L
sasg6
I01
sg7
Vexcepthandler
p3864
sg9
L3L
sg14
Nsa(dp3865
g1
(lp3866
(dp3867
g6
I01
sg7
g8
sg9
L5L
sa(dp3868
g6
I01
sg7
g11
sg9
L5L
sa(dp3869
g6
I01
sg7
g13
sg9
L2L
sg14
V__dir__() -> list\u000adefault dir() implementation
p3870
sa(dp3871
g6
I01
sg7
g17
sg9
L5L
sa(dp3872
g6
I01
sg7
g19
sg9
L5L
sa(dp3873
g6
I01
sg7
g21
sg9
L2L
sg14
Vdefault object formatter
p3874
sa(dp3875
g6
I01
sg7
g24
sg9
L5L
sa(dp3876
g6
I01
sg7
g26
sg9
L5L
sa(dp3877
g6
I01
sg7
g28
sg9
L5L
sa(dp3878
g6
I01
sg7
g30
sg9
L5L
sa(dp3879
g6
I01
sg7
g32
sg9
L5L
sa(dp3880
g6
I01
sg7
g34
sg9
L5L
sa(dp3881
g6
I01
sg7
g36
sg9
L5L
sa(dp3882
g6
I01
sg7
V__module__
p3883
sg9
L5L
sa(dp3884
g6
I01
sg7
g38
sg9
L5L
sa(dp3885
g6
I01
sg7
g40
sg9
L2L
sg14
VCreate and return a new object.  See help(type) for accurate signature.
p3886
sa(dp3887
g6
I01
sg7
g43
sg9
L2L
sg14
Nsa(dp3888
g6
I01
sg7
g45
sg9
L2L
sg14
Vhelper for pickle
p3889
sa(dp3890
g6
I01
sg7
g48
sg9
L5L
sa(dp3891
g6
I01
sg7
g50
sg9
L5L
sa(dp3892
g6
I01
sg7
g52
sg9
L2L
sg14
V__sizeof__() -> int\u000asize of object in memory, in bytes
p3893
sa(dp3894
g6
I01
sg7
g55
sg9
L5L
sa(dp3895
g6
I01
sg7
g57
sg9
L2L
sg14
VAbstract classes can override this to customize issubclass().\u000a\u000aThis is invoked early on by abc.ABCMeta.__subclasscheck__().\u000aIt should return True, False or NotImplemented.  If it returns\u000aNotImplemented, the normal algorithm is used.  Otherwise, it\u000aoverrides the normal algorithm (and the outcome is cached).\u000a
p3896
sa(dp3897
g6
I01
sg7
g97
sg9
L5L
sa(dp3898
g6
I01
sg7
g60
sg9
L5L
sa(dp3899
g6
I01
sg7
V_fields
p3900
sg9
L5L
sasg6
I01
sg7
Vexpr
p3901
sg9
L3L
sg14
Nsa(dp3902
g1
(lp3903
(dp3904
g6
I01
sg7
g8
sg9
L5L
sa(dp3905
g6
I01
sg7
g11
sg9
L5L
sa(dp3906
g6
I01
sg7
g13
sg9
L2L
sg14
V__dir__() -> list\u000adefault dir() implementation
p3907
sa(dp3908
g6
I01
sg7
g17
sg9
L5L
sa(dp3909
g6
I01
sg7
g19
sg9
L5L
sa(dp3910
g6
I01
sg7
g21
sg9
L2L
sg14
Vdefault object formatter
p3911
sa(dp3912
g6
I01
sg7
g24
sg9
L5L
sa(dp3913
g6
I01
sg7
g26
sg9
L5L
sa(dp3914
g6
I01
sg7
g28
sg9
L5L
sa(dp3915
g6
I01
sg7
g30
sg9
L5L
sa(dp3916
g6
I01
sg7
g32
sg9
L5L
sa(dp3917
g6
I01
sg7
g34
sg9
L5L
sa(dp3918
g6
I01
sg7
g36
sg9
L5L
sa(dp3919
g6
I01
sg7
V__module__
p3920
sg9
L5L
sa(dp3921
g6
I01
sg7
g38
sg9
L5L
sa(dp3922
g6
I01
sg7
g40
sg9
L2L
sg14
VCreate and return a new object.  See help(type) for accurate signature.
p3923
sa(dp3924
g6
I01
sg7
g43
sg9
L2L
sg14
Nsa(dp3925
g6
I01
sg7
g45
sg9
L2L
sg14
Vhelper for pickle
p3926
sa(dp3927
g6
I01
sg7
g48
sg9
L5L
sa(dp3928
g6
I01
sg7
g50
sg9
L5L
sa(dp3929
g6
I01
sg7
g52
sg9
L2L
sg14
V__sizeof__() -> int\u000asize of object in memory, in bytes
p3930
sa(dp3931
g6
I01
sg7
g55
sg9
L5L
sa(dp3932
g6
I01
sg7
g57
sg9
L2L
sg14
VAbstract classes can override this to customize issubclass().\u000a\u000aThis is invoked early on by abc.ABCMeta.__subclasscheck__().\u000aIt should return True, False or NotImplemented.  If it returns\u000aNotImplemented, the normal algorithm is used.  Otherwise, it\u000aoverrides the normal algorithm (and the outcome is cached).\u000a
p3933
sa(dp3934
g6
I01
sg7
g97
sg9
L5L
sa(dp3935
g6
I01
sg7
g60
sg9
L5L
sa(dp3936
g6
I01
sg7
V_fields
p3937
sg9
L5L
sasg6
I01
sg7
Vexpr_context
p3938
sg9
L3L
sg14
Nsa(dp3939
g1
(lp3940
(dp3941
g6
I01
sg7
g8
sg9
L5L
sa(dp3942
g6
I01
sg7
g11
sg9
L5L
sa(dp3943
g6
I01
sg7
g13
sg9
L2L
sg14
V__dir__() -> list\u000adefault dir() implementation
p3944
sa(dp3945
g6
I01
sg7
g17
sg9
L5L
sa(dp3946
g6
I01
sg7
g19
sg9
L5L
sa(dp3947
g6
I01
sg7
g21
sg9
L2L
sg14
Vdefault object formatter
p3948
sa(dp3949
g6
I01
sg7
g24
sg9
L5L
sa(dp3950
g6
I01
sg7
g26
sg9
L5L
sa(dp3951
g6
I01
sg7
g28
sg9
L5L
sa(dp3952
g6
I01
sg7
g30
sg9
L5L
sa(dp3953
g6
I01
sg7
g32
sg9
L5L
sa(dp3954
g6
I01
sg7
g34
sg9
L5L
sa(dp3955
g6
I01
sg7
g36
sg9
L5L
sa(dp3956
g6
I01
sg7
V__module__
p3957
sg9
L5L
sa(dp3958
g6
I01
sg7
g38
sg9
L5L
sa(dp3959
g6
I01
sg7
g40
sg9
L2L
sg14
VCreate and return a new object.  See help(type) for accurate signature.
p3960
sa(dp3961
g6
I01
sg7
g43
sg9
L2L
sg14
Nsa(dp3962
g6
I01
sg7
g45
sg9
L2L
sg14
Vhelper for pickle
p3963
sa(dp3964
g6
I01
sg7
g48
sg9
L5L
sa(dp3965
g6
I01
sg7
g50
sg9
L5L
sa(dp3966
g6
I01
sg7
g52
sg9
L2L
sg14
V__sizeof__() -> int\u000asize of object in memory, in bytes
p3967
sa(dp3968
g6
I01
sg7
g55
sg9
L5L
sa(dp3969
g6
I01
sg7
g57
sg9
L2L
sg14
VAbstract classes can override this to customize issubclass().\u000a\u000aThis is invoked early on by abc.ABCMeta.__subclasscheck__().\u000aIt should return True, False or NotImplemented.  If it returns\u000aNotImplemented, the normal algorithm is used.  Otherwise, it\u000aoverrides the normal algorithm (and the outcome is cached).\u000a
p3970
sa(dp3971
g6
I01
sg7
g97
sg9
L5L
sa(dp3972
g6
I01
sg7
g60
sg9
L5L
sa(dp3973
g6
I01
sg7
V_fields
p3974
sg9
L5L
sasg6
I01
sg7
Vkeyword
p3975
sg9
L3L
sg14
Nsa(dp3976
g1
(lp3977
(dp3978
g6
I01
sg7
g8
sg9
L5L
sa(dp3979
g6
I01
sg7
g11
sg9
L5L
sa(dp3980
g6
I01
sg7
g13
sg9
L2L
sg14
V__dir__() -> list\u000adefault dir() implementation
p3981
sa(dp3982
g6
I01
sg7
g17
sg9
L5L
sa(dp3983
g6
I01
sg7
g19
sg9
L5L
sa(dp3984
g6
I01
sg7
g21
sg9
L2L
sg14
Vdefault object formatter
p3985
sa(dp3986
g6
I01
sg7
g24
sg9
L5L
sa(dp3987
g6
I01
sg7
g26
sg9
L5L
sa(dp3988
g6
I01
sg7
g28
sg9
L5L
sa(dp3989
g6
I01
sg7
g30
sg9
L5L
sa(dp3990
g6
I01
sg7
g32
sg9
L5L
sa(dp3991
g6
I01
sg7
g34
sg9
L5L
sa(dp3992
g6
I01
sg7
g36
sg9
L5L
sa(dp3993
g6
I01
sg7
V__module__
p3994
sg9
L5L
sa(dp3995
g6
I01
sg7
g38
sg9
L5L
sa(dp3996
g6
I01
sg7
g40
sg9
L2L
sg14
VCreate and return a new object.  See help(type) for accurate signature.
p3997
sa(dp3998
g6
I01
sg7
g43
sg9
L2L
sg14
Nsa(dp3999
g6
I01
sg7
g45
sg9
L2L
sg14
Vhelper for pickle
p4000
sa(dp4001
g6
I01
sg7
g48
sg9
L5L
sa(dp4002
g6
I01
sg7
g50
sg9
L5L
sa(dp4003
g6
I01
sg7
g52
sg9
L2L
sg14
V__sizeof__() -> int\u000asize of object in memory, in bytes
p4004
sa(dp4005
g6
I01
sg7
g55
sg9
L5L
sa(dp4006
g6
I01
sg7
g57
sg9
L2L
sg14
VAbstract classes can override this to customize issubclass().\u000a\u000aThis is invoked early on by abc.ABCMeta.__subclasscheck__().\u000aIt should return True, False or NotImplemented.  If it returns\u000aNotImplemented, the normal algorithm is used.  Otherwise, it\u000aoverrides the normal algorithm (and the outcome is cached).\u000a
p4007
sa(dp4008
g6
I01
sg7
g97
sg9
L5L
sa(dp4009
g6
I01
sg7
g60
sg9
L5L
sa(dp4010
g6
I01
sg7
V_fields
p4011
sg9
L5L
sasg6
I01
sg7
Vmod
p4012
sg9
L3L
sg14
Nsa(dp4013
g1
(lp4014
(dp4015
g6
I01
sg7
g8
sg9
L5L
sa(dp4016
g6
I01
sg7
g11
sg9
L5L
sa(dp4017
g6
I01
sg7
g13
sg9
L2L
sg14
V__dir__() -> list\u000adefault dir() implementation
p4018
sa(dp4019
g6
I01
sg7
g17
sg9
L5L
sa(dp4020
g6
I01
sg7
g19
sg9
L5L
sa(dp4021
g6
I01
sg7
g21
sg9
L2L
sg14
Vdefault object formatter
p4022
sa(dp4023
g6
I01
sg7
g24
sg9
L5L
sa(dp4024
g6
I01
sg7
g26
sg9
L5L
sa(dp4025
g6
I01
sg7
g28
sg9
L5L
sa(dp4026
g6
I01
sg7
g30
sg9
L5L
sa(dp4027
g6
I01
sg7
g32
sg9
L5L
sa(dp4028
g6
I01
sg7
g34
sg9
L5L
sa(dp4029
g6
I01
sg7
g36
sg9
L5L
sa(dp4030
g6
I01
sg7
V__module__
p4031
sg9
L5L
sa(dp4032
g6
I01
sg7
g38
sg9
L5L
sa(dp4033
g6
I01
sg7
g40
sg9
L2L
sg14
VCreate and return a new object.  See help(type) for accurate signature.
p4034
sa(dp4035
g6
I01
sg7
g43
sg9
L2L
sg14
Nsa(dp4036
g6
I01
sg7
g45
sg9
L2L
sg14
Vhelper for pickle
p4037
sa(dp4038
g6
I01
sg7
g48
sg9
L5L
sa(dp4039
g6
I01
sg7
g50
sg9
L5L
sa(dp4040
g6
I01
sg7
g52
sg9
L2L
sg14
V__sizeof__() -> int\u000asize of object in memory, in bytes
p4041
sa(dp4042
g6
I01
sg7
g55
sg9
L5L
sa(dp4043
g6
I01
sg7
g57
sg9
L2L
sg14
VAbstract classes can override this to customize issubclass().\u000a\u000aThis is invoked early on by abc.ABCMeta.__subclasscheck__().\u000aIt should return True, False or NotImplemented.  If it returns\u000aNotImplemented, the normal algorithm is used.  Otherwise, it\u000aoverrides the normal algorithm (and the outcome is cached).\u000a
p4044
sa(dp4045
g6
I01
sg7
g97
sg9
L5L
sa(dp4046
g6
I01
sg7
g60
sg9
L5L
sa(dp4047
g6
I01
sg7
V_fields
p4048
sg9
L5L
sasg6
I01
sg7
Voperator
p4049
sg9
L3L
sg14
Nsa(dp4050
g1
(lp4051
(dp4052
g6
I01
sg7
g8
sg9
L5L
sa(dp4053
g6
I01
sg7
g11
sg9
L5L
sa(dp4054
g6
I01
sg7
g13
sg9
L2L
sg14
V__dir__() -> list\u000adefault dir() implementation
p4055
sa(dp4056
g6
I01
sg7
g17
sg9
L5L
sa(dp4057
g6
I01
sg7
g19
sg9
L5L
sa(dp4058
g6
I01
sg7
g21
sg9
L2L
sg14
Vdefault object formatter
p4059
sa(dp4060
g6
I01
sg7
g24
sg9
L5L
sa(dp4061
g6
I01
sg7
g26
sg9
L5L
sa(dp4062
g6
I01
sg7
g28
sg9
L5L
sa(dp4063
g6
I01
sg7
g30
sg9
L5L
sa(dp4064
g6
I01
sg7
g32
sg9
L5L
sa(dp4065
g6
I01
sg7
g34
sg9
L5L
sa(dp4066
g6
I01
sg7
g36
sg9
L5L
sa(dp4067
g6
I01
sg7
V__module__
p4068
sg9
L5L
sa(dp4069
g6
I01
sg7
g38
sg9
L5L
sa(dp4070
g6
I01
sg7
g40
sg9
L2L
sg14
VCreate and return a new object.  See help(type) for accurate signature.
p4071
sa(dp4072
g6
I01
sg7
g43
sg9
L2L
sg14
Nsa(dp4073
g6
I01
sg7
g45
sg9
L2L
sg14
Vhelper for pickle
p4074
sa(dp4075
g6
I01
sg7
g48
sg9
L5L
sa(dp4076
g6
I01
sg7
g50
sg9
L5L
sa(dp4077
g6
I01
sg7
g52
sg9
L2L
sg14
V__sizeof__() -> int\u000asize of object in memory, in bytes
p4078
sa(dp4079
g6
I01
sg7
g55
sg9
L5L
sa(dp4080
g6
I01
sg7
g57
sg9
L2L
sg14
VAbstract classes can override this to customize issubclass().\u000a\u000aThis is invoked early on by abc.ABCMeta.__subclasscheck__().\u000aIt should return True, False or NotImplemented.  If it returns\u000aNotImplemented, the normal algorithm is used.  Otherwise, it\u000aoverrides the normal algorithm (and the outcome is cached).\u000a
p4081
sa(dp4082
g6
I01
sg7
g97
sg9
L5L
sa(dp4083
g6
I01
sg7
g60
sg9
L5L
sa(dp4084
g6
I01
sg7
V_fields
p4085
sg9
L5L
sasg6
I01
sg7
Vslice
p4086
sg9
L3L
sg14
Nsa(dp4087
g1
(lp4088
(dp4089
g6
I01
sg7
g8
sg9
L5L
sa(dp4090
g6
I01
sg7
g11
sg9
L5L
sa(dp4091
g6
I01
sg7
g13
sg9
L2L
sg14
V__dir__() -> list\u000adefault dir() implementation
p4092
sa(dp4093
g6
I01
sg7
g17
sg9
L5L
sa(dp4094
g6
I01
sg7
g19
sg9
L5L
sa(dp4095
g6
I01
sg7
g21
sg9
L2L
sg14
Vdefault object formatter
p4096
sa(dp4097
g6
I01
sg7
g24
sg9
L5L
sa(dp4098
g6
I01
sg7
g26
sg9
L5L
sa(dp4099
g6
I01
sg7
g28
sg9
L5L
sa(dp4100
g6
I01
sg7
g30
sg9
L5L
sa(dp4101
g6
I01
sg7
g32
sg9
L5L
sa(dp4102
g6
I01
sg7
g34
sg9
L5L
sa(dp4103
g6
I01
sg7
g36
sg9
L5L
sa(dp4104
g6
I01
sg7
V__module__
p4105
sg9
L5L
sa(dp4106
g6
I01
sg7
g38
sg9
L5L
sa(dp4107
g6
I01
sg7
g40
sg9
L2L
sg14
VCreate and return a new object.  See help(type) for accurate signature.
p4108
sa(dp4109
g6
I01
sg7
g43
sg9
L2L
sg14
Nsa(dp4110
g6
I01
sg7
g45
sg9
L2L
sg14
Vhelper for pickle
p4111
sa(dp4112
g6
I01
sg7
g48
sg9
L5L
sa(dp4113
g6
I01
sg7
g50
sg9
L5L
sa(dp4114
g6
I01
sg7
g52
sg9
L2L
sg14
V__sizeof__() -> int\u000asize of object in memory, in bytes
p4115
sa(dp4116
g6
I01
sg7
g55
sg9
L5L
sa(dp4117
g6
I01
sg7
g57
sg9
L2L
sg14
VAbstract classes can override this to customize issubclass().\u000a\u000aThis is invoked early on by abc.ABCMeta.__subclasscheck__().\u000aIt should return True, False or NotImplemented.  If it returns\u000aNotImplemented, the normal algorithm is used.  Otherwise, it\u000aoverrides the normal algorithm (and the outcome is cached).\u000a
p4118
sa(dp4119
g6
I01
sg7
g97
sg9
L5L
sa(dp4120
g6
I01
sg7
g60
sg9
L5L
sa(dp4121
g6
I01
sg7
V_fields
p4122
sg9
L5L
sasg6
I01
sg7
Vstmt
p4123
sg9
L3L
sg14
Nsa(dp4124
g1
(lp4125
(dp4126
g6
I01
sg7
g8
sg9
L5L
sa(dp4127
g6
I01
sg7
g11
sg9
L5L
sa(dp4128
g6
I01
sg7
g13
sg9
L2L
sg14
V__dir__() -> list\u000adefault dir() implementation
p4129
sa(dp4130
g6
I01
sg7
g17
sg9
L5L
sa(dp4131
g6
I01
sg7
g19
sg9
L5L
sa(dp4132
g6
I01
sg7
g21
sg9
L2L
sg14
Vdefault object formatter
p4133
sa(dp4134
g6
I01
sg7
g24
sg9
L5L
sa(dp4135
g6
I01
sg7
g26
sg9
L5L
sa(dp4136
g6
I01
sg7
g28
sg9
L5L
sa(dp4137
g6
I01
sg7
g30
sg9
L5L
sa(dp4138
g6
I01
sg7
g32
sg9
L5L
sa(dp4139
g6
I01
sg7
g34
sg9
L5L
sa(dp4140
g6
I01
sg7
g36
sg9
L5L
sa(dp4141
g6
I01
sg7
V__module__
p4142
sg9
L5L
sa(dp4143
g6
I01
sg7
g38
sg9
L5L
sa(dp4144
g6
I01
sg7
g40
sg9
L2L
sg14
VCreate and return a new object.  See help(type) for accurate signature.
p4145
sa(dp4146
g6
I01
sg7
g43
sg9
L2L
sg14
Nsa(dp4147
g6
I01
sg7
g45
sg9
L2L
sg14
Vhelper for pickle
p4148
sa(dp4149
g6
I01
sg7
g48
sg9
L5L
sa(dp4150
g6
I01
sg7
g50
sg9
L5L
sa(dp4151
g6
I01
sg7
g52
sg9
L2L
sg14
V__sizeof__() -> int\u000asize of object in memory, in bytes
p4152
sa(dp4153
g6
I01
sg7
g55
sg9
L5L
sa(dp4154
g6
I01
sg7
g57
sg9
L2L
sg14
VAbstract classes can override this to customize issubclass().\u000a\u000aThis is invoked early on by abc.ABCMeta.__subclasscheck__().\u000aIt should return True, False or NotImplemented.  If it returns\u000aNotImplemented, the normal algorithm is used.  Otherwise, it\u000aoverrides the normal algorithm (and the outcome is cached).\u000a
p4155
sa(dp4156
g6
I01
sg7
g97
sg9
L5L
sa(dp4157
g6
I01
sg7
g60
sg9
L5L
sa(dp4158
g6
I01
sg7
V_fields
p4159
sg9
L5L
sasg6
I01
sg7
Vunaryop
p4160
sg9
L3L
sg14
Nsa(dp4161
g1
(lp4162
(dp4163
g6
I01
sg7
g8
sg9
L5L
sa(dp4164
g6
I01
sg7
g11
sg9
L5L
sa(dp4165
g6
I01
sg7
g13
sg9
L2L
sg14
V__dir__() -> list\u000adefault dir() implementation
p4166
sa(dp4167
g6
I01
sg7
g17
sg9
L5L
sa(dp4168
g6
I01
sg7
g19
sg9
L5L
sa(dp4169
g6
I01
sg7
g21
sg9
L2L
sg14
Vdefault object formatter
p4170
sa(dp4171
g6
I01
sg7
g24
sg9
L5L
sa(dp4172
g6
I01
sg7
g26
sg9
L5L
sa(dp4173
g6
I01
sg7
g28
sg9
L5L
sa(dp4174
g6
I01
sg7
g30
sg9
L5L
sa(dp4175
g6
I01
sg7
g32
sg9
L5L
sa(dp4176
g6
I01
sg7
g34
sg9
L5L
sa(dp4177
g6
I01
sg7
g36
sg9
L5L
sa(dp4178
g6
I01
sg7
V__module__
p4179
sg9
L5L
sa(dp4180
g6
I01
sg7
g38
sg9
L5L
sa(dp4181
g6
I01
sg7
g40
sg9
L2L
sg14
VCreate and return a new object.  See help(type) for accurate signature.
p4182
sa(dp4183
g6
I01
sg7
g43
sg9
L2L
sg14
Nsa(dp4184
g6
I01
sg7
g45
sg9
L2L
sg14
Vhelper for pickle
p4185
sa(dp4186
g6
I01
sg7
g48
sg9
L5L
sa(dp4187
g6
I01
sg7
g50
sg9
L5L
sa(dp4188
g6
I01
sg7
g52
sg9
L2L
sg14
V__sizeof__() -> int\u000asize of object in memory, in bytes
p4189
sa(dp4190
g6
I01
sg7
g55
sg9
L5L
sa(dp4191
g6
I01
sg7
g57
sg9
L2L
sg14
VAbstract classes can override this to customize issubclass().\u000a\u000aThis is invoked early on by abc.ABCMeta.__subclasscheck__().\u000aIt should return True, False or NotImplemented.  If it returns\u000aNotImplemented, the normal algorithm is used.  Otherwise, it\u000aoverrides the normal algorithm (and the outcome is cached).\u000a
p4192
sa(dp4193
g6
I01
sg7
g97
sg9
L5L
sa(dp4194
g6
I01
sg7
g60
sg9
L5L
sa(dp4195
g6
I01
sg7
V_fields
p4196
sg9
L5L
sasg6
I01
sg7
Vwithitem
p4197
sg9
L3L
sg14
Nsasg6
I01
sg7
V_ast
p4198
sg14
Ns.