(dp0
Vchilds
p1
(lp2
(dp3
Vis_builtin
p4
I01
sVname
p5
V__doc__
p6
sVtype
p7
L5L
sa(dp8
g1
(lp9
(dp10
g4
I01
sg5
V__delattr__
p11
sg7
L5L
sa(dp12
g4
I01
sg5
V__dict__
p13
sg7
L5L
sa(dp14
g4
I01
sg5
V__dir__
p15
sg7
L2L
sVdoc
p16
V__dir__() -> list\u000adefault dir() implementation
p17
sa(dp18
g4
I01
sg5
g6
sg7
L5L
sa(dp19
g4
I01
sg5
V__eq__
p20
sg7
L5L
sa(dp21
g4
I01
sg5
V__format__
p22
sg7
L2L
sg16
Vdefault object formatter
p23
sa(dp24
g4
I01
sg5
V__ge__
p25
sg7
L5L
sa(dp26
g4
I01
sg5
V__getattribute__
p27
sg7
L5L
sa(dp28
g4
I01
sg5
V__gt__
p29
sg7
L5L
sa(dp30
g4
I01
sg5
V__hash__
p31
sg7
L5L
sa(dp32
g4
I01
sg5
V__init__
p33
sg7
L5L
sa(dp34
g4
I01
sg5
V__le__
p35
sg7
L5L
sa(dp36
g4
I01
sg5
V__lt__
p37
sg7
L5L
sa(dp38
g4
I01
sg5
V__module__
p39
sg7
L5L
sa(dp40
g4
I01
sg5
V__ne__
p41
sg7
L5L
sa(dp42
g4
I01
sg5
V__new__
p43
sg7
L2L
sg16
VCreate and return a new object.  See help(type) for accurate signature.
p44
sa(dp45
g4
I01
sg5
V__reduce__
p46
sg7
L2L
sg16
Vhelper for pickle
p47
sa(dp48
g4
I01
sg5
V__reduce_ex__
p49
sg7
L2L
sg16
Vhelper for pickle
p50
sa(dp51
g4
I01
sg5
V__repr__
p52
sg7
L5L
sa(dp53
g4
I01
sg5
V__setattr__
p54
sg7
L5L
sa(dp55
g4
I01
sg5
V__sizeof__
p56
sg7
L2L
sg16
V__sizeof__() -> int\u000asize of object in memory, in bytes
p57
sa(dp58
g4
I01
sg5
V__str__
p59
sg7
L5L
sa(dp60
g4
I01
sg5
V__subclasshook__
p61
sg7
L2L
sg16
VAbstract classes can override this to customize issubclass().\u000a\u000aThis is invoked early on by abc.ABCMeta.__subclasscheck__().\u000aIt should return True, False or NotImplemented.  If it returns\u000aNotImplemented, the normal algorithm is used.  Otherwise, it\u000aoverrides the normal algorithm (and the outcome is cached).\u000a
p62
sa(dp63
g4
I01
sg5
V__weakref__
p64
sg7
L5L
sa(dp65
g4
I01
sg5
Vcreate_module
p66
sg7
L5L
sa(dp67
g4
I01
sg5
Vexec_module
p68
sg7
L5L
sa(dp69
g4
I01
sg5
Vfind_module
p70
sg7
L5L
sa(dp71
g4
I01
sg5
Vfind_spec
p72
sg7
L5L
sa(dp73
g4
I01
sg5
Vget_code
p74
sg7
L5L
sa(dp75
g4
I01
sg5
Vget_source
p76
sg7
L5L
sa(dp77
g4
I01
sg5
Vis_package
p78
sg7
L5L
sa(dp79
g4
I01
sg5
Vload_module
p80
sg7
L5L
sa(dp81
g4
I01
sg5
Vmodule_repr
p82
sg7
L5L
sasg4
I01
sg5
V__loader__
p83
sg7
L3L
sg16
VMeta path import for built-in modules.\u000a\u000a    All methods are either class or static methods to avoid the need to\u000a    instantiate the class.\u000a\u000a    
p84
sa(dp85
g4
I01
sg5
V__name__
p86
sg7
L5L
sa(dp87
g4
I01
sg5
V__package__
p88
sg7
L5L
sa(dp89
g4
I01
sg5
V__spec__
p90
sg7
L5L
sa(dp91
g4
I01
sg5
V_forget_codec
p92
sg7
L2L
sg16
VPurge the named codec from the internal codec lookup cache
p93
sa(dp94
g4
I01
sg5
Vascii_decode
p95
sg7
L2L
sg16
Nsa(dp96
g4
I01
sg5
Vascii_encode
p97
sg7
L2L
sg16
Nsa(dp98
g4
I01
sg5
Vcharmap_build
p99
sg7
L2L
sg16
Nsa(dp100
g4
I01
sg5
Vcharmap_decode
p101
sg7
L2L
sg16
Nsa(dp102
g4
I01
sg5
Vcharmap_encode
p103
sg7
L2L
sg16
Nsa(dp104
g4
I01
sg5
Vdecode
p105
sg7
L2L
sg16
VDecodes obj using the codec registered for encoding.\u000a\u000aDefault encoding is 'utf-8'.  errors may be given to set a\u000adifferent error handling scheme.  Default is 'strict' meaning that encoding\u000aerrors raise a ValueError.  Other possible values are 'ignore', 'replace'\u000aand 'backslashreplace' as well as any other name registered with\u000acodecs.register_error that can handle ValueErrors.
p106
sa(dp107
g4
I01
sg5
Vencode
p108
sg7
L2L
sg16
VEncodes obj using the codec registered for encoding.\u000a\u000aThe default encoding is 'utf-8'.  errors may be given to set a\u000adifferent error handling scheme.  Default is 'strict' meaning that encoding\u000aerrors raise a ValueError.  Other possible values are 'ignore', 'replace'\u000aand 'backslashreplace' as well as any other name registered with\u000acodecs.register_error that can handle ValueErrors.
p109
sa(dp110
g4
I01
sg5
Vescape_decode
p111
sg7
L2L
sg16
Nsa(dp112
g4
I01
sg5
Vescape_encode
p113
sg7
L2L
sg16
Nsa(dp114
g4
I01
sg5
Vlatin_1_decode
p115
sg7
L2L
sg16
Nsa(dp116
g4
I01
sg5
Vlatin_1_encode
p117
sg7
L2L
sg16
Nsa(dp118
g4
I01
sg5
Vlookup
p119
sg7
L2L
sg16
VLooks up a codec tuple in the Python codec registry and returns a CodecInfo object.
p120
sa(dp121
g4
I01
sg5
Vlookup_error
p122
sg7
L2L
sg16
Vlookup_error(errors) -> handler\u000a\u000aReturn the error handler for the specified error handling name or raise a\u000aLookupError, if no handler exists under this name.
p123
sa(dp124
g4
I01
sg5
Vraw_unicode_escape_decode
p125
sg7
L2L
sg16
Nsa(dp126
g4
I01
sg5
Vraw_unicode_escape_encode
p127
sg7
L2L
sg16
Nsa(dp128
g4
I01
sg5
Vreadbuffer_encode
p129
sg7
L2L
sg16
Nsa(dp130
g4
I01
sg5
Vregister
p131
sg7
L2L
sg16
VRegister a codec search function.\u000a\u000aSearch functions are expected to take one argument, the encoding name in\u000aall lower case letters, and either return None, or a tuple of functions\u000a(encoder, decoder, stream_reader, stream_writer) (or a CodecInfo object).
p132
sa(dp133
g4
I01
sg5
Vregister_error
p134
sg7
L2L
sg16
VRegister the specified error handler under the name errors.\u000a\u000ahandler must be a callable object, that will be called with an exception\u000ainstance containing information about the location of the encoding/decoding\u000aerror and must return a (replacement, new position) tuple.
p135
sa(dp136
g4
I01
sg5
Vunicode_escape_decode
p137
sg7
L2L
sg16
Nsa(dp138
g4
I01
sg5
Vunicode_escape_encode
p139
sg7
L2L
sg16
Nsa(dp140
g4
I01
sg5
Vunicode_internal_decode
p141
sg7
L2L
sg16
Nsa(dp142
g4
I01
sg5
Vunicode_internal_encode
p143
sg7
L2L
sg16
Nsa(dp144
g4
I01
sg5
Vutf_16_be_decode
p145
sg7
L2L
sg16
Nsa(dp146
g4
I01
sg5
Vutf_16_be_encode
p147
sg7
L2L
sg16
Nsa(dp148
g4
I01
sg5
Vutf_16_decode
p149
sg7
L2L
sg16
Nsa(dp150
g4
I01
sg5
Vutf_16_encode
p151
sg7
L2L
sg16
Nsa(dp152
g4
I01
sg5
Vutf_16_ex_decode
p153
sg7
L2L
sg16
Nsa(dp154
g4
I01
sg5
Vutf_16_le_decode
p155
sg7
L2L
sg16
Nsa(dp156
g4
I01
sg5
Vutf_16_le_encode
p157
sg7
L2L
sg16
Nsa(dp158
g4
I01
sg5
Vutf_32_be_decode
p159
sg7
L2L
sg16
Nsa(dp160
g4
I01
sg5
Vutf_32_be_encode
p161
sg7
L2L
sg16
Nsa(dp162
g4
I01
sg5
Vutf_32_decode
p163
sg7
L2L
sg16
Nsa(dp164
g4
I01
sg5
Vutf_32_encode
p165
sg7
L2L
sg16
Nsa(dp166
g4
I01
sg5
Vutf_32_ex_decode
p167
sg7
L2L
sg16
Nsa(dp168
g4
I01
sg5
Vutf_32_le_decode
p169
sg7
L2L
sg16
Nsa(dp170
g4
I01
sg5
Vutf_32_le_encode
p171
sg7
L2L
sg16
Nsa(dp172
g4
I01
sg5
Vutf_7_decode
p173
sg7
L2L
sg16
Nsa(dp174
g4
I01
sg5
Vutf_7_encode
p175
sg7
L2L
sg16
Nsa(dp176
g4
I01
sg5
Vutf_8_decode
p177
sg7
L2L
sg16
Nsa(dp178
g4
I01
sg5
Vutf_8_encode
p179
sg7
L2L
sg16
Nsasg4
I01
sg5
V_codecs
p180
sg16
Ns.