(dp0
Vchilds
p1
(lp2
(dp3
Vis_builtin
p4
I01
sVname
p5
VMAXYEAR
p6
sVtype
p7
L5L
sa(dp8
g4
I01
sg5
VMINYEAR
p9
sg7
L5L
sa(dp10
g4
I01
sg5
V__doc__
p11
sg7
L5L
sa(dp12
g1
(lp13
(dp14
g4
I01
sg5
V__delattr__
p15
sg7
L5L
sa(dp16
g4
I01
sg5
V__dict__
p17
sg7
L5L
sa(dp18
g4
I01
sg5
V__dir__
p19
sg7
L2L
sVdoc
p20
V__dir__() -> list\u000adefault dir() implementation
p21
sa(dp22
g4
I01
sg5
g11
sg7
L5L
sa(dp23
g4
I01
sg5
V__eq__
p24
sg7
L5L
sa(dp25
g4
I01
sg5
V__format__
p26
sg7
L2L
sg20
Vdefault object formatter
p27
sa(dp28
g4
I01
sg5
V__ge__
p29
sg7
L5L
sa(dp30
g4
I01
sg5
V__getattribute__
p31
sg7
L5L
sa(dp32
g4
I01
sg5
V__gt__
p33
sg7
L5L
sa(dp34
g4
I01
sg5
V__hash__
p35
sg7
L5L
sa(dp36
g4
I01
sg5
V__init__
p37
sg7
L5L
sa(dp38
g4
I01
sg5
V__le__
p39
sg7
L5L
sa(dp40
g4
I01
sg5
V__lt__
p41
sg7
L5L
sa(dp42
g4
I01
sg5
V__module__
p43
sg7
L5L
sa(dp44
g4
I01
sg5
V__ne__
p45
sg7
L5L
sa(dp46
g4
I01
sg5
V__new__
p47
sg7
L2L
sg20
VCreate and return a new object.  See help(type) for accurate signature.
p48
sa(dp49
g4
I01
sg5
V__reduce__
p50
sg7
L2L
sg20
Vhelper for pickle
p51
sa(dp52
g4
I01
sg5
V__reduce_ex__
p53
sg7
L2L
sg20
Vhelper for pickle
p54
sa(dp55
g4
I01
sg5
V__repr__
p56
sg7
L5L
sa(dp57
g4
I01
sg5
V__setattr__
p58
sg7
L5L
sa(dp59
g4
I01
sg5
V__sizeof__
p60
sg7
L2L
sg20
V__sizeof__() -> int\u000asize of object in memory, in bytes
p61
sa(dp62
g4
I01
sg5
V__str__
p63
sg7
L5L
sa(dp64
g4
I01
sg5
V__subclasshook__
p65
sg7
L2L
sg20
VAbstract classes can override this to customize issubclass().\u000a\u000aThis is invoked early on by abc.ABCMeta.__subclasscheck__().\u000aIt should return True, False or NotImplemented.  If it returns\u000aNotImplemented, the normal algorithm is used.  Otherwise, it\u000aoverrides the normal algorithm (and the outcome is cached).\u000a
p66
sa(dp67
g4
I01
sg5
V__weakref__
p68
sg7
L5L
sa(dp69
g4
I01
sg5
Vcreate_module
p70
sg7
L5L
sa(dp71
g4
I01
sg5
Vexec_module
p72
sg7
L5L
sa(dp73
g4
I01
sg5
Vfind_module
p74
sg7
L5L
sa(dp75
g4
I01
sg5
Vfind_spec
p76
sg7
L5L
sa(dp77
g4
I01
sg5
Vget_code
p78
sg7
L5L
sa(dp79
g4
I01
sg5
Vget_source
p80
sg7
L5L
sa(dp81
g4
I01
sg5
Vis_package
p82
sg7
L5L
sa(dp83
g4
I01
sg5
Vload_module
p84
sg7
L5L
sa(dp85
g4
I01
sg5
Vmodule_repr
p86
sg7
L5L
sasg4
I01
sg5
V__loader__
p87
sg7
L3L
sg20
VMeta path import for built-in modules.\u000a\u000a    All methods are either class or static methods to avoid the need to\u000a    instantiate the class.\u000a\u000a    
p88
sa(dp89
g4
I01
sg5
V__name__
p90
sg7
L5L
sa(dp91
g4
I01
sg5
V__package__
p92
sg7
L5L
sa(dp93
g4
I01
sg5
V__spec__
p94
sg7
L5L
sa(dp95
g1
(lp96
(dp97
g4
I01
sg5
V__add__
p98
sg7
L5L
sa(dp99
g4
I01
sg5
g15
sg7
L5L
sa(dp100
g4
I01
sg5
g19
sg7
L2L
sg20
V__dir__() -> list\u000adefault dir() implementation
p101
sa(dp102
g4
I01
sg5
g11
sg7
L5L
sa(dp103
g4
I01
sg5
g24
sg7
L5L
sa(dp104
g4
I01
sg5
g26
sg7
L2L
sg20
VFormats self with strftime.
p105
sa(dp106
g4
I01
sg5
g29
sg7
L5L
sa(dp107
g4
I01
sg5
g31
sg7
L5L
sa(dp108
g4
I01
sg5
g33
sg7
L5L
sa(dp109
g4
I01
sg5
g35
sg7
L5L
sa(dp110
g4
I01
sg5
g37
sg7
L5L
sa(dp111
g4
I01
sg5
g39
sg7
L5L
sa(dp112
g4
I01
sg5
g41
sg7
L5L
sa(dp113
g4
I01
sg5
g45
sg7
L5L
sa(dp114
g4
I01
sg5
g47
sg7
L2L
sg20
VCreate and return a new object.  See help(type) for accurate signature.
p115
sa(dp116
g4
I01
sg5
V__radd__
p117
sg7
L5L
sa(dp118
g4
I01
sg5
g50
sg7
L2L
sg20
V__reduce__() -> (cls, state)
p119
sa(dp120
g4
I01
sg5
g53
sg7
L2L
sg20
Vhelper for pickle
p121
sa(dp122
g4
I01
sg5
g56
sg7
L5L
sa(dp123
g4
I01
sg5
V__rsub__
p124
sg7
L5L
sa(dp125
g4
I01
sg5
g58
sg7
L5L
sa(dp126
g4
I01
sg5
g60
sg7
L2L
sg20
V__sizeof__() -> int\u000asize of object in memory, in bytes
p127
sa(dp128
g4
I01
sg5
g63
sg7
L5L
sa(dp129
g4
I01
sg5
V__sub__
p130
sg7
L5L
sa(dp131
g4
I01
sg5
g65
sg7
L2L
sg20
VAbstract classes can override this to customize issubclass().\u000a\u000aThis is invoked early on by abc.ABCMeta.__subclasscheck__().\u000aIt should return True, False or NotImplemented.  If it returns\u000aNotImplemented, the normal algorithm is used.  Otherwise, it\u000aoverrides the normal algorithm (and the outcome is cached).\u000a
p132
sa(dp133
g4
I01
sg5
Vctime
p134
sg7
L2L
sg20
VReturn ctime() style string.
p135
sa(dp136
g4
I01
sg5
Vday
p137
sg7
L5L
sa(dp138
g4
I01
sg5
Vfromordinal
p139
sg7
L2L
sg20
Vint -> date corresponding to a proleptic Gregorian ordinal.
p140
sa(dp141
g4
I01
sg5
Vfromtimestamp
p142
sg7
L2L
sg20
Vtimestamp -> local date from a POSIX timestamp (like time.time()).
p143
sa(dp144
g4
I01
sg5
Visocalendar
p145
sg7
L2L
sg20
VReturn a 3-tuple containing ISO year, week number, and weekday.
p146
sa(dp147
g4
I01
sg5
Visoformat
p148
sg7
L2L
sg20
VReturn string in ISO 8601 format, YYYY-MM-DD.
p149
sa(dp150
g4
I01
sg5
Visoweekday
p151
sg7
L2L
sg20
VReturn the day of the week represented by the date.\u000aMonday == 1 ... Sunday == 7
p152
sa(dp153
g4
I01
sg5
Vmax
p154
sg7
L5L
sa(dp155
g4
I01
sg5
Vmin
p156
sg7
L5L
sa(dp157
g4
I01
sg5
Vmonth
p158
sg7
L5L
sa(dp159
g4
I01
sg5
Vreplace
p160
sg7
L2L
sg20
VReturn date with new specified fields.
p161
sa(dp162
g4
I01
sg5
Vresolution
p163
sg7
L5L
sa(dp164
g4
I01
sg5
Vstrftime
p165
sg7
L2L
sg20
Vformat -> strftime() style string.
p166
sa(dp167
g4
I01
sg5
Vtimetuple
p168
sg7
L2L
sg20
VReturn time tuple, compatible with time.localtime().
p169
sa(dp170
g4
I01
sg5
Vtoday
p171
sg7
L2L
sg20
VCurrent date or datetime:  same as self.__class__.fromtimestamp(time.time()).
p172
sa(dp173
g4
I01
sg5
Vtoordinal
p174
sg7
L2L
sg20
VReturn proleptic Gregorian ordinal.  January 1 of year 1 is day 1.
p175
sa(dp176
g4
I01
sg5
Vweekday
p177
sg7
L2L
sg20
VReturn the day of the week represented by the date.\u000aMonday == 0 ... Sunday == 6
p178
sa(dp179
g4
I01
sg5
Vyear
p180
sg7
L5L
sasg4
I01
sg5
Vdate
p181
sg7
L3L
sg20
Vdate(year, month, day) --> date object
p182
sa(dp183
g1
(lp184
(dp185
g4
I01
sg5
g98
sg7
L5L
sa(dp186
g4
I01
sg5
g15
sg7
L5L
sa(dp187
g4
I01
sg5
g19
sg7
L2L
sg20
V__dir__() -> list\u000adefault dir() implementation
p188
sa(dp189
g4
I01
sg5
g11
sg7
L5L
sa(dp190
g4
I01
sg5
g24
sg7
L5L
sa(dp191
g4
I01
sg5
g26
sg7
L2L
sg20
VFormats self with strftime.
p192
sa(dp193
g4
I01
sg5
g29
sg7
L5L
sa(dp194
g4
I01
sg5
g31
sg7
L5L
sa(dp195
g4
I01
sg5
g33
sg7
L5L
sa(dp196
g4
I01
sg5
g35
sg7
L5L
sa(dp197
g4
I01
sg5
g37
sg7
L5L
sa(dp198
g4
I01
sg5
g39
sg7
L5L
sa(dp199
g4
I01
sg5
g41
sg7
L5L
sa(dp200
g4
I01
sg5
g45
sg7
L5L
sa(dp201
g4
I01
sg5
g47
sg7
L2L
sg20
VCreate and return a new object.  See help(type) for accurate signature.
p202
sa(dp203
g4
I01
sg5
g117
sg7
L5L
sa(dp204
g4
I01
sg5
g50
sg7
L2L
sg20
V__reduce__() -> (cls, state)
p205
sa(dp206
g4
I01
sg5
g53
sg7
L2L
sg20
Vhelper for pickle
p207
sa(dp208
g4
I01
sg5
g56
sg7
L5L
sa(dp209
g4
I01
sg5
g124
sg7
L5L
sa(dp210
g4
I01
sg5
g58
sg7
L5L
sa(dp211
g4
I01
sg5
g60
sg7
L2L
sg20
V__sizeof__() -> int\u000asize of object in memory, in bytes
p212
sa(dp213
g4
I01
sg5
g63
sg7
L5L
sa(dp214
g4
I01
sg5
g130
sg7
L5L
sa(dp215
g4
I01
sg5
g65
sg7
L2L
sg20
VAbstract classes can override this to customize issubclass().\u000a\u000aThis is invoked early on by abc.ABCMeta.__subclasscheck__().\u000aIt should return True, False or NotImplemented.  If it returns\u000aNotImplemented, the normal algorithm is used.  Otherwise, it\u000aoverrides the normal algorithm (and the outcome is cached).\u000a
p216
sa(dp217
g4
I01
sg5
Vastimezone
p218
sg7
L2L
sg20
Vtz -> convert to local time in new timezone tz\u000a
p219
sa(dp220
g4
I01
sg5
Vcombine
p221
sg7
L2L
sg20
Vdate, time -> datetime with same date and time fields
p222
sa(dp223
g4
I01
sg5
g134
sg7
L2L
sg20
VReturn ctime() style string.
p224
sa(dp225
g4
I01
sg5
g181
sg7
L2L
sg20
VReturn date object with same year, month and day.
p226
sa(dp227
g4
I01
sg5
g137
sg7
L5L
sa(dp228
g4
I01
sg5
Vdst
p229
sg7
L2L
sg20
VReturn self.tzinfo.dst(self).
p230
sa(dp231
g4
I01
sg5
g139
sg7
L2L
sg20
Vint -> date corresponding to a proleptic Gregorian ordinal.
p232
sa(dp233
g4
I01
sg5
g142
sg7
L2L
sg20
Vtimestamp[, tz] -> tz's local time from POSIX timestamp.
p234
sa(dp235
g4
I01
sg5
Vhour
p236
sg7
L5L
sa(dp237
g4
I01
sg5
g145
sg7
L2L
sg20
VReturn a 3-tuple containing ISO year, week number, and weekday.
p238
sa(dp239
g4
I01
sg5
g148
sg7
L2L
sg20
V[sep] -> string in ISO 8601 format, YYYY-MM-DDTHH:MM:SS[.mmmmmm][+HH:MM].\u000a\u000asep is used to separate the year from the time, and defaults to 'T'.
p240
sa(dp241
g4
I01
sg5
g151
sg7
L2L
sg20
VReturn the day of the week represented by the date.\u000aMonday == 1 ... Sunday == 7
p242
sa(dp243
g4
I01
sg5
g154
sg7
L5L
sa(dp244
g4
I01
sg5
Vmicrosecond
p245
sg7
L5L
sa(dp246
g4
I01
sg5
g156
sg7
L5L
sa(dp247
g4
I01
sg5
Vminute
p248
sg7
L5L
sa(dp249
g4
I01
sg5
g158
sg7
L5L
sa(dp250
g4
I01
sg5
Vnow
p251
sg7
L2L
sg20
VReturns new datetime object representing current time local to tz.\u000a\u000a  tz\u000a    Timezone object.\u000a\u000aIf no tz is specified, uses local timezone.
p252
sa(dp253
g4
I01
sg5
g160
sg7
L2L
sg20
VReturn datetime with new specified fields.
p254
sa(dp255
g4
I01
sg5
g163
sg7
L5L
sa(dp256
g4
I01
sg5
Vsecond
p257
sg7
L5L
sa(dp258
g4
I01
sg5
g165
sg7
L2L
sg20
Vformat -> strftime() style string.
p259
sa(dp260
g4
I01
sg5
Vstrptime
p261
sg7
L2L
sg20
Vstring, format -> new datetime parsed from a string (like time.strptime()).
p262
sa(dp263
g4
I01
sg5
Vtime
p264
sg7
L2L
sg20
VReturn time object with same time but with tzinfo=None.
p265
sa(dp266
g4
I01
sg5
Vtimestamp
p267
sg7
L2L
sg20
VReturn POSIX timestamp as float.
p268
sa(dp269
g4
I01
sg5
g168
sg7
L2L
sg20
VReturn time tuple, compatible with time.localtime().
p270
sa(dp271
g4
I01
sg5
Vtimetz
p272
sg7
L2L
sg20
VReturn time object with same time and tzinfo.
p273
sa(dp274
g4
I01
sg5
g171
sg7
L2L
sg20
VCurrent date or datetime:  same as self.__class__.fromtimestamp(time.time()).
p275
sa(dp276
g4
I01
sg5
g174
sg7
L2L
sg20
VReturn proleptic Gregorian ordinal.  January 1 of year 1 is day 1.
p277
sa(dp278
g4
I01
sg5
Vtzinfo
p279
sg7
L5L
sa(dp280
g4
I01
sg5
Vtzname
p281
sg7
L2L
sg20
VReturn self.tzinfo.tzname(self).
p282
sa(dp283
g4
I01
sg5
Vutcfromtimestamp
p284
sg7
L2L
sg20
VConstruct a naive UTC datetime from a POSIX timestamp.
p285
sa(dp286
g4
I01
sg5
Vutcnow
p287
sg7
L2L
sg20
VReturn a new datetime representing UTC day and time.
p288
sa(dp289
g4
I01
sg5
Vutcoffset
p290
sg7
L2L
sg20
VReturn self.tzinfo.utcoffset(self).
p291
sa(dp292
g4
I01
sg5
Vutctimetuple
p293
sg7
L2L
sg20
VReturn UTC time tuple, compatible with time.localtime().
p294
sa(dp295
g4
I01
sg5
g177
sg7
L2L
sg20
VReturn the day of the week represented by the date.\u000aMonday == 0 ... Sunday == 6
p296
sa(dp297
g4
I01
sg5
g180
sg7
L5L
sasg4
I01
sg5
Vdatetime
p298
sg7
L3L
sg20
Vdatetime(year, month, day[, hour[, minute[, second[, microsecond[,tzinfo]]]]])\u000a\u000aThe year, month and day arguments are required. tzinfo may be None, or an\u000ainstance of a tzinfo subclass. The remaining arguments may be ints.\u000a
p299
sa(dp300
g4
I01
sg5
Vdatetime_CAPI
p301
sg7
L5L
sa(dp302
g1
(lp303
(dp304
g4
I01
sg5
g15
sg7
L5L
sa(dp305
g4
I01
sg5
g19
sg7
L2L
sg20
V__dir__() -> list\u000adefault dir() implementation
p306
sa(dp307
g4
I01
sg5
g11
sg7
L5L
sa(dp308
g4
I01
sg5
g24
sg7
L5L
sa(dp309
g4
I01
sg5
g26
sg7
L2L
sg20
VFormats self with strftime.
p310
sa(dp311
g4
I01
sg5
g29
sg7
L5L
sa(dp312
g4
I01
sg5
g31
sg7
L5L
sa(dp313
g4
I01
sg5
g33
sg7
L5L
sa(dp314
g4
I01
sg5
g35
sg7
L5L
sa(dp315
g4
I01
sg5
g37
sg7
L5L
sa(dp316
g4
I01
sg5
g39
sg7
L5L
sa(dp317
g4
I01
sg5
g41
sg7
L5L
sa(dp318
g4
I01
sg5
g45
sg7
L5L
sa(dp319
g4
I01
sg5
g47
sg7
L2L
sg20
VCreate and return a new object.  See help(type) for accurate signature.
p320
sa(dp321
g4
I01
sg5
g50
sg7
L2L
sg20
V__reduce__() -> (cls, state)
p322
sa(dp323
g4
I01
sg5
g53
sg7
L2L
sg20
Vhelper for pickle
p324
sa(dp325
g4
I01
sg5
g56
sg7
L5L
sa(dp326
g4
I01
sg5
g58
sg7
L5L
sa(dp327
g4
I01
sg5
g60
sg7
L2L
sg20
V__sizeof__() -> int\u000asize of object in memory, in bytes
p328
sa(dp329
g4
I01
sg5
g63
sg7
L5L
sa(dp330
g4
I01
sg5
g65
sg7
L2L
sg20
VAbstract classes can override this to customize issubclass().\u000a\u000aThis is invoked early on by abc.ABCMeta.__subclasscheck__().\u000aIt should return True, False or NotImplemented.  If it returns\u000aNotImplemented, the normal algorithm is used.  Otherwise, it\u000aoverrides the normal algorithm (and the outcome is cached).\u000a
p331
sa(dp332
g4
I01
sg5
g229
sg7
L2L
sg20
VReturn self.tzinfo.dst(self).
p333
sa(dp334
g4
I01
sg5
g236
sg7
L5L
sa(dp335
g4
I01
sg5
g148
sg7
L2L
sg20
VReturn string in ISO 8601 format, HH:MM:SS[.mmmmmm][+HH:MM].
p336
sa(dp337
g4
I01
sg5
g154
sg7
L5L
sa(dp338
g4
I01
sg5
g245
sg7
L5L
sa(dp339
g4
I01
sg5
g156
sg7
L5L
sa(dp340
g4
I01
sg5
g248
sg7
L5L
sa(dp341
g4
I01
sg5
g160
sg7
L2L
sg20
VReturn time with new specified fields.
p342
sa(dp343
g4
I01
sg5
g163
sg7
L5L
sa(dp344
g4
I01
sg5
g257
sg7
L5L
sa(dp345
g4
I01
sg5
g165
sg7
L2L
sg20
Vformat -> strftime() style string.
p346
sa(dp347
g4
I01
sg5
g279
sg7
L5L
sa(dp348
g4
I01
sg5
g281
sg7
L2L
sg20
VReturn self.tzinfo.tzname(self).
p349
sa(dp350
g4
I01
sg5
g290
sg7
L2L
sg20
VReturn self.tzinfo.utcoffset(self).
p351
sasg4
I01
sg5
g264
sg7
L3L
sg20
Vtime([hour[, minute[, second[, microsecond[, tzinfo]]]]]) --> a time object\u000a\u000aAll arguments are optional. tzinfo may be None, or an instance of\u000aa tzinfo subclass. The remaining arguments may be ints.\u000a
p352
sa(dp353
g1
(lp354
(dp355
g4
I01
sg5
V__abs__
p356
sg7
L5L
sa(dp357
g4
I01
sg5
g98
sg7
L5L
sa(dp358
g4
I01
sg5
V__bool__
p359
sg7
L5L
sa(dp360
g4
I01
sg5
g15
sg7
L5L
sa(dp361
g4
I01
sg5
g19
sg7
L2L
sg20
V__dir__() -> list\u000adefault dir() implementation
p362
sa(dp363
g4
I01
sg5
V__divmod__
p364
sg7
L5L
sa(dp365
g4
I01
sg5
g11
sg7
L5L
sa(dp366
g4
I01
sg5
g24
sg7
L5L
sa(dp367
g4
I01
sg5
V__floordiv__
p368
sg7
L5L
sa(dp369
g4
I01
sg5
g26
sg7
L2L
sg20
Vdefault object formatter
p370
sa(dp371
g4
I01
sg5
g29
sg7
L5L
sa(dp372
g4
I01
sg5
g31
sg7
L5L
sa(dp373
g4
I01
sg5
g33
sg7
L5L
sa(dp374
g4
I01
sg5
g35
sg7
L5L
sa(dp375
g4
I01
sg5
g37
sg7
L5L
sa(dp376
g4
I01
sg5
g39
sg7
L5L
sa(dp377
g4
I01
sg5
g41
sg7
L5L
sa(dp378
g4
I01
sg5
V__mod__
p379
sg7
L5L
sa(dp380
g4
I01
sg5
V__mul__
p381
sg7
L5L
sa(dp382
g4
I01
sg5
g45
sg7
L5L
sa(dp383
g4
I01
sg5
V__neg__
p384
sg7
L5L
sa(dp385
g4
I01
sg5
g47
sg7
L2L
sg20
VCreate and return a new object.  See help(type) for accurate signature.
p386
sa(dp387
g4
I01
sg5
V__pos__
p388
sg7
L5L
sa(dp389
g4
I01
sg5
g117
sg7
L5L
sa(dp390
g4
I01
sg5
V__rdivmod__
p391
sg7
L5L
sa(dp392
g4
I01
sg5
g50
sg7
L2L
sg20
V__reduce__() -> (cls, state)
p393
sa(dp394
g4
I01
sg5
g53
sg7
L2L
sg20
Vhelper for pickle
p395
sa(dp396
g4
I01
sg5
g56
sg7
L5L
sa(dp397
g4
I01
sg5
V__rfloordiv__
p398
sg7
L5L
sa(dp399
g4
I01
sg5
V__rmod__
p400
sg7
L5L
sa(dp401
g4
I01
sg5
V__rmul__
p402
sg7
L5L
sa(dp403
g4
I01
sg5
g124
sg7
L5L
sa(dp404
g4
I01
sg5
V__rtruediv__
p405
sg7
L5L
sa(dp406
g4
I01
sg5
g58
sg7
L5L
sa(dp407
g4
I01
sg5
g60
sg7
L2L
sg20
V__sizeof__() -> int\u000asize of object in memory, in bytes
p408
sa(dp409
g4
I01
sg5
g63
sg7
L5L
sa(dp410
g4
I01
sg5
g130
sg7
L5L
sa(dp411
g4
I01
sg5
g65
sg7
L2L
sg20
VAbstract classes can override this to customize issubclass().\u000a\u000aThis is invoked early on by abc.ABCMeta.__subclasscheck__().\u000aIt should return True, False or NotImplemented.  If it returns\u000aNotImplemented, the normal algorithm is used.  Otherwise, it\u000aoverrides the normal algorithm (and the outcome is cached).\u000a
p412
sa(dp413
g4
I01
sg5
V__truediv__
p414
sg7
L5L
sa(dp415
g4
I01
sg5
Vdays
p416
sg7
L5L
sa(dp417
g4
I01
sg5
g154
sg7
L5L
sa(dp418
g4
I01
sg5
Vmicroseconds
p419
sg7
L5L
sa(dp420
g4
I01
sg5
g156
sg7
L5L
sa(dp421
g4
I01
sg5
g163
sg7
L5L
sa(dp422
g4
I01
sg5
Vseconds
p423
sg7
L5L
sa(dp424
g4
I01
sg5
Vtotal_seconds
p425
sg7
L2L
sg20
VTotal seconds in the duration.
p426
sasg4
I01
sg5
Vtimedelta
p427
sg7
L3L
sg20
VDifference between two datetime values.
p428
sa(dp429
g1
(lp430
(dp431
g4
I01
sg5
g15
sg7
L5L
sa(dp432
g4
I01
sg5
g19
sg7
L2L
sg20
V__dir__() -> list\u000adefault dir() implementation
p433
sa(dp434
g4
I01
sg5
g11
sg7
L5L
sa(dp435
g4
I01
sg5
g24
sg7
L5L
sa(dp436
g4
I01
sg5
g26
sg7
L2L
sg20
Vdefault object formatter
p437
sa(dp438
g4
I01
sg5
g29
sg7
L5L
sa(dp439
g4
I01
sg5
g31
sg7
L5L
sa(dp440
g4
I01
sg5
V__getinitargs__
p441
sg7
L2L
sg20
Vpickle support
p442
sa(dp443
g4
I01
sg5
g33
sg7
L5L
sa(dp444
g4
I01
sg5
g35
sg7
L5L
sa(dp445
g4
I01
sg5
g37
sg7
L5L
sa(dp446
g4
I01
sg5
g39
sg7
L5L
sa(dp447
g4
I01
sg5
g41
sg7
L5L
sa(dp448
g4
I01
sg5
g45
sg7
L5L
sa(dp449
g4
I01
sg5
g47
sg7
L2L
sg20
VCreate and return a new object.  See help(type) for accurate signature.
p450
sa(dp451
g4
I01
sg5
g50
sg7
L2L
sg20
V-> (cls, state)
p452
sa(dp453
g4
I01
sg5
g53
sg7
L2L
sg20
Vhelper for pickle
p454
sa(dp455
g4
I01
sg5
g56
sg7
L5L
sa(dp456
g4
I01
sg5
g58
sg7
L5L
sa(dp457
g4
I01
sg5
g60
sg7
L2L
sg20
V__sizeof__() -> int\u000asize of object in memory, in bytes
p458
sa(dp459
g4
I01
sg5
g63
sg7
L5L
sa(dp460
g4
I01
sg5
g65
sg7
L2L
sg20
VAbstract classes can override this to customize issubclass().\u000a\u000aThis is invoked early on by abc.ABCMeta.__subclasscheck__().\u000aIt should return True, False or NotImplemented.  If it returns\u000aNotImplemented, the normal algorithm is used.  Otherwise, it\u000aoverrides the normal algorithm (and the outcome is cached).\u000a
p461
sa(dp462
g4
I01
sg5
g229
sg7
L2L
sg20
VReturn None.
p463
sa(dp464
g4
I01
sg5
Vfromutc
p465
sg7
L2L
sg20
Vdatetime in UTC -> datetime in local time.
p466
sa(dp467
g4
I01
sg5
g154
sg7
L5L
sa(dp468
g4
I01
sg5
g156
sg7
L5L
sa(dp469
g4
I01
sg5
g281
sg7
L2L
sg20
VIf name is specified when timezone is created, returns the name.  Otherwise returns offset as 'UTC(+|-)HH:MM'.
p470
sa(dp471
g4
I01
sg5
Vutc
p472
sg7
L5L
sa(dp473
g4
I01
sg5
g290
sg7
L2L
sg20
VReturn fixed offset.
p474
sasg4
I01
sg5
Vtimezone
p475
sg7
L3L
sg20
VFixed offset from UTC implementation of tzinfo.
p476
sa(dp477
g1
(lp478
(dp479
g4
I01
sg5
g15
sg7
L5L
sa(dp480
g4
I01
sg5
g19
sg7
L2L
sg20
V__dir__() -> list\u000adefault dir() implementation
p481
sa(dp482
g4
I01
sg5
g11
sg7
L5L
sa(dp483
g4
I01
sg5
g24
sg7
L5L
sa(dp484
g4
I01
sg5
g26
sg7
L2L
sg20
Vdefault object formatter
p485
sa(dp486
g4
I01
sg5
g29
sg7
L5L
sa(dp487
g4
I01
sg5
g31
sg7
L5L
sa(dp488
g4
I01
sg5
g33
sg7
L5L
sa(dp489
g4
I01
sg5
g35
sg7
L5L
sa(dp490
g4
I01
sg5
g37
sg7
L5L
sa(dp491
g4
I01
sg5
g39
sg7
L5L
sa(dp492
g4
I01
sg5
g41
sg7
L5L
sa(dp493
g4
I01
sg5
g45
sg7
L5L
sa(dp494
g4
I01
sg5
g47
sg7
L2L
sg20
VCreate and return a new object.  See help(type) for accurate signature.
p495
sa(dp496
g4
I01
sg5
g50
sg7
L2L
sg20
V-> (cls, state)
p497
sa(dp498
g4
I01
sg5
g53
sg7
L2L
sg20
Vhelper for pickle
p499
sa(dp500
g4
I01
sg5
g56
sg7
L5L
sa(dp501
g4
I01
sg5
g58
sg7
L5L
sa(dp502
g4
I01
sg5
g60
sg7
L2L
sg20
V__sizeof__() -> int\u000asize of object in memory, in bytes
p503
sa(dp504
g4
I01
sg5
g63
sg7
L5L
sa(dp505
g4
I01
sg5
g65
sg7
L2L
sg20
VAbstract classes can override this to customize issubclass().\u000a\u000aThis is invoked early on by abc.ABCMeta.__subclasscheck__().\u000aIt should return True, False or NotImplemented.  If it returns\u000aNotImplemented, the normal algorithm is used.  Otherwise, it\u000aoverrides the normal algorithm (and the outcome is cached).\u000a
p506
sa(dp507
g4
I01
sg5
g229
sg7
L2L
sg20
Vdatetime -> DST offset in minutes east of UTC.
p508
sa(dp509
g4
I01
sg5
g465
sg7
L2L
sg20
Vdatetime in UTC -> datetime in local time.
p510
sa(dp511
g4
I01
sg5
g281
sg7
L2L
sg20
Vdatetime -> string name of time zone.
p512
sa(dp513
g4
I01
sg5
g290
sg7
L2L
sg20
Vdatetime -> timedelta showing offset from UTC, negative values indicating West of UTC
p514
sasg4
I01
sg5
g279
sg7
L3L
sg20
VAbstract base class for time zone info objects.
p515
sasg4
I01
sg5
V_datetime
p516
sg20
VFast implementation of the datetime type.
p517
s.