(dp0
Vchilds
p1
(lp2
(dp3
g1
(lp4
(dp5
Vis_builtin
p6
I01
sVname
p7
V__copy__
p8
sVtype
p9
L2L
sVdoc
p10
Nsa(dp11
g6
I01
sg7
V__deepcopy__
p12
sg9
L2L
sg10
Nsa(dp13
g6
I01
sg7
V__delattr__
p14
sg9
L5L
sa(dp15
g6
I01
sg7
V__delitem__
p16
sg9
L5L
sa(dp17
g6
I01
sg7
V__dir__
p18
sg9
L2L
sg10
V__dir__() -> list\u000adefault dir() implementation
p19
sa(dp20
g6
I01
sg7
V__doc__
p21
sg9
L5L
sa(dp22
g6
I01
sg7
V__eq__
p23
sg9
L5L
sa(dp24
g6
I01
sg7
V__format__
p25
sg9
L2L
sg10
Vdefault object formatter
p26
sa(dp27
g6
I01
sg7
V__ge__
p28
sg9
L5L
sa(dp29
g6
I01
sg7
V__getattribute__
p30
sg9
L5L
sa(dp31
g6
I01
sg7
V__getitem__
p32
sg9
L5L
sa(dp33
g6
I01
sg7
V__getstate__
p34
sg9
L2L
sg10
Nsa(dp35
g6
I01
sg7
V__gt__
p36
sg9
L5L
sa(dp37
g6
I01
sg7
V__hash__
p38
sg9
L5L
sa(dp39
g6
I01
sg7
V__init__
p40
sg9
L5L
sa(dp41
g6
I01
sg7
V__le__
p42
sg9
L5L
sa(dp43
g6
I01
sg7
V__len__
p44
sg9
L5L
sa(dp45
g6
I01
sg7
V__lt__
p46
sg9
L5L
sa(dp47
g6
I01
sg7
V__ne__
p48
sg9
L5L
sa(dp49
g6
I01
sg7
V__new__
p50
sg9
L2L
sg10
VCreate and return a new object.  See help(type) for accurate signature.
p51
sa(dp52
g6
I01
sg7
V__reduce__
p53
sg9
L2L
sg10
Vhelper for pickle
p54
sa(dp55
g6
I01
sg7
V__reduce_ex__
p56
sg9
L2L
sg10
Vhelper for pickle
p57
sa(dp58
g6
I01
sg7
V__repr__
p59
sg9
L5L
sa(dp60
g6
I01
sg7
V__setattr__
p61
sg9
L5L
sa(dp62
g6
I01
sg7
V__setitem__
p63
sg9
L5L
sa(dp64
g6
I01
sg7
V__setstate__
p65
sg9
L2L
sg10
Nsa(dp66
g6
I01
sg7
V__sizeof__
p67
sg9
L2L
sg10
Nsa(dp68
g6
I01
sg7
V__str__
p69
sg9
L5L
sa(dp70
g6
I01
sg7
V__subclasshook__
p71
sg9
L2L
sg10
VAbstract classes can override this to customize issubclass().\u000a\u000aThis is invoked early on by abc.ABCMeta.__subclasscheck__().\u000aIt should return True, False or NotImplemented.  If it returns\u000aNotImplemented, the normal algorithm is used.  Otherwise, it\u000aoverrides the normal algorithm (and the outcome is cached).\u000a
p72
sa(dp73
g6
I01
sg7
Vappend
p74
sg9
L2L
sg10
Nsa(dp75
g6
I01
sg7
Vclear
p76
sg9
L2L
sg10
Nsa(dp77
g6
I01
sg7
Vextend
p78
sg9
L2L
sg10
Nsa(dp79
g6
I01
sg7
Vfind
p80
sg9
L2L
sg10
Nsa(dp81
g6
I01
sg7
Vfindall
p82
sg9
L2L
sg10
Nsa(dp83
g6
I01
sg7
Vfindtext
p84
sg9
L2L
sg10
Nsa(dp85
g6
I01
sg7
Vget
p86
sg9
L2L
sg10
Nsa(dp87
g6
I01
sg7
Vgetchildren
p88
sg9
L2L
sg10
Nsa(dp89
g6
I01
sg7
Vgetiterator
p90
sg9
L2L
sg10
Viter($self, /, tag=None)\u000a--\u000a\u000a
p91
sa(dp92
g6
I01
sg7
Vinsert
p93
sg9
L2L
sg10
Nsa(dp94
g6
I01
sg7
Vitems
p95
sg9
L2L
sg10
Nsa(dp96
g6
I01
sg7
Viter
p97
sg9
L2L
sg10
Nsa(dp98
g6
I01
sg7
Viterfind
p99
sg9
L2L
sg10
Nsa(dp100
g6
I01
sg7
Vitertext
p101
sg9
L2L
sg10
Nsa(dp102
g6
I01
sg7
Vkeys
p103
sg9
L2L
sg10
Nsa(dp104
g6
I01
sg7
Vmakeelement
p105
sg9
L2L
sg10
Nsa(dp106
g6
I01
sg7
Vremove
p107
sg9
L2L
sg10
Nsa(dp108
g6
I01
sg7
Vset
p109
sg9
L2L
sg10
Nsasg6
I01
sg7
VElement
p110
sg9
L3L
sg10
Nsa(dp111
g1
(lp112
(dp113
g6
I01
sg7
V__cause__
p114
sg9
L5L
sa(dp115
g6
I01
sg7
V__context__
p116
sg9
L5L
sa(dp117
g6
I01
sg7
g14
sg9
L5L
sa(dp118
g6
I01
sg7
V__dict__
p119
sg9
L5L
sa(dp120
g6
I01
sg7
g18
sg9
L2L
sg10
V__dir__() -> list\u000adefault dir() implementation
p121
sa(dp122
g6
I01
sg7
g21
sg9
L5L
sa(dp123
g6
I01
sg7
g23
sg9
L5L
sa(dp124
g6
I01
sg7
g25
sg9
L2L
sg10
Vdefault object formatter
p125
sa(dp126
g6
I01
sg7
g28
sg9
L5L
sa(dp127
g6
I01
sg7
g30
sg9
L5L
sa(dp128
g6
I01
sg7
g36
sg9
L5L
sa(dp129
g6
I01
sg7
g38
sg9
L5L
sa(dp130
g6
I01
sg7
g40
sg9
L5L
sa(dp131
g6
I01
sg7
g42
sg9
L5L
sa(dp132
g6
I01
sg7
g46
sg9
L5L
sa(dp133
g6
I01
sg7
V__module__
p134
sg9
L5L
sa(dp135
g6
I01
sg7
g48
sg9
L5L
sa(dp136
g6
I01
sg7
g50
sg9
L2L
sg10
VCreate and return a new object.  See help(type) for accurate signature.
p137
sa(dp138
g6
I01
sg7
g53
sg9
L2L
sg10
Nsa(dp139
g6
I01
sg7
g56
sg9
L2L
sg10
Vhelper for pickle
p140
sa(dp141
g6
I01
sg7
g59
sg9
L5L
sa(dp142
g6
I01
sg7
g61
sg9
L5L
sa(dp143
g6
I01
sg7
g65
sg9
L2L
sg10
Nsa(dp144
g6
I01
sg7
g67
sg9
L2L
sg10
V__sizeof__() -> int\u000asize of object in memory, in bytes
p145
sa(dp146
g6
I01
sg7
g69
sg9
L5L
sa(dp147
g6
I01
sg7
g71
sg9
L2L
sg10
VAbstract classes can override this to customize issubclass().\u000a\u000aThis is invoked early on by abc.ABCMeta.__subclasscheck__().\u000aIt should return True, False or NotImplemented.  If it returns\u000aNotImplemented, the normal algorithm is used.  Otherwise, it\u000aoverrides the normal algorithm (and the outcome is cached).\u000a
p148
sa(dp149
g6
I01
sg7
V__suppress_context__
p150
sg9
L5L
sa(dp151
g6
I01
sg7
V__traceback__
p152
sg9
L5L
sa(dp153
g6
I01
sg7
V__weakref__
p154
sg9
L5L
sa(dp155
g6
I01
sg7
Vargs
p156
sg9
L5L
sa(dp157
g6
I01
sg7
Vfilename
p158
sg9
L5L
sa(dp159
g6
I01
sg7
Vlineno
p160
sg9
L5L
sa(dp161
g6
I01
sg7
Vmsg
p162
sg9
L5L
sa(dp163
g6
I01
sg7
Voffset
p164
sg9
L5L
sa(dp165
g6
I01
sg7
Vprint_file_and_line
p166
sg9
L5L
sa(dp167
g6
I01
sg7
Vtext
p168
sg9
L5L
sa(dp169
g6
I01
sg7
Vwith_traceback
p170
sg9
L2L
sg10
VException.with_traceback(tb) --\u000a    set self.__traceback__ to tb and return self.
p171
sasg6
I01
sg7
VParseError
p172
sg9
L3L
sg10
Nsa(dp173
g6
I01
sg7
VSubElement
p174
sg9
L2L
sg10
Nsa(dp175
g1
(lp176
(dp177
g6
I01
sg7
g14
sg9
L5L
sa(dp178
g6
I01
sg7
g18
sg9
L2L
sg10
V__dir__() -> list\u000adefault dir() implementation
p179
sa(dp180
g6
I01
sg7
g21
sg9
L5L
sa(dp181
g6
I01
sg7
g23
sg9
L5L
sa(dp182
g6
I01
sg7
g25
sg9
L2L
sg10
Vdefault object formatter
p183
sa(dp184
g6
I01
sg7
g28
sg9
L5L
sa(dp185
g6
I01
sg7
g30
sg9
L5L
sa(dp186
g6
I01
sg7
g36
sg9
L5L
sa(dp187
g6
I01
sg7
g38
sg9
L5L
sa(dp188
g6
I01
sg7
g40
sg9
L5L
sa(dp189
g6
I01
sg7
g42
sg9
L5L
sa(dp190
g6
I01
sg7
g46
sg9
L5L
sa(dp191
g6
I01
sg7
g48
sg9
L5L
sa(dp192
g6
I01
sg7
g50
sg9
L2L
sg10
VCreate and return a new object.  See help(type) for accurate signature.
p193
sa(dp194
g6
I01
sg7
g53
sg9
L2L
sg10
Vhelper for pickle
p195
sa(dp196
g6
I01
sg7
g56
sg9
L2L
sg10
Vhelper for pickle
p197
sa(dp198
g6
I01
sg7
g59
sg9
L5L
sa(dp199
g6
I01
sg7
g61
sg9
L5L
sa(dp200
g6
I01
sg7
g67
sg9
L2L
sg10
V__sizeof__() -> int\u000asize of object in memory, in bytes
p201
sa(dp202
g6
I01
sg7
g69
sg9
L5L
sa(dp203
g6
I01
sg7
g71
sg9
L2L
sg10
VAbstract classes can override this to customize issubclass().\u000a\u000aThis is invoked early on by abc.ABCMeta.__subclasscheck__().\u000aIt should return True, False or NotImplemented.  If it returns\u000aNotImplemented, the normal algorithm is used.  Otherwise, it\u000aoverrides the normal algorithm (and the outcome is cached).\u000a
p204
sa(dp205
g6
I01
sg7
Vclose
p206
sg9
L2L
sg10
Nsa(dp207
g6
I01
sg7
Vdata
p208
sg9
L2L
sg10
Nsa(dp209
g6
I01
sg7
Vend
p210
sg9
L2L
sg10
Nsa(dp211
g6
I01
sg7
Vstart
p212
sg9
L2L
sg10
Nsasg6
I01
sg7
VTreeBuilder
p213
sg9
L3L
sg10
Nsa(dp214
g1
(lp215
(dp216
g6
I01
sg7
g14
sg9
L5L
sa(dp217
g6
I01
sg7
g18
sg9
L2L
sg10
V__dir__() -> list\u000adefault dir() implementation
p218
sa(dp219
g6
I01
sg7
g21
sg9
L5L
sa(dp220
g6
I01
sg7
g23
sg9
L5L
sa(dp221
g6
I01
sg7
g25
sg9
L2L
sg10
Vdefault object formatter
p222
sa(dp223
g6
I01
sg7
g28
sg9
L5L
sa(dp224
g6
I01
sg7
g30
sg9
L5L
sa(dp225
g6
I01
sg7
g36
sg9
L5L
sa(dp226
g6
I01
sg7
g38
sg9
L5L
sa(dp227
g6
I01
sg7
g40
sg9
L5L
sa(dp228
g6
I01
sg7
g42
sg9
L5L
sa(dp229
g6
I01
sg7
g46
sg9
L5L
sa(dp230
g6
I01
sg7
g48
sg9
L5L
sa(dp231
g6
I01
sg7
g50
sg9
L2L
sg10
VCreate and return a new object.  See help(type) for accurate signature.
p232
sa(dp233
g6
I01
sg7
g53
sg9
L2L
sg10
Vhelper for pickle
p234
sa(dp235
g6
I01
sg7
g56
sg9
L2L
sg10
Vhelper for pickle
p236
sa(dp237
g6
I01
sg7
g59
sg9
L5L
sa(dp238
g6
I01
sg7
g61
sg9
L5L
sa(dp239
g6
I01
sg7
g67
sg9
L2L
sg10
V__sizeof__() -> int\u000asize of object in memory, in bytes
p240
sa(dp241
g6
I01
sg7
g69
sg9
L5L
sa(dp242
g6
I01
sg7
g71
sg9
L2L
sg10
VAbstract classes can override this to customize issubclass().\u000a\u000aThis is invoked early on by abc.ABCMeta.__subclasscheck__().\u000aIt should return True, False or NotImplemented.  If it returns\u000aNotImplemented, the normal algorithm is used.  Otherwise, it\u000aoverrides the normal algorithm (and the outcome is cached).\u000a
p243
sa(dp244
g6
I01
sg7
V_parse_whole
p245
sg9
L2L
sg10
Nsa(dp246
g6
I01
sg7
V_setevents
p247
sg9
L2L
sg10
Nsa(dp248
g6
I01
sg7
g206
sg9
L2L
sg10
Nsa(dp249
g6
I01
sg7
Vdoctype
p250
sg9
L2L
sg10
Nsa(dp251
g6
I01
sg7
Vfeed
p252
sg9
L2L
sg10
Nsasg6
I01
sg7
VXMLParser
p253
sg9
L3L
sg10
Nsa(dp254
g6
I01
sg7
g21
sg9
L5L
sa(dp255
g1
(lp256
(dp257
g6
I01
sg7
g14
sg9
L5L
sa(dp258
g6
I01
sg7
g119
sg9
L5L
sa(dp259
g6
I01
sg7
g18
sg9
L2L
sg10
V__dir__() -> list\u000adefault dir() implementation
p260
sa(dp261
g6
I01
sg7
g21
sg9
L5L
sa(dp262
g6
I01
sg7
g23
sg9
L5L
sa(dp263
g6
I01
sg7
g25
sg9
L2L
sg10
Vdefault object formatter
p264
sa(dp265
g6
I01
sg7
g28
sg9
L5L
sa(dp266
g6
I01
sg7
g30
sg9
L5L
sa(dp267
g6
I01
sg7
g36
sg9
L5L
sa(dp268
g6
I01
sg7
g38
sg9
L5L
sa(dp269
g6
I01
sg7
g40
sg9
L5L
sa(dp270
g6
I01
sg7
g42
sg9
L5L
sa(dp271
g6
I01
sg7
g46
sg9
L5L
sa(dp272
g6
I01
sg7
g134
sg9
L5L
sa(dp273
g6
I01
sg7
g48
sg9
L5L
sa(dp274
g6
I01
sg7
g50
sg9
L2L
sg10
VCreate and return a new object.  See help(type) for accurate signature.
p275
sa(dp276
g6
I01
sg7
g53
sg9
L2L
sg10
Vhelper for pickle
p277
sa(dp278
g6
I01
sg7
g56
sg9
L2L
sg10
Vhelper for pickle
p279
sa(dp280
g6
I01
sg7
g59
sg9
L5L
sa(dp281
g6
I01
sg7
g61
sg9
L5L
sa(dp282
g6
I01
sg7
g67
sg9
L2L
sg10
V__sizeof__() -> int\u000asize of object in memory, in bytes
p283
sa(dp284
g6
I01
sg7
g69
sg9
L5L
sa(dp285
g6
I01
sg7
g71
sg9
L2L
sg10
VAbstract classes can override this to customize issubclass().\u000a\u000aThis is invoked early on by abc.ABCMeta.__subclasscheck__().\u000aIt should return True, False or NotImplemented.  If it returns\u000aNotImplemented, the normal algorithm is used.  Otherwise, it\u000aoverrides the normal algorithm (and the outcome is cached).\u000a
p286
sa(dp287
g6
I01
sg7
g154
sg9
L5L
sa(dp288
g6
I01
sg7
Vcreate_module
p289
sg9
L5L
sa(dp290
g6
I01
sg7
Vexec_module
p291
sg9
L5L
sa(dp292
g6
I01
sg7
Vfind_module
p293
sg9
L5L
sa(dp294
g6
I01
sg7
Vfind_spec
p295
sg9
L5L
sa(dp296
g6
I01
sg7
Vget_code
p297
sg9
L5L
sa(dp298
g6
I01
sg7
Vget_source
p299
sg9
L5L
sa(dp300
g6
I01
sg7
Vis_package
p301
sg9
L5L
sa(dp302
g6
I01
sg7
Vload_module
p303
sg9
L5L
sa(dp304
g6
I01
sg7
Vmodule_repr
p305
sg9
L5L
sasg6
I01
sg7
V__loader__
p306
sg9
L3L
sg10
VMeta path import for built-in modules.\u000a\u000a    All methods are either class or static methods to avoid the need to\u000a    instantiate the class.\u000a\u000a    
p307
sa(dp308
g6
I01
sg7
V__name__
p309
sg9
L5L
sa(dp310
g6
I01
sg7
V__package__
p311
sg9
L5L
sa(dp312
g6
I01
sg7
V__spec__
p313
sg9
L5L
sasg6
I01
sg7
V_elementtree
p314
sg10
Ns.