(dp0
Vchilds
p1
(lp2
(dp3
Vis_builtin
p4
I01
sVname
p5
V__doc__
p6
sVtype
p7
L5L
sa(dp8
g1
(lp9
(dp10
g4
I01
sg5
V__delattr__
p11
sg7
L5L
sa(dp12
g4
I01
sg5
V__dict__
p13
sg7
L5L
sa(dp14
g4
I01
sg5
V__dir__
p15
sg7
L2L
sVdoc
p16
V__dir__() -> list\u000adefault dir() implementation
p17
sa(dp18
g4
I01
sg5
g6
sg7
L5L
sa(dp19
g4
I01
sg5
V__eq__
p20
sg7
L5L
sa(dp21
g4
I01
sg5
V__format__
p22
sg7
L2L
sg16
Vdefault object formatter
p23
sa(dp24
g4
I01
sg5
V__ge__
p25
sg7
L5L
sa(dp26
g4
I01
sg5
V__getattribute__
p27
sg7
L5L
sa(dp28
g4
I01
sg5
V__gt__
p29
sg7
L5L
sa(dp30
g4
I01
sg5
V__hash__
p31
sg7
L5L
sa(dp32
g4
I01
sg5
V__init__
p33
sg7
L5L
sa(dp34
g4
I01
sg5
V__le__
p35
sg7
L5L
sa(dp36
g4
I01
sg5
V__lt__
p37
sg7
L5L
sa(dp38
g4
I01
sg5
V__module__
p39
sg7
L5L
sa(dp40
g4
I01
sg5
V__ne__
p41
sg7
L5L
sa(dp42
g4
I01
sg5
V__new__
p43
sg7
L2L
sg16
VCreate and return a new object.  See help(type) for accurate signature.
p44
sa(dp45
g4
I01
sg5
V__reduce__
p46
sg7
L2L
sg16
Vhelper for pickle
p47
sa(dp48
g4
I01
sg5
V__reduce_ex__
p49
sg7
L2L
sg16
Vhelper for pickle
p50
sa(dp51
g4
I01
sg5
V__repr__
p52
sg7
L5L
sa(dp53
g4
I01
sg5
V__setattr__
p54
sg7
L5L
sa(dp55
g4
I01
sg5
V__sizeof__
p56
sg7
L2L
sg16
V__sizeof__() -> int\u000asize of object in memory, in bytes
p57
sa(dp58
g4
I01
sg5
V__str__
p59
sg7
L5L
sa(dp60
g4
I01
sg5
V__subclasshook__
p61
sg7
L2L
sg16
VAbstract classes can override this to customize issubclass().\u000a\u000aThis is invoked early on by abc.ABCMeta.__subclasscheck__().\u000aIt should return True, False or NotImplemented.  If it returns\u000aNotImplemented, the normal algorithm is used.  Otherwise, it\u000aoverrides the normal algorithm (and the outcome is cached).\u000a
p62
sa(dp63
g4
I01
sg5
V__weakref__
p64
sg7
L5L
sa(dp65
g4
I01
sg5
Vcreate_module
p66
sg7
L5L
sa(dp67
g4
I01
sg5
Vexec_module
p68
sg7
L5L
sa(dp69
g4
I01
sg5
Vfind_module
p70
sg7
L5L
sa(dp71
g4
I01
sg5
Vfind_spec
p72
sg7
L5L
sa(dp73
g4
I01
sg5
Vget_code
p74
sg7
L5L
sa(dp75
g4
I01
sg5
Vget_source
p76
sg7
L5L
sa(dp77
g4
I01
sg5
Vis_package
p78
sg7
L5L
sa(dp79
g4
I01
sg5
Vload_module
p80
sg7
L5L
sa(dp81
g4
I01
sg5
Vmodule_repr
p82
sg7
L5L
sasg4
I01
sg5
V__loader__
p83
sg7
L3L
sg16
VMeta path import for built-in modules.\u000a\u000a    All methods are either class or static methods to avoid the need to\u000a    instantiate the class.\u000a\u000a    
p84
sa(dp85
g4
I01
sg5
V__name__
p86
sg7
L5L
sa(dp87
g4
I01
sg5
V__package__
p88
sg7
L5L
sa(dp89
g4
I01
sg5
V__spec__
p90
sg7
L5L
sa(dp91
g1
(lp92
(dp93
g4
I01
sg5
V__call__
p94
sg7
L5L
sa(dp95
g4
I01
sg5
V__copy__
p96
sg7
L2L
sg16
Nsa(dp97
g4
I01
sg5
V__deepcopy__
p98
sg7
L2L
sg16
Nsa(dp99
g4
I01
sg5
g11
sg7
L5L
sa(dp100
g4
I01
sg5
g13
sg7
L5L
sa(dp101
g4
I01
sg5
g15
sg7
L2L
sg16
V__dir__() -> list\u000adefault dir() implementation
p102
sa(dp103
g4
I01
sg5
g6
sg7
L5L
sa(dp104
g4
I01
sg5
g20
sg7
L5L
sa(dp105
g4
I01
sg5
g22
sg7
L2L
sg16
Vdefault object formatter
p106
sa(dp107
g4
I01
sg5
g25
sg7
L5L
sa(dp108
g4
I01
sg5
V__get__
p109
sg7
L5L
sa(dp110
g4
I01
sg5
g27
sg7
L5L
sa(dp111
g4
I01
sg5
g29
sg7
L5L
sa(dp112
g4
I01
sg5
g31
sg7
L5L
sa(dp113
g4
I01
sg5
g33
sg7
L5L
sa(dp114
g4
I01
sg5
g35
sg7
L5L
sa(dp115
g4
I01
sg5
g37
sg7
L5L
sa(dp116
g4
I01
sg5
g41
sg7
L5L
sa(dp117
g4
I01
sg5
g43
sg7
L2L
sg16
VCreate and return a new object.  See help(type) for accurate signature.
p118
sa(dp119
g4
I01
sg5
g46
sg7
L2L
sg16
Nsa(dp120
g4
I01
sg5
g49
sg7
L2L
sg16
Vhelper for pickle
p121
sa(dp122
g4
I01
sg5
g52
sg7
L5L
sa(dp123
g4
I01
sg5
g54
sg7
L5L
sa(dp124
g4
I01
sg5
g56
sg7
L2L
sg16
V__sizeof__() -> int\u000asize of object in memory, in bytes
p125
sa(dp126
g4
I01
sg5
g59
sg7
L5L
sa(dp127
g4
I01
sg5
g61
sg7
L2L
sg16
VAbstract classes can override this to customize issubclass().\u000a\u000aThis is invoked early on by abc.ABCMeta.__subclasscheck__().\u000aIt should return True, False or NotImplemented.  If it returns\u000aNotImplemented, the normal algorithm is used.  Otherwise, it\u000aoverrides the normal algorithm (and the outcome is cached).\u000a
p128
sa(dp129
g4
I01
sg5
Vcache_clear
p130
sg7
L2L
sg16
Nsa(dp131
g4
I01
sg5
Vcache_info
p132
sg7
L2L
sg16
Nsasg4
I01
sg5
V_lru_cache_wrapper
p133
sg7
L3L
sg16
VCreate a cached callable that wraps another function.\u000a\u000auser_function:      the function being cached\u000a\u000amaxsize:  0         for no caching\u000a          None      for unlimited cache size\u000a          n         for a bounded cache\u000a\u000atyped:    False     cache f(3) and f(3.0) as identical calls\u000a          True      cache f(3) and f(3.0) as distinct calls\u000a\u000acache_info_type:    namedtuple class with the fields:\u000a                        hits misses currsize maxsize\u000a
p134
sa(dp135
g4
I01
sg5
Vcmp_to_key
p136
sg7
L2L
sg16
VConvert a cmp= function into a key= function.
p137
sa(dp138
g1
(lp139
(dp140
g4
I01
sg5
g94
sg7
L5L
sa(dp141
g4
I01
sg5
g11
sg7
L5L
sa(dp142
g4
I01
sg5
g13
sg7
L5L
sa(dp143
g4
I01
sg5
g15
sg7
L2L
sg16
V__dir__() -> list\u000adefault dir() implementation
p144
sa(dp145
g4
I01
sg5
g6
sg7
L5L
sa(dp146
g4
I01
sg5
g20
sg7
L5L
sa(dp147
g4
I01
sg5
g22
sg7
L2L
sg16
Vdefault object formatter
p148
sa(dp149
g4
I01
sg5
g25
sg7
L5L
sa(dp150
g4
I01
sg5
g27
sg7
L5L
sa(dp151
g4
I01
sg5
g29
sg7
L5L
sa(dp152
g4
I01
sg5
g31
sg7
L5L
sa(dp153
g4
I01
sg5
g33
sg7
L5L
sa(dp154
g4
I01
sg5
g35
sg7
L5L
sa(dp155
g4
I01
sg5
g37
sg7
L5L
sa(dp156
g4
I01
sg5
g41
sg7
L5L
sa(dp157
g4
I01
sg5
g43
sg7
L2L
sg16
VCreate and return a new object.  See help(type) for accurate signature.
p158
sa(dp159
g4
I01
sg5
g46
sg7
L2L
sg16
Nsa(dp160
g4
I01
sg5
g49
sg7
L2L
sg16
Vhelper for pickle
p161
sa(dp162
g4
I01
sg5
g52
sg7
L5L
sa(dp163
g4
I01
sg5
g54
sg7
L5L
sa(dp164
g4
I01
sg5
V__setstate__
p165
sg7
L2L
sg16
Nsa(dp166
g4
I01
sg5
g56
sg7
L2L
sg16
V__sizeof__() -> int\u000asize of object in memory, in bytes
p167
sa(dp168
g4
I01
sg5
g59
sg7
L5L
sa(dp169
g4
I01
sg5
g61
sg7
L2L
sg16
VAbstract classes can override this to customize issubclass().\u000a\u000aThis is invoked early on by abc.ABCMeta.__subclasscheck__().\u000aIt should return True, False or NotImplemented.  If it returns\u000aNotImplemented, the normal algorithm is used.  Otherwise, it\u000aoverrides the normal algorithm (and the outcome is cached).\u000a
p170
sa(dp171
g4
I01
sg5
Vargs
p172
sg7
L5L
sa(dp173
g4
I01
sg5
Vfunc
p174
sg7
L5L
sa(dp175
g4
I01
sg5
Vkeywords
p176
sg7
L5L
sasg4
I01
sg5
Vpartial
p177
sg7
L3L
sg16
Vpartial(func, *args, **keywords) - new function with partial application\u000a    of the given arguments and keywords.\u000a
p178
sa(dp179
g4
I01
sg5
Vreduce
p180
sg7
L2L
sg16
Vreduce(function, sequence[, initial]) -> value\u000a\u000aApply a function of two arguments cumulatively to the items of a sequence,\u000afrom left to right, so as to reduce the sequence to a single value.\u000aFor example, reduce(lambda x, y: x+y, [1, 2, 3, 4, 5]) calculates\u000a((((1+2)+3)+4)+5).  If initial is present, it is placed before the items\u000aof the sequence in the calculation, and serves as a default when the\u000asequence is empty.
p181
sasg4
I01
sg5
V_functools
p182
sg16
VTools that operate on functions.
p183
s.