(dp0
Vchilds
p1
(lp2
(dp3
Vis_builtin
p4
I01
sVname
p5
V__doc__
p6
sVtype
p7
L5L
sa(dp8
g1
(lp9
(dp10
g4
I01
sg5
V__delattr__
p11
sg7
L5L
sa(dp12
g4
I01
sg5
V__dict__
p13
sg7
L5L
sa(dp14
g4
I01
sg5
V__dir__
p15
sg7
L2L
sVdoc
p16
V__dir__() -> list\u000adefault dir() implementation
p17
sa(dp18
g4
I01
sg5
g6
sg7
L5L
sa(dp19
g4
I01
sg5
V__eq__
p20
sg7
L5L
sa(dp21
g4
I01
sg5
V__format__
p22
sg7
L2L
sg16
Vdefault object formatter
p23
sa(dp24
g4
I01
sg5
V__ge__
p25
sg7
L5L
sa(dp26
g4
I01
sg5
V__getattribute__
p27
sg7
L5L
sa(dp28
g4
I01
sg5
V__gt__
p29
sg7
L5L
sa(dp30
g4
I01
sg5
V__hash__
p31
sg7
L5L
sa(dp32
g4
I01
sg5
V__init__
p33
sg7
L5L
sa(dp34
g4
I01
sg5
V__le__
p35
sg7
L5L
sa(dp36
g4
I01
sg5
V__lt__
p37
sg7
L5L
sa(dp38
g4
I01
sg5
V__module__
p39
sg7
L5L
sa(dp40
g4
I01
sg5
V__ne__
p41
sg7
L5L
sa(dp42
g4
I01
sg5
V__new__
p43
sg7
L2L
sg16
VCreate and return a new object.  See help(type) for accurate signature.
p44
sa(dp45
g4
I01
sg5
V__reduce__
p46
sg7
L2L
sg16
Vhelper for pickle
p47
sa(dp48
g4
I01
sg5
V__reduce_ex__
p49
sg7
L2L
sg16
Vhelper for pickle
p50
sa(dp51
g4
I01
sg5
V__repr__
p52
sg7
L5L
sa(dp53
g4
I01
sg5
V__setattr__
p54
sg7
L5L
sa(dp55
g4
I01
sg5
V__sizeof__
p56
sg7
L2L
sg16
V__sizeof__() -> int\u000asize of object in memory, in bytes
p57
sa(dp58
g4
I01
sg5
V__str__
p59
sg7
L5L
sa(dp60
g4
I01
sg5
V__subclasshook__
p61
sg7
L2L
sg16
VAbstract classes can override this to customize issubclass().\u000a\u000aThis is invoked early on by abc.ABCMeta.__subclasscheck__().\u000aIt should return True, False or NotImplemented.  If it returns\u000aNotImplemented, the normal algorithm is used.  Otherwise, it\u000aoverrides the normal algorithm (and the outcome is cached).\u000a
p62
sa(dp63
g4
I01
sg5
V__weakref__
p64
sg7
L5L
sa(dp65
g4
I01
sg5
Vcreate_module
p66
sg7
L5L
sa(dp67
g4
I01
sg5
Vexec_module
p68
sg7
L5L
sa(dp69
g4
I01
sg5
Vfind_module
p70
sg7
L5L
sa(dp71
g4
I01
sg5
Vfind_spec
p72
sg7
L5L
sa(dp73
g4
I01
sg5
Vget_code
p74
sg7
L5L
sa(dp75
g4
I01
sg5
Vget_source
p76
sg7
L5L
sa(dp77
g4
I01
sg5
Vis_package
p78
sg7
L5L
sa(dp79
g4
I01
sg5
Vload_module
p80
sg7
L5L
sa(dp81
g4
I01
sg5
Vmodule_repr
p82
sg7
L5L
sasg4
I01
sg5
V__loader__
p83
sg7
L3L
sg16
VMeta path import for built-in modules.\u000a\u000a    All methods are either class or static methods to avoid the need to\u000a    instantiate the class.\u000a\u000a    
p84
sa(dp85
g4
I01
sg5
V__name__
p86
sg7
L5L
sa(dp87
g4
I01
sg5
V__package__
p88
sg7
L5L
sa(dp89
g4
I01
sg5
V__spec__
p90
sg7
L5L
sa(dp91
g4
I01
sg5
V_fix_co_filename
p92
sg7
L2L
sg16
VChanges code.co_filename to specify the passed-in file path.\u000a\u000a  code\u000a    Code object to change.\u000a  path\u000a    File path to use.
p93
sa(dp94
g4
I01
sg5
Vacquire_lock
p95
sg7
L2L
sg16
VAcquires the interpreter's import lock for the current thread.\u000a\u000aThis lock should be used by import hooks to ensure thread-safety when importing\u000amodules. On platforms without threads, this function does nothing.
p96
sa(dp97
g4
I01
sg5
Vcreate_builtin
p98
sg7
L2L
sg16
VCreate an extension module.
p99
sa(dp100
g4
I01
sg5
Vcreate_dynamic
p101
sg7
L2L
sg16
VCreate an extension module.
p102
sa(dp103
g4
I01
sg5
Vexec_builtin
p104
sg7
L2L
sg16
VInitialize a built-in module.
p105
sa(dp106
g4
I01
sg5
Vexec_dynamic
p107
sg7
L2L
sg16
VInitialize an extension module.
p108
sa(dp109
g4
I01
sg5
Vextension_suffixes
p110
sg7
L2L
sg16
VReturns the list of file suffixes used to identify extension modules.
p111
sa(dp112
g4
I01
sg5
Vget_frozen_object
p113
sg7
L2L
sg16
VCreate a code object for a frozen module.
p114
sa(dp115
g4
I01
sg5
Vinit_frozen
p116
sg7
L2L
sg16
VInitializes a frozen module.
p117
sa(dp118
g4
I01
sg5
g4
sg7
L2L
sg16
VReturns True if the module name corresponds to a built-in module.
p119
sa(dp120
g4
I01
sg5
Vis_frozen
p121
sg7
L2L
sg16
VReturns True if the module name corresponds to a frozen module.
p122
sa(dp123
g4
I01
sg5
Vis_frozen_package
p124
sg7
L2L
sg16
VReturns True if the module name is of a frozen package.
p125
sa(dp126
g4
I01
sg5
Vlock_held
p127
sg7
L2L
sg16
VReturn True if the import lock is currently held, else False.\u000a\u000aOn platforms without threads, return False.
p128
sa(dp129
g4
I01
sg5
Vrelease_lock
p130
sg7
L2L
sg16
VRelease the interpreter's import lock.\u000a\u000aOn platforms without threads, this function does nothing.
p131
sasg4
I01
sg5
V_imp
p132
sg16
V(Extremely) low-level import machinery bits as used by importlib and imp.
p133
s.