(dp0
Vchilds
p1
(lp2
(dp3
Vis_builtin
p4
I01
sVname
p5
VABDAY_1
p6
sVtype
p7
L5L
sa(dp8
g4
I01
sg5
VABDAY_2
p9
sg7
L5L
sa(dp10
g4
I01
sg5
VABDAY_3
p11
sg7
L5L
sa(dp12
g4
I01
sg5
VABDAY_4
p13
sg7
L5L
sa(dp14
g4
I01
sg5
VABDAY_5
p15
sg7
L5L
sa(dp16
g4
I01
sg5
VABDAY_6
p17
sg7
L5L
sa(dp18
g4
I01
sg5
VABDAY_7
p19
sg7
L5L
sa(dp20
g4
I01
sg5
VABMON_1
p21
sg7
L5L
sa(dp22
g4
I01
sg5
VABMON_10
p23
sg7
L5L
sa(dp24
g4
I01
sg5
VABMON_11
p25
sg7
L5L
sa(dp26
g4
I01
sg5
VABMON_12
p27
sg7
L5L
sa(dp28
g4
I01
sg5
VABMON_2
p29
sg7
L5L
sa(dp30
g4
I01
sg5
VABMON_3
p31
sg7
L5L
sa(dp32
g4
I01
sg5
VABMON_4
p33
sg7
L5L
sa(dp34
g4
I01
sg5
VABMON_5
p35
sg7
L5L
sa(dp36
g4
I01
sg5
VABMON_6
p37
sg7
L5L
sa(dp38
g4
I01
sg5
VABMON_7
p39
sg7
L5L
sa(dp40
g4
I01
sg5
VABMON_8
p41
sg7
L5L
sa(dp42
g4
I01
sg5
VABMON_9
p43
sg7
L5L
sa(dp44
g4
I01
sg5
VALT_DIGITS
p45
sg7
L5L
sa(dp46
g4
I01
sg5
VAM_STR
p47
sg7
L5L
sa(dp48
g4
I01
sg5
VCHAR_MAX
p49
sg7
L5L
sa(dp50
g4
I01
sg5
VCODESET
p51
sg7
L5L
sa(dp52
g4
I01
sg5
VCRNCYSTR
p53
sg7
L5L
sa(dp54
g4
I01
sg5
VDAY_1
p55
sg7
L5L
sa(dp56
g4
I01
sg5
VDAY_2
p57
sg7
L5L
sa(dp58
g4
I01
sg5
VDAY_3
p59
sg7
L5L
sa(dp60
g4
I01
sg5
VDAY_4
p61
sg7
L5L
sa(dp62
g4
I01
sg5
VDAY_5
p63
sg7
L5L
sa(dp64
g4
I01
sg5
VDAY_6
p65
sg7
L5L
sa(dp66
g4
I01
sg5
VDAY_7
p67
sg7
L5L
sa(dp68
g4
I01
sg5
VD_FMT
p69
sg7
L5L
sa(dp70
g4
I01
sg5
VD_T_FMT
p71
sg7
L5L
sa(dp72
g4
I01
sg5
VERA
p73
sg7
L5L
sa(dp74
g4
I01
sg5
VERA_D_FMT
p75
sg7
L5L
sa(dp76
g4
I01
sg5
VERA_D_T_FMT
p77
sg7
L5L
sa(dp78
g4
I01
sg5
VERA_T_FMT
p79
sg7
L5L
sa(dp80
g1
(lp81
(dp82
g4
I01
sg5
V__cause__
p83
sg7
L5L
sa(dp84
g4
I01
sg5
V__context__
p85
sg7
L5L
sa(dp86
g4
I01
sg5
V__delattr__
p87
sg7
L5L
sa(dp88
g4
I01
sg5
V__dict__
p89
sg7
L5L
sa(dp90
g4
I01
sg5
V__dir__
p91
sg7
L2L
sVdoc
p92
V__dir__() -> list\u000adefault dir() implementation
p93
sa(dp94
g4
I01
sg5
V__doc__
p95
sg7
L5L
sa(dp96
g4
I01
sg5
V__eq__
p97
sg7
L5L
sa(dp98
g4
I01
sg5
V__format__
p99
sg7
L2L
sg92
Vdefault object formatter
p100
sa(dp101
g4
I01
sg5
V__ge__
p102
sg7
L5L
sa(dp103
g4
I01
sg5
V__getattribute__
p104
sg7
L5L
sa(dp105
g4
I01
sg5
V__gt__
p106
sg7
L5L
sa(dp107
g4
I01
sg5
V__hash__
p108
sg7
L5L
sa(dp109
g4
I01
sg5
V__init__
p110
sg7
L5L
sa(dp111
g4
I01
sg5
V__le__
p112
sg7
L5L
sa(dp113
g4
I01
sg5
V__lt__
p114
sg7
L5L
sa(dp115
g4
I01
sg5
V__module__
p116
sg7
L5L
sa(dp117
g4
I01
sg5
V__ne__
p118
sg7
L5L
sa(dp119
g4
I01
sg5
V__new__
p120
sg7
L2L
sg92
VCreate and return a new object.  See help(type) for accurate signature.
p121
sa(dp122
g4
I01
sg5
V__reduce__
p123
sg7
L2L
sg92
Nsa(dp124
g4
I01
sg5
V__reduce_ex__
p125
sg7
L2L
sg92
Vhelper for pickle
p126
sa(dp127
g4
I01
sg5
V__repr__
p128
sg7
L5L
sa(dp129
g4
I01
sg5
V__setattr__
p130
sg7
L5L
sa(dp131
g4
I01
sg5
V__setstate__
p132
sg7
L2L
sg92
Nsa(dp133
g4
I01
sg5
V__sizeof__
p134
sg7
L2L
sg92
V__sizeof__() -> int\u000asize of object in memory, in bytes
p135
sa(dp136
g4
I01
sg5
V__str__
p137
sg7
L5L
sa(dp138
g4
I01
sg5
V__subclasshook__
p139
sg7
L2L
sg92
VAbstract classes can override this to customize issubclass().\u000a\u000aThis is invoked early on by abc.ABCMeta.__subclasscheck__().\u000aIt should return True, False or NotImplemented.  If it returns\u000aNotImplemented, the normal algorithm is used.  Otherwise, it\u000aoverrides the normal algorithm (and the outcome is cached).\u000a
p140
sa(dp141
g4
I01
sg5
V__suppress_context__
p142
sg7
L5L
sa(dp143
g4
I01
sg5
V__traceback__
p144
sg7
L5L
sa(dp145
g4
I01
sg5
V__weakref__
p146
sg7
L5L
sa(dp147
g4
I01
sg5
Vargs
p148
sg7
L5L
sa(dp149
g4
I01
sg5
Vwith_traceback
p150
sg7
L2L
sg92
VException.with_traceback(tb) --\u000a    set self.__traceback__ to tb and return self.
p151
sasg4
I01
sg5
VError
p152
sg7
L3L
sg92
Nsa(dp153
g4
I01
sg5
VLC_ALL
p154
sg7
L5L
sa(dp155
g4
I01
sg5
VLC_COLLATE
p156
sg7
L5L
sa(dp157
g4
I01
sg5
VLC_CTYPE
p158
sg7
L5L
sa(dp159
g4
I01
sg5
VLC_MESSAGES
p160
sg7
L5L
sa(dp161
g4
I01
sg5
VLC_MONETARY
p162
sg7
L5L
sa(dp163
g4
I01
sg5
VLC_NUMERIC
p164
sg7
L5L
sa(dp165
g4
I01
sg5
VLC_TIME
p166
sg7
L5L
sa(dp167
g4
I01
sg5
VMON_1
p168
sg7
L5L
sa(dp169
g4
I01
sg5
VMON_10
p170
sg7
L5L
sa(dp171
g4
I01
sg5
VMON_11
p172
sg7
L5L
sa(dp173
g4
I01
sg5
VMON_12
p174
sg7
L5L
sa(dp175
g4
I01
sg5
VMON_2
p176
sg7
L5L
sa(dp177
g4
I01
sg5
VMON_3
p178
sg7
L5L
sa(dp179
g4
I01
sg5
VMON_4
p180
sg7
L5L
sa(dp181
g4
I01
sg5
VMON_5
p182
sg7
L5L
sa(dp183
g4
I01
sg5
VMON_6
p184
sg7
L5L
sa(dp185
g4
I01
sg5
VMON_7
p186
sg7
L5L
sa(dp187
g4
I01
sg5
VMON_8
p188
sg7
L5L
sa(dp189
g4
I01
sg5
VMON_9
p190
sg7
L5L
sa(dp191
g4
I01
sg5
VNOEXPR
p192
sg7
L5L
sa(dp193
g4
I01
sg5
VPM_STR
p194
sg7
L5L
sa(dp195
g4
I01
sg5
VRADIXCHAR
p196
sg7
L5L
sa(dp197
g4
I01
sg5
VTHOUSEP
p198
sg7
L5L
sa(dp199
g4
I01
sg5
VT_FMT
p200
sg7
L5L
sa(dp201
g4
I01
sg5
VT_FMT_AMPM
p202
sg7
L5L
sa(dp203
g4
I01
sg5
VYESEXPR
p204
sg7
L5L
sa(dp205
g4
I01
sg5
V_DATE_FMT
p206
sg7
L5L
sa(dp207
g4
I01
sg5
g95
sg7
L5L
sa(dp208
g1
(lp209
(dp210
g4
I01
sg5
g87
sg7
L5L
sa(dp211
g4
I01
sg5
g89
sg7
L5L
sa(dp212
g4
I01
sg5
g91
sg7
L2L
sg92
V__dir__() -> list\u000adefault dir() implementation
p213
sa(dp214
g4
I01
sg5
g95
sg7
L5L
sa(dp215
g4
I01
sg5
g97
sg7
L5L
sa(dp216
g4
I01
sg5
g99
sg7
L2L
sg92
Vdefault object formatter
p217
sa(dp218
g4
I01
sg5
g102
sg7
L5L
sa(dp219
g4
I01
sg5
g104
sg7
L5L
sa(dp220
g4
I01
sg5
g106
sg7
L5L
sa(dp221
g4
I01
sg5
g108
sg7
L5L
sa(dp222
g4
I01
sg5
g110
sg7
L5L
sa(dp223
g4
I01
sg5
g112
sg7
L5L
sa(dp224
g4
I01
sg5
g114
sg7
L5L
sa(dp225
g4
I01
sg5
g116
sg7
L5L
sa(dp226
g4
I01
sg5
g118
sg7
L5L
sa(dp227
g4
I01
sg5
g120
sg7
L2L
sg92
VCreate and return a new object.  See help(type) for accurate signature.
p228
sa(dp229
g4
I01
sg5
g123
sg7
L2L
sg92
Vhelper for pickle
p230
sa(dp231
g4
I01
sg5
g125
sg7
L2L
sg92
Vhelper for pickle
p232
sa(dp233
g4
I01
sg5
g128
sg7
L5L
sa(dp234
g4
I01
sg5
g130
sg7
L5L
sa(dp235
g4
I01
sg5
g134
sg7
L2L
sg92
V__sizeof__() -> int\u000asize of object in memory, in bytes
p236
sa(dp237
g4
I01
sg5
g137
sg7
L5L
sa(dp238
g4
I01
sg5
g139
sg7
L2L
sg92
VAbstract classes can override this to customize issubclass().\u000a\u000aThis is invoked early on by abc.ABCMeta.__subclasscheck__().\u000aIt should return True, False or NotImplemented.  If it returns\u000aNotImplemented, the normal algorithm is used.  Otherwise, it\u000aoverrides the normal algorithm (and the outcome is cached).\u000a
p239
sa(dp240
g4
I01
sg5
g146
sg7
L5L
sa(dp241
g4
I01
sg5
Vcreate_module
p242
sg7
L5L
sa(dp243
g4
I01
sg5
Vexec_module
p244
sg7
L5L
sa(dp245
g4
I01
sg5
Vfind_module
p246
sg7
L5L
sa(dp247
g4
I01
sg5
Vfind_spec
p248
sg7
L5L
sa(dp249
g4
I01
sg5
Vget_code
p250
sg7
L5L
sa(dp251
g4
I01
sg5
Vget_source
p252
sg7
L5L
sa(dp253
g4
I01
sg5
Vis_package
p254
sg7
L5L
sa(dp255
g4
I01
sg5
Vload_module
p256
sg7
L5L
sa(dp257
g4
I01
sg5
Vmodule_repr
p258
sg7
L5L
sasg4
I01
sg5
V__loader__
p259
sg7
L3L
sg92
VMeta path import for built-in modules.\u000a\u000a    All methods are either class or static methods to avoid the need to\u000a    instantiate the class.\u000a\u000a    
p260
sa(dp261
g4
I01
sg5
V__name__
p262
sg7
L5L
sa(dp263
g4
I01
sg5
V__package__
p264
sg7
L5L
sa(dp265
g4
I01
sg5
V__spec__
p266
sg7
L5L
sa(dp267
g4
I01
sg5
Vbind_textdomain_codeset
p268
sg7
L2L
sg92
Vbind_textdomain_codeset(domain, codeset) -> string\u000aBind the C library's domain to codeset.
p269
sa(dp270
g4
I01
sg5
Vbindtextdomain
p271
sg7
L2L
sg92
Vbindtextdomain(domain, dir) -> string\u000aBind the C library's domain to dir.
p272
sa(dp273
g4
I01
sg5
Vdcgettext
p274
sg7
L2L
sg92
Vdcgettext(domain, msg, category) -> string\u000aReturn translation of msg in domain and category.
p275
sa(dp276
g4
I01
sg5
Vdgettext
p277
sg7
L2L
sg92
Vdgettext(domain, msg) -> string\u000aReturn translation of msg in domain.
p278
sa(dp279
g4
I01
sg5
Vgettext
p280
sg7
L2L
sg92
Vgettext(msg) -> string\u000aReturn translation of msg.
p281
sa(dp282
g4
I01
sg5
Vlocaleconv
p283
sg7
L2L
sg92
V() -> dict. Returns numeric and monetary locale-specific parameters.
p284
sa(dp285
g4
I01
sg5
Vnl_langinfo
p286
sg7
L2L
sg92
Vnl_langinfo(key) -> string\u000aReturn the value for the locale information associated with key.
p287
sa(dp288
g4
I01
sg5
Vsetlocale
p289
sg7
L2L
sg92
V(integer,string=None) -> string. Activates/queries locale processing.
p290
sa(dp291
g4
I01
sg5
Vstrcoll
p292
sg7
L2L
sg92
Vstring,string -> int. Compares two strings according to the locale.
p293
sa(dp294
g4
I01
sg5
Vstrxfrm
p295
sg7
L2L
sg92
Vstrxfrm(string) -> string.\u000a\u000aReturn a string that can be used as a key for locale-aware comparisons.
p296
sa(dp297
g4
I01
sg5
Vtextdomain
p298
sg7
L2L
sg92
Vtextdomain(domain) -> string\u000aSet the C library's textdmain to domain, returning the new domain.
p299
sasg4
I01
sg5
V_locale
p300
sg92
VSupport for POSIX locales.
p301
s.