(dp0
Vchilds
p1
(lp2
(dp3
g1
(lp4
(dp5
Vis_builtin
p6
I01
sVname
p7
V__delattr__
p8
sVtype
p9
L5L
sa(dp10
g6
I01
sg7
V__dir__
p11
sg9
L2L
sVdoc
p12
V__dir__() -> list\u000adefault dir() implementation
p13
sa(dp14
g6
I01
sg7
V__doc__
p15
sg9
L5L
sa(dp16
g6
I01
sg7
V__eq__
p17
sg9
L5L
sa(dp18
g6
I01
sg7
V__format__
p19
sg9
L2L
sg12
Vdefault object formatter
p20
sa(dp21
g6
I01
sg7
V__ge__
p22
sg9
L5L
sa(dp23
g6
I01
sg7
V__getattribute__
p24
sg9
L5L
sa(dp25
g6
I01
sg7
V__gt__
p26
sg9
L5L
sa(dp27
g6
I01
sg7
V__hash__
p28
sg9
L5L
sa(dp29
g6
I01
sg7
V__init__
p30
sg9
L5L
sa(dp31
g6
I01
sg7
V__le__
p32
sg9
L5L
sa(dp33
g6
I01
sg7
V__lt__
p34
sg9
L5L
sa(dp35
g6
I01
sg7
V__ne__
p36
sg9
L5L
sa(dp37
g6
I01
sg7
V__new__
p38
sg9
L2L
sg12
VCreate and return a new object.  See help(type) for accurate signature.
p39
sa(dp40
g6
I01
sg7
V__reduce__
p41
sg9
L2L
sg12
Vhelper for pickle
p42
sa(dp43
g6
I01
sg7
V__reduce_ex__
p44
sg9
L2L
sg12
Vhelper for pickle
p45
sa(dp46
g6
I01
sg7
V__repr__
p47
sg9
L5L
sa(dp48
g6
I01
sg7
V__setattr__
p49
sg9
L5L
sa(dp50
g6
I01
sg7
V__sizeof__
p51
sg9
L2L
sg12
V__sizeof__() -> int\u000asize of object in memory, in bytes
p52
sa(dp53
g6
I01
sg7
V__str__
p54
sg9
L5L
sa(dp55
g6
I01
sg7
V__subclasshook__
p56
sg9
L2L
sg12
VAbstract classes can override this to customize issubclass().\u000a\u000aThis is invoked early on by abc.ABCMeta.__subclasscheck__().\u000aIt should return True, False or NotImplemented.  If it returns\u000aNotImplemented, the normal algorithm is used.  Otherwise, it\u000aoverrides the normal algorithm (and the outcome is cached).\u000a
p57
sa(dp58
g6
I01
sg7
Vblock_size
p59
sg9
L5L
sa(dp60
g6
I01
sg7
Vcopy
p61
sg9
L2L
sg12
VReturn a copy of the hash object.
p62
sa(dp63
g6
I01
sg7
Vdigest
p64
sg9
L2L
sg12
VReturn the digest value as a string of binary data.
p65
sa(dp66
g6
I01
sg7
Vdigest_size
p67
sg9
L5L
sa(dp68
g6
I01
sg7
Vhexdigest
p69
sg9
L2L
sg12
VReturn the digest value as a string of hexadecimal digits.
p70
sa(dp71
g6
I01
sg7
g7
sg9
L5L
sa(dp72
g6
I01
sg7
Vupdate
p73
sg9
L2L
sg12
VUpdate this hash object's state with the provided string.
p74
sasg6
I01
sg7
VMD5Type
p75
sg9
L3L
sg12
Nsa(dp76
g6
I01
sg7
g15
sg9
L5L
sa(dp77
g1
(lp78
(dp79
g6
I01
sg7
g8
sg9
L5L
sa(dp80
g6
I01
sg7
V__dict__
p81
sg9
L5L
sa(dp82
g6
I01
sg7
g11
sg9
L2L
sg12
V__dir__() -> list\u000adefault dir() implementation
p83
sa(dp84
g6
I01
sg7
g15
sg9
L5L
sa(dp85
g6
I01
sg7
g17
sg9
L5L
sa(dp86
g6
I01
sg7
g19
sg9
L2L
sg12
Vdefault object formatter
p87
sa(dp88
g6
I01
sg7
g22
sg9
L5L
sa(dp89
g6
I01
sg7
g24
sg9
L5L
sa(dp90
g6
I01
sg7
g26
sg9
L5L
sa(dp91
g6
I01
sg7
g28
sg9
L5L
sa(dp92
g6
I01
sg7
g30
sg9
L5L
sa(dp93
g6
I01
sg7
g32
sg9
L5L
sa(dp94
g6
I01
sg7
g34
sg9
L5L
sa(dp95
g6
I01
sg7
V__module__
p96
sg9
L5L
sa(dp97
g6
I01
sg7
g36
sg9
L5L
sa(dp98
g6
I01
sg7
g38
sg9
L2L
sg12
VCreate and return a new object.  See help(type) for accurate signature.
p99
sa(dp100
g6
I01
sg7
g41
sg9
L2L
sg12
Vhelper for pickle
p101
sa(dp102
g6
I01
sg7
g44
sg9
L2L
sg12
Vhelper for pickle
p103
sa(dp104
g6
I01
sg7
g47
sg9
L5L
sa(dp105
g6
I01
sg7
g49
sg9
L5L
sa(dp106
g6
I01
sg7
g51
sg9
L2L
sg12
V__sizeof__() -> int\u000asize of object in memory, in bytes
p107
sa(dp108
g6
I01
sg7
g54
sg9
L5L
sa(dp109
g6
I01
sg7
g56
sg9
L2L
sg12
VAbstract classes can override this to customize issubclass().\u000a\u000aThis is invoked early on by abc.ABCMeta.__subclasscheck__().\u000aIt should return True, False or NotImplemented.  If it returns\u000aNotImplemented, the normal algorithm is used.  Otherwise, it\u000aoverrides the normal algorithm (and the outcome is cached).\u000a
p110
sa(dp111
g6
I01
sg7
V__weakref__
p112
sg9
L5L
sa(dp113
g6
I01
sg7
Vcreate_module
p114
sg9
L5L
sa(dp115
g6
I01
sg7
Vexec_module
p116
sg9
L5L
sa(dp117
g6
I01
sg7
Vfind_module
p118
sg9
L5L
sa(dp119
g6
I01
sg7
Vfind_spec
p120
sg9
L5L
sa(dp121
g6
I01
sg7
Vget_code
p122
sg9
L5L
sa(dp123
g6
I01
sg7
Vget_source
p124
sg9
L5L
sa(dp125
g6
I01
sg7
Vis_package
p126
sg9
L5L
sa(dp127
g6
I01
sg7
Vload_module
p128
sg9
L5L
sa(dp129
g6
I01
sg7
Vmodule_repr
p130
sg9
L5L
sasg6
I01
sg7
V__loader__
p131
sg9
L3L
sg12
VMeta path import for built-in modules.\u000a\u000a    All methods are either class or static methods to avoid the need to\u000a    instantiate the class.\u000a\u000a    
p132
sa(dp133
g6
I01
sg7
V__name__
p134
sg9
L5L
sa(dp135
g6
I01
sg7
V__package__
p136
sg9
L5L
sa(dp137
g6
I01
sg7
V__spec__
p138
sg9
L5L
sa(dp139
g6
I01
sg7
Vmd5
p140
sg9
L2L
sg12
VReturn a new MD5 hash object; optionally initialized with a string.
p141
sasg6
I01
sg7
V_md5
p142
sg12
Ns.