(dp0
Vchilds
p1
(lp2
(dp3
g1
(lp4
(dp5
Vis_builtin
p6
I01
sVname
p7
V__delattr__
p8
sVtype
p9
L5L
sa(dp10
g6
I01
sg7
V__dir__
p11
sg9
L2L
sVdoc
p12
V__dir__() -> list\u000adefault dir() implementation
p13
sa(dp14
g6
I01
sg7
V__doc__
p15
sg9
L5L
sa(dp16
g6
I01
sg7
V__eq__
p17
sg9
L5L
sa(dp18
g6
I01
sg7
V__format__
p19
sg9
L2L
sg12
Vdefault object formatter
p20
sa(dp21
g6
I01
sg7
V__ge__
p22
sg9
L5L
sa(dp23
g6
I01
sg7
V__getattribute__
p24
sg9
L5L
sa(dp25
g6
I01
sg7
V__gt__
p26
sg9
L5L
sa(dp27
g6
I01
sg7
V__hash__
p28
sg9
L5L
sa(dp29
g6
I01
sg7
V__init__
p30
sg9
L5L
sa(dp31
g6
I01
sg7
V__le__
p32
sg9
L5L
sa(dp33
g6
I01
sg7
V__lt__
p34
sg9
L5L
sa(dp35
g6
I01
sg7
V__ne__
p36
sg9
L5L
sa(dp37
g6
I01
sg7
V__new__
p38
sg9
L2L
sg12
VCreate and return a new object.  See help(type) for accurate signature.
p39
sa(dp40
g6
I01
sg7
V__reduce__
p41
sg9
L2L
sg12
Vhelper for pickle
p42
sa(dp43
g6
I01
sg7
V__reduce_ex__
p44
sg9
L2L
sg12
Vhelper for pickle
p45
sa(dp46
g6
I01
sg7
V__repr__
p47
sg9
L5L
sa(dp48
g6
I01
sg7
V__setattr__
p49
sg9
L5L
sa(dp50
g6
I01
sg7
V__sizeof__
p51
sg9
L2L
sg12
V__sizeof__() -> int\u000asize of object in memory, in bytes
p52
sa(dp53
g6
I01
sg7
V__str__
p54
sg9
L5L
sa(dp55
g6
I01
sg7
V__subclasshook__
p56
sg9
L2L
sg12
VAbstract classes can override this to customize issubclass().\u000a\u000aThis is invoked early on by abc.ABCMeta.__subclasscheck__().\u000aIt should return True, False or NotImplemented.  If it returns\u000aNotImplemented, the normal algorithm is used.  Otherwise, it\u000aoverrides the normal algorithm (and the outcome is cached).\u000a
p57
sa(dp58
g6
I01
sg7
Vgetrandbits
p59
sg9
L2L
sg12
Vgetrandbits(k) -> x.  Generates an int with k random bits.
p60
sa(dp61
g6
I01
sg7
Vgetstate
p62
sg9
L2L
sg12
Vgetstate() -> tuple containing the current state.
p63
sa(dp64
g6
I01
sg7
Vrandom
p65
sg9
L2L
sg12
Vrandom() -> x in the interval [0, 1).
p66
sa(dp67
g6
I01
sg7
Vseed
p68
sg9
L2L
sg12
Vseed([n]) -> None.  Defaults to current time.
p69
sa(dp70
g6
I01
sg7
Vsetstate
p71
sg9
L2L
sg12
Vsetstate(state) -> None.  Restores generator state.
p72
sasg6
I01
sg7
VRandom
p73
sg9
L3L
sg12
VRandom() -> create a random number generator with its own internal state.
p74
sa(dp75
g6
I01
sg7
g15
sg9
L5L
sa(dp76
g1
(lp77
(dp78
g6
I01
sg7
g8
sg9
L5L
sa(dp79
g6
I01
sg7
V__dict__
p80
sg9
L5L
sa(dp81
g6
I01
sg7
g11
sg9
L2L
sg12
V__dir__() -> list\u000adefault dir() implementation
p82
sa(dp83
g6
I01
sg7
g15
sg9
L5L
sa(dp84
g6
I01
sg7
g17
sg9
L5L
sa(dp85
g6
I01
sg7
g19
sg9
L2L
sg12
Vdefault object formatter
p86
sa(dp87
g6
I01
sg7
g22
sg9
L5L
sa(dp88
g6
I01
sg7
g24
sg9
L5L
sa(dp89
g6
I01
sg7
g26
sg9
L5L
sa(dp90
g6
I01
sg7
g28
sg9
L5L
sa(dp91
g6
I01
sg7
g30
sg9
L5L
sa(dp92
g6
I01
sg7
g32
sg9
L5L
sa(dp93
g6
I01
sg7
g34
sg9
L5L
sa(dp94
g6
I01
sg7
V__module__
p95
sg9
L5L
sa(dp96
g6
I01
sg7
g36
sg9
L5L
sa(dp97
g6
I01
sg7
g38
sg9
L2L
sg12
VCreate and return a new object.  See help(type) for accurate signature.
p98
sa(dp99
g6
I01
sg7
g41
sg9
L2L
sg12
Vhelper for pickle
p100
sa(dp101
g6
I01
sg7
g44
sg9
L2L
sg12
Vhelper for pickle
p102
sa(dp103
g6
I01
sg7
g47
sg9
L5L
sa(dp104
g6
I01
sg7
g49
sg9
L5L
sa(dp105
g6
I01
sg7
g51
sg9
L2L
sg12
V__sizeof__() -> int\u000asize of object in memory, in bytes
p106
sa(dp107
g6
I01
sg7
g54
sg9
L5L
sa(dp108
g6
I01
sg7
g56
sg9
L2L
sg12
VAbstract classes can override this to customize issubclass().\u000a\u000aThis is invoked early on by abc.ABCMeta.__subclasscheck__().\u000aIt should return True, False or NotImplemented.  If it returns\u000aNotImplemented, the normal algorithm is used.  Otherwise, it\u000aoverrides the normal algorithm (and the outcome is cached).\u000a
p109
sa(dp110
g6
I01
sg7
V__weakref__
p111
sg9
L5L
sa(dp112
g6
I01
sg7
Vcreate_module
p113
sg9
L5L
sa(dp114
g6
I01
sg7
Vexec_module
p115
sg9
L5L
sa(dp116
g6
I01
sg7
Vfind_module
p117
sg9
L5L
sa(dp118
g6
I01
sg7
Vfind_spec
p119
sg9
L5L
sa(dp120
g6
I01
sg7
Vget_code
p121
sg9
L5L
sa(dp122
g6
I01
sg7
Vget_source
p123
sg9
L5L
sa(dp124
g6
I01
sg7
Vis_package
p125
sg9
L5L
sa(dp126
g6
I01
sg7
Vload_module
p127
sg9
L5L
sa(dp128
g6
I01
sg7
Vmodule_repr
p129
sg9
L5L
sasg6
I01
sg7
V__loader__
p130
sg9
L3L
sg12
VMeta path import for built-in modules.\u000a\u000a    All methods are either class or static methods to avoid the need to\u000a    instantiate the class.\u000a\u000a    
p131
sa(dp132
g6
I01
sg7
V__name__
p133
sg9
L5L
sa(dp134
g6
I01
sg7
V__package__
p135
sg9
L5L
sa(dp136
g6
I01
sg7
V__spec__
p137
sg9
L5L
sasg6
I01
sg7
V_random
p138
sg12
VModule implements the Mersenne Twister random number generator.
p139
s.