(dp0
Vchilds
p1
(lp2
(dp3
g1
(lp4
(dp5
Vis_builtin
p6
I01
sVname
p7
V__delattr__
p8
sVtype
p9
L5L
sa(dp10
g6
I01
sg7
V__dir__
p11
sg9
L2L
sVdoc
p12
V__dir__() -> list\u000adefault dir() implementation
p13
sa(dp14
g6
I01
sg7
V__doc__
p15
sg9
L5L
sa(dp16
g6
I01
sg7
V__eq__
p17
sg9
L5L
sa(dp18
g6
I01
sg7
V__format__
p19
sg9
L2L
sg12
Vdefault object formatter
p20
sa(dp21
g6
I01
sg7
V__ge__
p22
sg9
L5L
sa(dp23
g6
I01
sg7
V__getattribute__
p24
sg9
L5L
sa(dp25
g6
I01
sg7
V__gt__
p26
sg9
L5L
sa(dp27
g6
I01
sg7
V__hash__
p28
sg9
L5L
sa(dp29
g6
I01
sg7
V__init__
p30
sg9
L5L
sa(dp31
g6
I01
sg7
V__le__
p32
sg9
L5L
sa(dp33
g6
I01
sg7
V__lt__
p34
sg9
L5L
sa(dp35
g6
I01
sg7
V__ne__
p36
sg9
L5L
sa(dp37
g6
I01
sg7
V__new__
p38
sg9
L2L
sg12
VCreate and return a new object.  See help(type) for accurate signature.
p39
sa(dp40
g6
I01
sg7
V__reduce__
p41
sg9
L2L
sg12
Vhelper for pickle
p42
sa(dp43
g6
I01
sg7
V__reduce_ex__
p44
sg9
L2L
sg12
Vhelper for pickle
p45
sa(dp46
g6
I01
sg7
V__repr__
p47
sg9
L5L
sa(dp48
g6
I01
sg7
V__setattr__
p49
sg9
L5L
sa(dp50
g6
I01
sg7
V__sizeof__
p51
sg9
L2L
sg12
V__sizeof__() -> int\u000asize of object in memory, in bytes
p52
sa(dp53
g6
I01
sg7
V__str__
p54
sg9
L5L
sa(dp55
g6
I01
sg7
V__subclasshook__
p56
sg9
L2L
sg12
VAbstract classes can override this to customize issubclass().\u000a\u000aThis is invoked early on by abc.ABCMeta.__subclasscheck__().\u000aIt should return True, False or NotImplemented.  If it returns\u000aNotImplemented, the normal algorithm is used.  Otherwise, it\u000aoverrides the normal algorithm (and the outcome is cached).\u000a
p57
sa(dp58
g6
I01
sg7
Vblock_size
p59
sg9
L5L
sa(dp60
g6
I01
sg7
Vcopy
p61
sg9
L2L
sg12
VReturn a copy of the hash object.
p62
sa(dp63
g6
I01
sg7
Vdigest
p64
sg9
L2L
sg12
VReturn the digest value as a string of binary data.
p65
sa(dp66
g6
I01
sg7
Vdigest_size
p67
sg9
L5L
sa(dp68
g6
I01
sg7
Vhexdigest
p69
sg9
L2L
sg12
VReturn the digest value as a string of hexadecimal digits.
p70
sa(dp71
g6
I01
sg7
g7
sg9
L5L
sa(dp72
g6
I01
sg7
Vupdate
p73
sg9
L2L
sg12
VUpdate this hash object's state with the provided string.
p74
sasg6
I01
sg7
VSHA224Type
p75
sg9
L3L
sg12
Nsa(dp76
g1
(lp77
(dp78
g6
I01
sg7
g8
sg9
L5L
sa(dp79
g6
I01
sg7
g11
sg9
L2L
sg12
V__dir__() -> list\u000adefault dir() implementation
p80
sa(dp81
g6
I01
sg7
g15
sg9
L5L
sa(dp82
g6
I01
sg7
g17
sg9
L5L
sa(dp83
g6
I01
sg7
g19
sg9
L2L
sg12
Vdefault object formatter
p84
sa(dp85
g6
I01
sg7
g22
sg9
L5L
sa(dp86
g6
I01
sg7
g24
sg9
L5L
sa(dp87
g6
I01
sg7
g26
sg9
L5L
sa(dp88
g6
I01
sg7
g28
sg9
L5L
sa(dp89
g6
I01
sg7
g30
sg9
L5L
sa(dp90
g6
I01
sg7
g32
sg9
L5L
sa(dp91
g6
I01
sg7
g34
sg9
L5L
sa(dp92
g6
I01
sg7
g36
sg9
L5L
sa(dp93
g6
I01
sg7
g38
sg9
L2L
sg12
VCreate and return a new object.  See help(type) for accurate signature.
p94
sa(dp95
g6
I01
sg7
g41
sg9
L2L
sg12
Vhelper for pickle
p96
sa(dp97
g6
I01
sg7
g44
sg9
L2L
sg12
Vhelper for pickle
p98
sa(dp99
g6
I01
sg7
g47
sg9
L5L
sa(dp100
g6
I01
sg7
g49
sg9
L5L
sa(dp101
g6
I01
sg7
g51
sg9
L2L
sg12
V__sizeof__() -> int\u000asize of object in memory, in bytes
p102
sa(dp103
g6
I01
sg7
g54
sg9
L5L
sa(dp104
g6
I01
sg7
g56
sg9
L2L
sg12
VAbstract classes can override this to customize issubclass().\u000a\u000aThis is invoked early on by abc.ABCMeta.__subclasscheck__().\u000aIt should return True, False or NotImplemented.  If it returns\u000aNotImplemented, the normal algorithm is used.  Otherwise, it\u000aoverrides the normal algorithm (and the outcome is cached).\u000a
p105
sa(dp106
g6
I01
sg7
g59
sg9
L5L
sa(dp107
g6
I01
sg7
g61
sg9
L2L
sg12
VReturn a copy of the hash object.
p108
sa(dp109
g6
I01
sg7
g64
sg9
L2L
sg12
VReturn the digest value as a string of binary data.
p110
sa(dp111
g6
I01
sg7
g67
sg9
L5L
sa(dp112
g6
I01
sg7
g69
sg9
L2L
sg12
VReturn the digest value as a string of hexadecimal digits.
p113
sa(dp114
g6
I01
sg7
g7
sg9
L5L
sa(dp115
g6
I01
sg7
g73
sg9
L2L
sg12
VUpdate this hash object's state with the provided string.
p116
sasg6
I01
sg7
VSHA256Type
p117
sg9
L3L
sg12
Nsa(dp118
g6
I01
sg7
g15
sg9
L5L
sa(dp119
g1
(lp120
(dp121
g6
I01
sg7
g8
sg9
L5L
sa(dp122
g6
I01
sg7
V__dict__
p123
sg9
L5L
sa(dp124
g6
I01
sg7
g11
sg9
L2L
sg12
V__dir__() -> list\u000adefault dir() implementation
p125
sa(dp126
g6
I01
sg7
g15
sg9
L5L
sa(dp127
g6
I01
sg7
g17
sg9
L5L
sa(dp128
g6
I01
sg7
g19
sg9
L2L
sg12
Vdefault object formatter
p129
sa(dp130
g6
I01
sg7
g22
sg9
L5L
sa(dp131
g6
I01
sg7
g24
sg9
L5L
sa(dp132
g6
I01
sg7
g26
sg9
L5L
sa(dp133
g6
I01
sg7
g28
sg9
L5L
sa(dp134
g6
I01
sg7
g30
sg9
L5L
sa(dp135
g6
I01
sg7
g32
sg9
L5L
sa(dp136
g6
I01
sg7
g34
sg9
L5L
sa(dp137
g6
I01
sg7
V__module__
p138
sg9
L5L
sa(dp139
g6
I01
sg7
g36
sg9
L5L
sa(dp140
g6
I01
sg7
g38
sg9
L2L
sg12
VCreate and return a new object.  See help(type) for accurate signature.
p141
sa(dp142
g6
I01
sg7
g41
sg9
L2L
sg12
Vhelper for pickle
p143
sa(dp144
g6
I01
sg7
g44
sg9
L2L
sg12
Vhelper for pickle
p145
sa(dp146
g6
I01
sg7
g47
sg9
L5L
sa(dp147
g6
I01
sg7
g49
sg9
L5L
sa(dp148
g6
I01
sg7
g51
sg9
L2L
sg12
V__sizeof__() -> int\u000asize of object in memory, in bytes
p149
sa(dp150
g6
I01
sg7
g54
sg9
L5L
sa(dp151
g6
I01
sg7
g56
sg9
L2L
sg12
VAbstract classes can override this to customize issubclass().\u000a\u000aThis is invoked early on by abc.ABCMeta.__subclasscheck__().\u000aIt should return True, False or NotImplemented.  If it returns\u000aNotImplemented, the normal algorithm is used.  Otherwise, it\u000aoverrides the normal algorithm (and the outcome is cached).\u000a
p152
sa(dp153
g6
I01
sg7
V__weakref__
p154
sg9
L5L
sa(dp155
g6
I01
sg7
Vcreate_module
p156
sg9
L5L
sa(dp157
g6
I01
sg7
Vexec_module
p158
sg9
L5L
sa(dp159
g6
I01
sg7
Vfind_module
p160
sg9
L5L
sa(dp161
g6
I01
sg7
Vfind_spec
p162
sg9
L5L
sa(dp163
g6
I01
sg7
Vget_code
p164
sg9
L5L
sa(dp165
g6
I01
sg7
Vget_source
p166
sg9
L5L
sa(dp167
g6
I01
sg7
Vis_package
p168
sg9
L5L
sa(dp169
g6
I01
sg7
Vload_module
p170
sg9
L5L
sa(dp171
g6
I01
sg7
Vmodule_repr
p172
sg9
L5L
sasg6
I01
sg7
V__loader__
p173
sg9
L3L
sg12
VMeta path import for built-in modules.\u000a\u000a    All methods are either class or static methods to avoid the need to\u000a    instantiate the class.\u000a\u000a    
p174
sa(dp175
g6
I01
sg7
V__name__
p176
sg9
L5L
sa(dp177
g6
I01
sg7
V__package__
p178
sg9
L5L
sa(dp179
g6
I01
sg7
V__spec__
p180
sg9
L5L
sa(dp181
g6
I01
sg7
Vsha224
p182
sg9
L2L
sg12
VReturn a new SHA-224 hash object; optionally initialized with a string.
p183
sa(dp184
g6
I01
sg7
Vsha256
p185
sg9
L2L
sg12
VReturn a new SHA-256 hash object; optionally initialized with a string.
p186
sasg6
I01
sg7
V_sha256
p187
sg12
Ns.