(dp0
Vchilds
p1
(lp2
(dp3
Vis_builtin
p4
I01
sVname
p5
VITIMER_PROF
p6
sVtype
p7
L5L
sa(dp8
g4
I01
sg5
VITIMER_REAL
p9
sg7
L5L
sa(dp10
g4
I01
sg5
VITIMER_VIRTUAL
p11
sg7
L5L
sa(dp12
g1
(lp13
(dp14
g4
I01
sg5
V__cause__
p15
sg7
L5L
sa(dp16
g4
I01
sg5
V__context__
p17
sg7
L5L
sa(dp18
g4
I01
sg5
V__delattr__
p19
sg7
L5L
sa(dp20
g4
I01
sg5
V__dict__
p21
sg7
L5L
sa(dp22
g4
I01
sg5
V__dir__
p23
sg7
L2L
sVdoc
p24
V__dir__() -> list\u000adefault dir() implementation
p25
sa(dp26
g4
I01
sg5
V__doc__
p27
sg7
L5L
sa(dp28
g4
I01
sg5
V__eq__
p29
sg7
L5L
sa(dp30
g4
I01
sg5
V__format__
p31
sg7
L2L
sg24
Vdefault object formatter
p32
sa(dp33
g4
I01
sg5
V__ge__
p34
sg7
L5L
sa(dp35
g4
I01
sg5
V__getattribute__
p36
sg7
L5L
sa(dp37
g4
I01
sg5
V__gt__
p38
sg7
L5L
sa(dp39
g4
I01
sg5
V__hash__
p40
sg7
L5L
sa(dp41
g4
I01
sg5
V__init__
p42
sg7
L5L
sa(dp43
g4
I01
sg5
V__le__
p44
sg7
L5L
sa(dp45
g4
I01
sg5
V__lt__
p46
sg7
L5L
sa(dp47
g4
I01
sg5
V__module__
p48
sg7
L5L
sa(dp49
g4
I01
sg5
V__ne__
p50
sg7
L5L
sa(dp51
g4
I01
sg5
V__new__
p52
sg7
L2L
sg24
VCreate and return a new object.  See help(type) for accurate signature.
p53
sa(dp54
g4
I01
sg5
V__reduce__
p55
sg7
L2L
sg24
Nsa(dp56
g4
I01
sg5
V__reduce_ex__
p57
sg7
L2L
sg24
Vhelper for pickle
p58
sa(dp59
g4
I01
sg5
V__repr__
p60
sg7
L5L
sa(dp61
g4
I01
sg5
V__setattr__
p62
sg7
L5L
sa(dp63
g4
I01
sg5
V__setstate__
p64
sg7
L2L
sg24
Nsa(dp65
g4
I01
sg5
V__sizeof__
p66
sg7
L2L
sg24
V__sizeof__() -> int\u000asize of object in memory, in bytes
p67
sa(dp68
g4
I01
sg5
V__str__
p69
sg7
L5L
sa(dp70
g4
I01
sg5
V__subclasshook__
p71
sg7
L2L
sg24
VAbstract classes can override this to customize issubclass().\u000a\u000aThis is invoked early on by abc.ABCMeta.__subclasscheck__().\u000aIt should return True, False or NotImplemented.  If it returns\u000aNotImplemented, the normal algorithm is used.  Otherwise, it\u000aoverrides the normal algorithm (and the outcome is cached).\u000a
p72
sa(dp73
g4
I01
sg5
V__suppress_context__
p74
sg7
L5L
sa(dp75
g4
I01
sg5
V__traceback__
p76
sg7
L5L
sa(dp77
g4
I01
sg5
V__weakref__
p78
sg7
L5L
sa(dp79
g4
I01
sg5
Vargs
p80
sg7
L5L
sa(dp81
g4
I01
sg5
Vcharacters_written
p82
sg7
L5L
sa(dp83
g4
I01
sg5
Verrno
p84
sg7
L5L
sa(dp85
g4
I01
sg5
Vfilename
p86
sg7
L5L
sa(dp87
g4
I01
sg5
Vfilename2
p88
sg7
L5L
sa(dp89
g4
I01
sg5
Vstrerror
p90
sg7
L5L
sa(dp91
g4
I01
sg5
Vwith_traceback
p92
sg7
L2L
sg24
VException.with_traceback(tb) --\u000a    set self.__traceback__ to tb and return self.
p93
sasg4
I01
sg5
VItimerError
p94
sg7
L3L
sg24
Nsa(dp95
g4
I01
sg5
VNSIG
p96
sg7
L5L
sa(dp97
g4
I01
sg5
VSIGABRT
p98
sg7
L5L
sa(dp99
g4
I01
sg5
VSIGALRM
p100
sg7
L5L
sa(dp101
g4
I01
sg5
VSIGBUS
p102
sg7
L5L
sa(dp103
g4
I01
sg5
VSIGCHLD
p104
sg7
L5L
sa(dp105
g4
I01
sg5
VSIGCLD
p106
sg7
L5L
sa(dp107
g4
I01
sg5
VSIGCONT
p108
sg7
L5L
sa(dp109
g4
I01
sg5
VSIGFPE
p110
sg7
L5L
sa(dp111
g4
I01
sg5
VSIGHUP
p112
sg7
L5L
sa(dp113
g4
I01
sg5
VSIGILL
p114
sg7
L5L
sa(dp115
g4
I01
sg5
VSIGINT
p116
sg7
L5L
sa(dp117
g4
I01
sg5
VSIGIO
p118
sg7
L5L
sa(dp119
g4
I01
sg5
VSIGIOT
p120
sg7
L5L
sa(dp121
g4
I01
sg5
VSIGKILL
p122
sg7
L5L
sa(dp123
g4
I01
sg5
VSIGPIPE
p124
sg7
L5L
sa(dp125
g4
I01
sg5
VSIGPOLL
p126
sg7
L5L
sa(dp127
g4
I01
sg5
VSIGPROF
p128
sg7
L5L
sa(dp129
g4
I01
sg5
VSIGPWR
p130
sg7
L5L
sa(dp131
g4
I01
sg5
VSIGQUIT
p132
sg7
L5L
sa(dp133
g4
I01
sg5
VSIGRTMAX
p134
sg7
L5L
sa(dp135
g4
I01
sg5
VSIGRTMIN
p136
sg7
L5L
sa(dp137
g4
I01
sg5
VSIGSEGV
p138
sg7
L5L
sa(dp139
g4
I01
sg5
VSIGSTOP
p140
sg7
L5L
sa(dp141
g4
I01
sg5
VSIGSYS
p142
sg7
L5L
sa(dp143
g4
I01
sg5
VSIGTERM
p144
sg7
L5L
sa(dp145
g4
I01
sg5
VSIGTRAP
p146
sg7
L5L
sa(dp147
g4
I01
sg5
VSIGTSTP
p148
sg7
L5L
sa(dp149
g4
I01
sg5
VSIGTTIN
p150
sg7
L5L
sa(dp151
g4
I01
sg5
VSIGTTOU
p152
sg7
L5L
sa(dp153
g4
I01
sg5
VSIGURG
p154
sg7
L5L
sa(dp155
g4
I01
sg5
VSIGUSR1
p156
sg7
L5L
sa(dp157
g4
I01
sg5
VSIGUSR2
p158
sg7
L5L
sa(dp159
g4
I01
sg5
VSIGVTALRM
p160
sg7
L5L
sa(dp161
g4
I01
sg5
VSIGWINCH
p162
sg7
L5L
sa(dp163
g4
I01
sg5
VSIGXCPU
p164
sg7
L5L
sa(dp165
g4
I01
sg5
VSIGXFSZ
p166
sg7
L5L
sa(dp167
g4
I01
sg5
VSIG_BLOCK
p168
sg7
L5L
sa(dp169
g4
I01
sg5
VSIG_DFL
p170
sg7
L5L
sa(dp171
g4
I01
sg5
VSIG_IGN
p172
sg7
L5L
sa(dp173
g4
I01
sg5
VSIG_SETMASK
p174
sg7
L5L
sa(dp175
g4
I01
sg5
VSIG_UNBLOCK
p176
sg7
L5L
sa(dp177
g4
I01
sg5
g27
sg7
L5L
sa(dp178
g1
(lp179
(dp180
g4
I01
sg5
g19
sg7
L5L
sa(dp181
g4
I01
sg5
g21
sg7
L5L
sa(dp182
g4
I01
sg5
g23
sg7
L2L
sg24
V__dir__() -> list\u000adefault dir() implementation
p183
sa(dp184
g4
I01
sg5
g27
sg7
L5L
sa(dp185
g4
I01
sg5
g29
sg7
L5L
sa(dp186
g4
I01
sg5
g31
sg7
L2L
sg24
Vdefault object formatter
p187
sa(dp188
g4
I01
sg5
g34
sg7
L5L
sa(dp189
g4
I01
sg5
g36
sg7
L5L
sa(dp190
g4
I01
sg5
g38
sg7
L5L
sa(dp191
g4
I01
sg5
g40
sg7
L5L
sa(dp192
g4
I01
sg5
g42
sg7
L5L
sa(dp193
g4
I01
sg5
g44
sg7
L5L
sa(dp194
g4
I01
sg5
g46
sg7
L5L
sa(dp195
g4
I01
sg5
g48
sg7
L5L
sa(dp196
g4
I01
sg5
g50
sg7
L5L
sa(dp197
g4
I01
sg5
g52
sg7
L2L
sg24
VCreate and return a new object.  See help(type) for accurate signature.
p198
sa(dp199
g4
I01
sg5
g55
sg7
L2L
sg24
Vhelper for pickle
p200
sa(dp201
g4
I01
sg5
g57
sg7
L2L
sg24
Vhelper for pickle
p202
sa(dp203
g4
I01
sg5
g60
sg7
L5L
sa(dp204
g4
I01
sg5
g62
sg7
L5L
sa(dp205
g4
I01
sg5
g66
sg7
L2L
sg24
V__sizeof__() -> int\u000asize of object in memory, in bytes
p206
sa(dp207
g4
I01
sg5
g69
sg7
L5L
sa(dp208
g4
I01
sg5
g71
sg7
L2L
sg24
VAbstract classes can override this to customize issubclass().\u000a\u000aThis is invoked early on by abc.ABCMeta.__subclasscheck__().\u000aIt should return True, False or NotImplemented.  If it returns\u000aNotImplemented, the normal algorithm is used.  Otherwise, it\u000aoverrides the normal algorithm (and the outcome is cached).\u000a
p209
sa(dp210
g4
I01
sg5
g78
sg7
L5L
sa(dp211
g4
I01
sg5
Vcreate_module
p212
sg7
L5L
sa(dp213
g4
I01
sg5
Vexec_module
p214
sg7
L5L
sa(dp215
g4
I01
sg5
Vfind_module
p216
sg7
L5L
sa(dp217
g4
I01
sg5
Vfind_spec
p218
sg7
L5L
sa(dp219
g4
I01
sg5
Vget_code
p220
sg7
L5L
sa(dp221
g4
I01
sg5
Vget_source
p222
sg7
L5L
sa(dp223
g4
I01
sg5
Vis_package
p224
sg7
L5L
sa(dp225
g4
I01
sg5
Vload_module
p226
sg7
L5L
sa(dp227
g4
I01
sg5
Vmodule_repr
p228
sg7
L5L
sasg4
I01
sg5
V__loader__
p229
sg7
L3L
sg24
VMeta path import for built-in modules.\u000a\u000a    All methods are either class or static methods to avoid the need to\u000a    instantiate the class.\u000a\u000a    
p230
sa(dp231
g4
I01
sg5
V__name__
p232
sg7
L5L
sa(dp233
g4
I01
sg5
V__package__
p234
sg7
L5L
sa(dp235
g4
I01
sg5
V__spec__
p236
sg7
L5L
sa(dp237
g4
I01
sg5
Valarm
p238
sg7
L2L
sg24
VArrange for SIGALRM to arrive after the given number of seconds.
p239
sa(dp240
g4
I01
sg5
Vdefault_int_handler
p241
sg7
L2L
sg24
Vdefault_int_handler(...)\u000a\u000aThe default handler for SIGINT installed by Python.\u000aIt raises KeyboardInterrupt.
p242
sa(dp243
g4
I01
sg5
Vgetitimer
p244
sg7
L2L
sg24
VReturns current value of given itimer.
p245
sa(dp246
g4
I01
sg5
Vgetsignal
p247
sg7
L2L
sg24
VReturn the current action for the given signal.\u000a\u000aThe return value can be:\u000a  SIG_IGN -- if the signal is being ignored\u000a  SIG_DFL -- if the default action for the signal is in effect\u000a  None    -- if an unknown handler is in effect\u000a  anything else -- the callable Python object used as a handler
p248
sa(dp249
g4
I01
sg5
Vpause
p250
sg7
L2L
sg24
VWait until a signal arrives.
p251
sa(dp252
g4
I01
sg5
Vpthread_kill
p253
sg7
L2L
sg24
VSend a signal to a thread.
p254
sa(dp255
g4
I01
sg5
Vpthread_sigmask
p256
sg7
L2L
sg24
VFetch and/or change the signal mask of the calling thread.
p257
sa(dp258
g4
I01
sg5
Vset_wakeup_fd
p259
sg7
L2L
sg24
Vset_wakeup_fd(fd) -> fd\u000a\u000aSets the fd to be written to (with the signal number) when a signal\u000acomes in.  A library can use this to wakeup select or poll.\u000aThe previous fd or -1 is returned.\u000a\u000aThe fd must be non-blocking.
p260
sa(dp261
g4
I01
sg5
Vsetitimer
p262
sg7
L2L
sg24
VSets given itimer (one of ITIMER_REAL, ITIMER_VIRTUAL or ITIMER_PROF).\u000a\u000aThe timer will fire after value seconds and after that every interval seconds.\u000aThe itimer can be cleared by setting seconds to zero.\u000a\u000aReturns old values as a tuple: (delay, interval).
p263
sa(dp264
g4
I01
sg5
Vsiginterrupt
p265
sg7
L2L
sg24
VChange system call restart behaviour.\u000a\u000aIf flag is False, system calls will be restarted when interrupted by\u000asignal sig, else system calls will be interrupted.
p266
sa(dp267
g4
I01
sg5
Vsignal
p268
sg7
L2L
sg24
VSet the action for the given signal.\u000a\u000aThe action can be SIG_DFL, SIG_IGN, or a callable Python object.\u000aThe previous action is returned.  See getsignal() for possible return values.\u000a\u000a*** IMPORTANT NOTICE ***\u000aA signal handler function is called with two arguments:\u000athe first is the signal number, the second is the interrupted stack frame.
p269
sa(dp270
g4
I01
sg5
Vsigpending
p271
sg7
L2L
sg24
VExamine pending signals.\u000a\u000aReturns a set of signal numbers that are pending for delivery to\u000athe calling thread.
p272
sa(dp273
g4
I01
sg5
Vsigtimedwait
p274
sg7
L2L
sg24
VLike sigwaitinfo(), but with a timeout.\u000a\u000aThe timeout is specified in seconds, with floating point numbers allowed.
p275
sa(dp276
g4
I01
sg5
Vsigwait
p277
sg7
L2L
sg24
VWait for a signal.\u000a\u000aSuspend execution of the calling thread until the delivery of one of the\u000asignals specified in the signal set sigset.  The function accepts the signal\u000aand returns the signal number.
p278
sa(dp279
g4
I01
sg5
Vsigwaitinfo
p280
sg7
L2L
sg24
VWait synchronously until one of the signals in *sigset* is delivered.\u000a\u000aReturns a struct_siginfo containing information about the signal.
p281
sa(dp282
g1
(lp283
(dp284
g4
I01
sg5
V__add__
p285
sg7
L5L
sa(dp286
g4
I01
sg5
V__contains__
p287
sg7
L5L
sa(dp288
g4
I01
sg5
g19
sg7
L5L
sa(dp289
g4
I01
sg5
g23
sg7
L2L
sg24
V__dir__() -> list\u000adefault dir() implementation
p290
sa(dp291
g4
I01
sg5
g27
sg7
L5L
sa(dp292
g4
I01
sg5
g29
sg7
L5L
sa(dp293
g4
I01
sg5
g31
sg7
L2L
sg24
Vdefault object formatter
p294
sa(dp295
g4
I01
sg5
g34
sg7
L5L
sa(dp296
g4
I01
sg5
g36
sg7
L5L
sa(dp297
g4
I01
sg5
V__getitem__
p298
sg7
L5L
sa(dp299
g4
I01
sg5
V__getnewargs__
p300
sg7
L2L
sg24
Nsa(dp301
g4
I01
sg5
g38
sg7
L5L
sa(dp302
g4
I01
sg5
g40
sg7
L5L
sa(dp303
g4
I01
sg5
g42
sg7
L5L
sa(dp304
g4
I01
sg5
V__iter__
p305
sg7
L5L
sa(dp306
g4
I01
sg5
g44
sg7
L5L
sa(dp307
g4
I01
sg5
V__len__
p308
sg7
L5L
sa(dp309
g4
I01
sg5
g46
sg7
L5L
sa(dp310
g4
I01
sg5
V__mul__
p311
sg7
L5L
sa(dp312
g4
I01
sg5
g50
sg7
L5L
sa(dp313
g4
I01
sg5
g52
sg7
L2L
sg24
VCreate and return a new object.  See help(type) for accurate signature.
p314
sa(dp315
g4
I01
sg5
g55
sg7
L2L
sg24
Nsa(dp316
g4
I01
sg5
g57
sg7
L2L
sg24
Vhelper for pickle
p317
sa(dp318
g4
I01
sg5
g60
sg7
L5L
sa(dp319
g4
I01
sg5
V__rmul__
p320
sg7
L5L
sa(dp321
g4
I01
sg5
g62
sg7
L5L
sa(dp322
g4
I01
sg5
g66
sg7
L2L
sg24
V__sizeof__() -> int\u000asize of object in memory, in bytes
p323
sa(dp324
g4
I01
sg5
g69
sg7
L5L
sa(dp325
g4
I01
sg5
g71
sg7
L2L
sg24
VAbstract classes can override this to customize issubclass().\u000a\u000aThis is invoked early on by abc.ABCMeta.__subclasscheck__().\u000aIt should return True, False or NotImplemented.  If it returns\u000aNotImplemented, the normal algorithm is used.  Otherwise, it\u000aoverrides the normal algorithm (and the outcome is cached).\u000a
p326
sa(dp327
g4
I01
sg5
Vcount
p328
sg7
L2L
sg24
VT.count(value) -> integer -- return number of occurrences of value
p329
sa(dp330
g4
I01
sg5
Vindex
p331
sg7
L2L
sg24
VT.index(value, [start, [stop]]) -> integer -- return first index of value.\u000aRaises ValueError if the value is not present.
p332
sa(dp333
g4
I01
sg5
Vn_fields
p334
sg7
L5L
sa(dp335
g4
I01
sg5
Vn_sequence_fields
p336
sg7
L5L
sa(dp337
g4
I01
sg5
Vn_unnamed_fields
p338
sg7
L5L
sa(dp339
g4
I01
sg5
Vsi_band
p340
sg7
L5L
sa(dp341
g4
I01
sg5
Vsi_code
p342
sg7
L5L
sa(dp343
g4
I01
sg5
Vsi_errno
p344
sg7
L5L
sa(dp345
g4
I01
sg5
Vsi_pid
p346
sg7
L5L
sa(dp347
g4
I01
sg5
Vsi_signo
p348
sg7
L5L
sa(dp349
g4
I01
sg5
Vsi_status
p350
sg7
L5L
sa(dp351
g4
I01
sg5
Vsi_uid
p352
sg7
L5L
sasg4
I01
sg5
Vstruct_siginfo
p353
sg7
L3L
sg24
Vstruct_siginfo: Result from sigwaitinfo or sigtimedwait.\u000a\u000aThis object may be accessed either as a tuple of\u000a(si_signo, si_code, si_errno, si_pid, si_uid, si_status, si_band),\u000aor via the attributes si_signo, si_code, and so on.
p354
sasg4
I01
sg5
V_signal
p355
sg24
VThis module provides mechanisms to use signal handlers in Python.\u000a\u000aFunctions:\u000a\u000aalarm() -- cause SIGALRM after a specified time [Unix only]\u000asetitimer() -- cause a signal (described below) after a specified\u000a               float time and the timer may restart then [Unix only]\u000agetitimer() -- get current value of timer [Unix only]\u000asignal() -- set the action for a given signal\u000agetsignal() -- get the signal action for a given signal\u000apause() -- wait until a signal arrives [Unix only]\u000adefault_int_handler() -- default SIGINT handler\u000a\u000asignal constants:\u000aSIG_DFL -- used to refer to the system default handler\u000aSIG_IGN -- used to ignore the signal\u000aNSIG -- number of defined signals\u000aSIGINT, SIGTERM, etc. -- signal numbers\u000a\u000aitimer constants:\u000aITIMER_REAL -- decrements in real time, and delivers SIGALRM upon\u000a               expiration\u000aITIMER_VIRTUAL -- decrements only when the process is executing,\u000a               and delivers SIGVTALRM upon expiration\u000aITIMER_PROF -- decrements both when the process is executing and\u000a               when the system is executing on behalf of the process.\u000a               Coupled with ITIMER_VIRTUAL, this timer is usually\u000a               used to profile the time spent by the application\u000a               in user and kernel space. SIGPROF is delivered upon\u000a               expiration.\u000a\u000a\u000a*** IMPORTANT NOTICE ***\u000aA signal handler function is called with two arguments:\u000athe first is the signal number, the second is the interrupted stack frame.
p356
s.