(dp0
Vchilds
p1
(lp2
(dp3
Vis_builtin
p4
I01
sVname
p5
VCODESIZE
p6
sVtype
p7
L5L
sa(dp8
g4
I01
sg5
VMAGIC
p9
sg7
L5L
sa(dp10
g4
I01
sg5
VMAXGROUPS
p11
sg7
L5L
sa(dp12
g4
I01
sg5
VMAXREPEAT
p13
sg7
L5L
sa(dp14
g4
I01
sg5
V__doc__
p15
sg7
L5L
sa(dp16
g1
(lp17
(dp18
g4
I01
sg5
V__delattr__
p19
sg7
L5L
sa(dp20
g4
I01
sg5
V__dict__
p21
sg7
L5L
sa(dp22
g4
I01
sg5
V__dir__
p23
sg7
L2L
sVdoc
p24
V__dir__() -> list\u000adefault dir() implementation
p25
sa(dp26
g4
I01
sg5
g15
sg7
L5L
sa(dp27
g4
I01
sg5
V__eq__
p28
sg7
L5L
sa(dp29
g4
I01
sg5
V__format__
p30
sg7
L2L
sg24
Vdefault object formatter
p31
sa(dp32
g4
I01
sg5
V__ge__
p33
sg7
L5L
sa(dp34
g4
I01
sg5
V__getattribute__
p35
sg7
L5L
sa(dp36
g4
I01
sg5
V__gt__
p37
sg7
L5L
sa(dp38
g4
I01
sg5
V__hash__
p39
sg7
L5L
sa(dp40
g4
I01
sg5
V__init__
p41
sg7
L5L
sa(dp42
g4
I01
sg5
V__le__
p43
sg7
L5L
sa(dp44
g4
I01
sg5
V__lt__
p45
sg7
L5L
sa(dp46
g4
I01
sg5
V__module__
p47
sg7
L5L
sa(dp48
g4
I01
sg5
V__ne__
p49
sg7
L5L
sa(dp50
g4
I01
sg5
V__new__
p51
sg7
L2L
sg24
VCreate and return a new object.  See help(type) for accurate signature.
p52
sa(dp53
g4
I01
sg5
V__reduce__
p54
sg7
L2L
sg24
Vhelper for pickle
p55
sa(dp56
g4
I01
sg5
V__reduce_ex__
p57
sg7
L2L
sg24
Vhelper for pickle
p58
sa(dp59
g4
I01
sg5
V__repr__
p60
sg7
L5L
sa(dp61
g4
I01
sg5
V__setattr__
p62
sg7
L5L
sa(dp63
g4
I01
sg5
V__sizeof__
p64
sg7
L2L
sg24
V__sizeof__() -> int\u000asize of object in memory, in bytes
p65
sa(dp66
g4
I01
sg5
V__str__
p67
sg7
L5L
sa(dp68
g4
I01
sg5
V__subclasshook__
p69
sg7
L2L
sg24
VAbstract classes can override this to customize issubclass().\u000a\u000aThis is invoked early on by abc.ABCMeta.__subclasscheck__().\u000aIt should return True, False or NotImplemented.  If it returns\u000aNotImplemented, the normal algorithm is used.  Otherwise, it\u000aoverrides the normal algorithm (and the outcome is cached).\u000a
p70
sa(dp71
g4
I01
sg5
V__weakref__
p72
sg7
L5L
sa(dp73
g4
I01
sg5
Vcreate_module
p74
sg7
L5L
sa(dp75
g4
I01
sg5
Vexec_module
p76
sg7
L5L
sa(dp77
g4
I01
sg5
Vfind_module
p78
sg7
L5L
sa(dp79
g4
I01
sg5
Vfind_spec
p80
sg7
L5L
sa(dp81
g4
I01
sg5
Vget_code
p82
sg7
L5L
sa(dp83
g4
I01
sg5
Vget_source
p84
sg7
L5L
sa(dp85
g4
I01
sg5
Vis_package
p86
sg7
L5L
sa(dp87
g4
I01
sg5
Vload_module
p88
sg7
L5L
sa(dp89
g4
I01
sg5
Vmodule_repr
p90
sg7
L5L
sasg4
I01
sg5
V__loader__
p91
sg7
L3L
sg24
VMeta path import for built-in modules.\u000a\u000a    All methods are either class or static methods to avoid the need to\u000a    instantiate the class.\u000a\u000a    
p92
sa(dp93
g4
I01
sg5
V__name__
p94
sg7
L5L
sa(dp95
g4
I01
sg5
V__package__
p96
sg7
L5L
sa(dp97
g4
I01
sg5
V__spec__
p98
sg7
L5L
sa(dp99
g4
I01
sg5
Vcompile
p100
sg7
L2L
sg24
Nsa(dp101
g4
I01
sg5
Vcopyright
p102
sg7
L5L
sa(dp103
g4
I01
sg5
Vgetcodesize
p104
sg7
L2L
sg24
Nsa(dp105
g4
I01
sg5
Vgetlower
p106
sg7
L2L
sg24
Nsasg4
I01
sg5
V_sre
p107
sg24
Ns.