(dp0
Vchilds
p1
(lp2
(dp3
Vis_builtin
p4
I01
sVname
p5
VSF_APPEND
p6
sVtype
p7
L5L
sa(dp8
g4
I01
sg5
VSF_ARCHIVED
p9
sg7
L5L
sa(dp10
g4
I01
sg5
VSF_IMMUTABLE
p11
sg7
L5L
sa(dp12
g4
I01
sg5
VSF_NOUNLINK
p13
sg7
L5L
sa(dp14
g4
I01
sg5
VSF_SNAPSHOT
p15
sg7
L5L
sa(dp16
g4
I01
sg5
VST_ATIME
p17
sg7
L5L
sa(dp18
g4
I01
sg5
VST_CTIME
p19
sg7
L5L
sa(dp20
g4
I01
sg5
VST_DEV
p21
sg7
L5L
sa(dp22
g4
I01
sg5
VST_GID
p23
sg7
L5L
sa(dp24
g4
I01
sg5
VST_INO
p25
sg7
L5L
sa(dp26
g4
I01
sg5
VST_MODE
p27
sg7
L5L
sa(dp28
g4
I01
sg5
VST_MTIME
p29
sg7
L5L
sa(dp30
g4
I01
sg5
VST_NLINK
p31
sg7
L5L
sa(dp32
g4
I01
sg5
VST_SIZE
p33
sg7
L5L
sa(dp34
g4
I01
sg5
VST_UID
p35
sg7
L5L
sa(dp36
g4
I01
sg5
VS_ENFMT
p37
sg7
L5L
sa(dp38
g4
I01
sg5
VS_IEXEC
p39
sg7
L5L
sa(dp40
g4
I01
sg5
VS_IFBLK
p41
sg7
L5L
sa(dp42
g4
I01
sg5
VS_IFCHR
p43
sg7
L5L
sa(dp44
g4
I01
sg5
VS_IFDIR
p45
sg7
L5L
sa(dp46
g4
I01
sg5
VS_IFDOOR
p47
sg7
L5L
sa(dp48
g4
I01
sg5
VS_IFIFO
p49
sg7
L5L
sa(dp50
g4
I01
sg5
VS_IFLNK
p51
sg7
L5L
sa(dp52
g4
I01
sg5
VS_IFMT
p53
sg7
L2L
sVdoc
p54
VReturn the portion of the file's mode that describes the file type.
p55
sa(dp56
g4
I01
sg5
VS_IFPORT
p57
sg7
L5L
sa(dp58
g4
I01
sg5
VS_IFREG
p59
sg7
L5L
sa(dp60
g4
I01
sg5
VS_IFSOCK
p61
sg7
L5L
sa(dp62
g4
I01
sg5
VS_IFWHT
p63
sg7
L5L
sa(dp64
g4
I01
sg5
VS_IMODE
p65
sg7
L2L
sg54
VReturn the portion of the file's mode that can be set by os.chmod().
p66
sa(dp67
g4
I01
sg5
VS_IREAD
p68
sg7
L5L
sa(dp69
g4
I01
sg5
VS_IRGRP
p70
sg7
L5L
sa(dp71
g4
I01
sg5
VS_IROTH
p72
sg7
L5L
sa(dp73
g4
I01
sg5
VS_IRUSR
p74
sg7
L5L
sa(dp75
g4
I01
sg5
VS_IRWXG
p76
sg7
L5L
sa(dp77
g4
I01
sg5
VS_IRWXO
p78
sg7
L5L
sa(dp79
g4
I01
sg5
VS_IRWXU
p80
sg7
L5L
sa(dp81
g4
I01
sg5
VS_ISBLK
p82
sg7
L2L
sg54
VS_ISBLK(mode) -> bool\u000a\u000aReturn True if mode is from a block special device file.
p83
sa(dp84
g4
I01
sg5
VS_ISCHR
p85
sg7
L2L
sg54
VS_ISCHR(mode) -> bool\u000a\u000aReturn True if mode is from a character special device file.
p86
sa(dp87
g4
I01
sg5
VS_ISDIR
p88
sg7
L2L
sg54
VS_ISDIR(mode) -> bool\u000a\u000aReturn True if mode is from a directory.
p89
sa(dp90
g4
I01
sg5
VS_ISDOOR
p91
sg7
L2L
sg54
VS_ISDOOR(mode) -> bool\u000a\u000aReturn True if mode is from a door.
p92
sa(dp93
g4
I01
sg5
VS_ISFIFO
p94
sg7
L2L
sg54
VS_ISFIFO(mode) -> bool\u000a\u000aReturn True if mode is from a FIFO (named pipe).
p95
sa(dp96
g4
I01
sg5
VS_ISGID
p97
sg7
L5L
sa(dp98
g4
I01
sg5
VS_ISLNK
p99
sg7
L2L
sg54
VS_ISLNK(mode) -> bool\u000a\u000aReturn True if mode is from a symbolic link.
p100
sa(dp101
g4
I01
sg5
VS_ISPORT
p102
sg7
L2L
sg54
VS_ISPORT(mode) -> bool\u000a\u000aReturn True if mode is from an event port.
p103
sa(dp104
g4
I01
sg5
VS_ISREG
p105
sg7
L2L
sg54
VS_ISREG(mode) -> bool\u000a\u000aReturn True if mode is from a regular file.
p106
sa(dp107
g4
I01
sg5
VS_ISSOCK
p108
sg7
L2L
sg54
VS_ISSOCK(mode) -> bool\u000a\u000aReturn True if mode is from a socket.
p109
sa(dp110
g4
I01
sg5
VS_ISUID
p111
sg7
L5L
sa(dp112
g4
I01
sg5
VS_ISVTX
p113
sg7
L5L
sa(dp114
g4
I01
sg5
VS_ISWHT
p115
sg7
L2L
sg54
VS_ISWHT(mode) -> bool\u000a\u000aReturn True if mode is from a whiteout.
p116
sa(dp117
g4
I01
sg5
VS_IWGRP
p118
sg7
L5L
sa(dp119
g4
I01
sg5
VS_IWOTH
p120
sg7
L5L
sa(dp121
g4
I01
sg5
VS_IWRITE
p122
sg7
L5L
sa(dp123
g4
I01
sg5
VS_IWUSR
p124
sg7
L5L
sa(dp125
g4
I01
sg5
VS_IXGRP
p126
sg7
L5L
sa(dp127
g4
I01
sg5
VS_IXOTH
p128
sg7
L5L
sa(dp129
g4
I01
sg5
VS_IXUSR
p130
sg7
L5L
sa(dp131
g4
I01
sg5
VUF_APPEND
p132
sg7
L5L
sa(dp133
g4
I01
sg5
VUF_COMPRESSED
p134
sg7
L5L
sa(dp135
g4
I01
sg5
VUF_HIDDEN
p136
sg7
L5L
sa(dp137
g4
I01
sg5
VUF_IMMUTABLE
p138
sg7
L5L
sa(dp139
g4
I01
sg5
VUF_NODUMP
p140
sg7
L5L
sa(dp141
g4
I01
sg5
VUF_NOUNLINK
p142
sg7
L5L
sa(dp143
g4
I01
sg5
VUF_OPAQUE
p144
sg7
L5L
sa(dp145
g4
I01
sg5
V__doc__
p146
sg7
L5L
sa(dp147
g1
(lp148
(dp149
g4
I01
sg5
V__delattr__
p150
sg7
L5L
sa(dp151
g4
I01
sg5
V__dict__
p152
sg7
L5L
sa(dp153
g4
I01
sg5
V__dir__
p154
sg7
L2L
sg54
V__dir__() -> list\u000adefault dir() implementation
p155
sa(dp156
g4
I01
sg5
g146
sg7
L5L
sa(dp157
g4
I01
sg5
V__eq__
p158
sg7
L5L
sa(dp159
g4
I01
sg5
V__format__
p160
sg7
L2L
sg54
Vdefault object formatter
p161
sa(dp162
g4
I01
sg5
V__ge__
p163
sg7
L5L
sa(dp164
g4
I01
sg5
V__getattribute__
p165
sg7
L5L
sa(dp166
g4
I01
sg5
V__gt__
p167
sg7
L5L
sa(dp168
g4
I01
sg5
V__hash__
p169
sg7
L5L
sa(dp170
g4
I01
sg5
V__init__
p171
sg7
L5L
sa(dp172
g4
I01
sg5
V__le__
p173
sg7
L5L
sa(dp174
g4
I01
sg5
V__lt__
p175
sg7
L5L
sa(dp176
g4
I01
sg5
V__module__
p177
sg7
L5L
sa(dp178
g4
I01
sg5
V__ne__
p179
sg7
L5L
sa(dp180
g4
I01
sg5
V__new__
p181
sg7
L2L
sg54
VCreate and return a new object.  See help(type) for accurate signature.
p182
sa(dp183
g4
I01
sg5
V__reduce__
p184
sg7
L2L
sg54
Vhelper for pickle
p185
sa(dp186
g4
I01
sg5
V__reduce_ex__
p187
sg7
L2L
sg54
Vhelper for pickle
p188
sa(dp189
g4
I01
sg5
V__repr__
p190
sg7
L5L
sa(dp191
g4
I01
sg5
V__setattr__
p192
sg7
L5L
sa(dp193
g4
I01
sg5
V__sizeof__
p194
sg7
L2L
sg54
V__sizeof__() -> int\u000asize of object in memory, in bytes
p195
sa(dp196
g4
I01
sg5
V__str__
p197
sg7
L5L
sa(dp198
g4
I01
sg5
V__subclasshook__
p199
sg7
L2L
sg54
VAbstract classes can override this to customize issubclass().\u000a\u000aThis is invoked early on by abc.ABCMeta.__subclasscheck__().\u000aIt should return True, False or NotImplemented.  If it returns\u000aNotImplemented, the normal algorithm is used.  Otherwise, it\u000aoverrides the normal algorithm (and the outcome is cached).\u000a
p200
sa(dp201
g4
I01
sg5
V__weakref__
p202
sg7
L5L
sa(dp203
g4
I01
sg5
Vcreate_module
p204
sg7
L5L
sa(dp205
g4
I01
sg5
Vexec_module
p206
sg7
L5L
sa(dp207
g4
I01
sg5
Vfind_module
p208
sg7
L5L
sa(dp209
g4
I01
sg5
Vfind_spec
p210
sg7
L5L
sa(dp211
g4
I01
sg5
Vget_code
p212
sg7
L5L
sa(dp213
g4
I01
sg5
Vget_source
p214
sg7
L5L
sa(dp215
g4
I01
sg5
Vis_package
p216
sg7
L5L
sa(dp217
g4
I01
sg5
Vload_module
p218
sg7
L5L
sa(dp219
g4
I01
sg5
Vmodule_repr
p220
sg7
L5L
sasg4
I01
sg5
V__loader__
p221
sg7
L3L
sg54
VMeta path import for built-in modules.\u000a\u000a    All methods are either class or static methods to avoid the need to\u000a    instantiate the class.\u000a\u000a    
p222
sa(dp223
g4
I01
sg5
V__name__
p224
sg7
L5L
sa(dp225
g4
I01
sg5
V__package__
p226
sg7
L5L
sa(dp227
g4
I01
sg5
V__spec__
p228
sg7
L5L
sa(dp229
g4
I01
sg5
Vfilemode
p230
sg7
L2L
sg54
VConvert a file's mode to a string of the form '-rwxrwxrwx'
p231
sasg4
I01
sg5
V_stat
p232
sg54
VS_IFMT_: file type bits\u000aS_IFDIR: directory\u000aS_IFCHR: character device\u000aS_IFBLK: block device\u000aS_IFREG: regular file\u000aS_IFIFO: fifo (named pipe)\u000aS_IFLNK: symbolic link\u000aS_IFSOCK: socket file\u000aS_IFDOOR: door\u000aS_IFPORT: event port\u000aS_IFWHT: whiteout\u000a\u000aS_ISUID: set UID bit\u000aS_ISGID: set GID bit\u000aS_ENFMT: file locking enforcement\u000aS_ISVTX: sticky bit\u000aS_IREAD: Unix V7 synonym for S_IRUSR\u000aS_IWRITE: Unix V7 synonym for S_IWUSR\u000aS_IEXEC: Unix V7 synonym for S_IXUSR\u000aS_IRWXU: mask for owner permissions\u000aS_IRUSR: read by owner\u000aS_IWUSR: write by owner\u000aS_IXUSR: execute by owner\u000aS_IRWXG: mask for group permissions\u000aS_IRGRP: read by group\u000aS_IWGRP: write by group\u000aS_IXGRP: execute by group\u000aS_IRWXO: mask for others (not in group) permissions\u000aS_IROTH: read by others\u000aS_IWOTH: write by others\u000aS_IXOTH: execute by others\u000a\u000aUF_NODUMP: do not dump file\u000aUF_IMMUTABLE: file may not be changed\u000aUF_APPEND: file may only be appended to\u000aUF_OPAQUE: directory is opaque when viewed through a union stack\u000aUF_NOUNLINK: file may not be renamed or deleted\u000aUF_COMPRESSED: OS X: file is hfs-compressed\u000aUF_HIDDEN: OS X: file should not be displayed\u000aSF_ARCHIVED: file may be archived\u000aSF_IMMUTABLE: file may not be changed\u000aSF_APPEND: file may only be appended to\u000aSF_NOUNLINK: file may not be renamed or deleted\u000aSF_SNAPSHOT: file is a snapshot file\u000a\u000aST_MODE\u000aST_INO\u000aST_DEV\u000aST_NLINK\u000aST_UID\u000aST_GID\u000aST_SIZE\u000aST_ATIME\u000aST_MTIME\u000aST_CTIME\u000a\u000aFILE_ATTRIBUTE_*: Windows file attribute constants\u000a                   (only present on Windows)\u000a
p233
s.