(dp0
Vchilds
p1
(lp2
(dp3
Vis_builtin
p4
I01
sVname
p5
VCELL
p6
sVtype
p7
L5L
sa(dp8
g4
I01
sg5
VDEF_BOUND
p9
sg7
L5L
sa(dp10
g4
I01
sg5
VDEF_FREE
p11
sg7
L5L
sa(dp12
g4
I01
sg5
VDEF_FREE_CLASS
p13
sg7
L5L
sa(dp14
g4
I01
sg5
VDEF_GLOBAL
p15
sg7
L5L
sa(dp16
g4
I01
sg5
VDEF_IMPORT
p17
sg7
L5L
sa(dp18
g4
I01
sg5
VDEF_LOCAL
p19
sg7
L5L
sa(dp20
g4
I01
sg5
VDEF_PARAM
p21
sg7
L5L
sa(dp22
g4
I01
sg5
VFREE
p23
sg7
L5L
sa(dp24
g4
I01
sg5
VGLOBAL_EXPLICIT
p25
sg7
L5L
sa(dp26
g4
I01
sg5
VGLOBAL_IMPLICIT
p27
sg7
L5L
sa(dp28
g4
I01
sg5
VLOCAL
p29
sg7
L5L
sa(dp30
g4
I01
sg5
VSCOPE_MASK
p31
sg7
L5L
sa(dp32
g4
I01
sg5
VSCOPE_OFF
p33
sg7
L5L
sa(dp34
g4
I01
sg5
VTYPE_CLASS
p35
sg7
L5L
sa(dp36
g4
I01
sg5
VTYPE_FUNCTION
p37
sg7
L5L
sa(dp38
g4
I01
sg5
VTYPE_MODULE
p39
sg7
L5L
sa(dp40
g4
I01
sg5
VUSE
p41
sg7
L5L
sa(dp42
g4
I01
sg5
V__doc__
p43
sg7
L5L
sa(dp44
g1
(lp45
(dp46
g4
I01
sg5
V__delattr__
p47
sg7
L5L
sa(dp48
g4
I01
sg5
V__dict__
p49
sg7
L5L
sa(dp50
g4
I01
sg5
V__dir__
p51
sg7
L2L
sVdoc
p52
V__dir__() -> list\u000adefault dir() implementation
p53
sa(dp54
g4
I01
sg5
g43
sg7
L5L
sa(dp55
g4
I01
sg5
V__eq__
p56
sg7
L5L
sa(dp57
g4
I01
sg5
V__format__
p58
sg7
L2L
sg52
Vdefault object formatter
p59
sa(dp60
g4
I01
sg5
V__ge__
p61
sg7
L5L
sa(dp62
g4
I01
sg5
V__getattribute__
p63
sg7
L5L
sa(dp64
g4
I01
sg5
V__gt__
p65
sg7
L5L
sa(dp66
g4
I01
sg5
V__hash__
p67
sg7
L5L
sa(dp68
g4
I01
sg5
V__init__
p69
sg7
L5L
sa(dp70
g4
I01
sg5
V__le__
p71
sg7
L5L
sa(dp72
g4
I01
sg5
V__lt__
p73
sg7
L5L
sa(dp74
g4
I01
sg5
V__module__
p75
sg7
L5L
sa(dp76
g4
I01
sg5
V__ne__
p77
sg7
L5L
sa(dp78
g4
I01
sg5
V__new__
p79
sg7
L2L
sg52
VCreate and return a new object.  See help(type) for accurate signature.
p80
sa(dp81
g4
I01
sg5
V__reduce__
p82
sg7
L2L
sg52
Vhelper for pickle
p83
sa(dp84
g4
I01
sg5
V__reduce_ex__
p85
sg7
L2L
sg52
Vhelper for pickle
p86
sa(dp87
g4
I01
sg5
V__repr__
p88
sg7
L5L
sa(dp89
g4
I01
sg5
V__setattr__
p90
sg7
L5L
sa(dp91
g4
I01
sg5
V__sizeof__
p92
sg7
L2L
sg52
V__sizeof__() -> int\u000asize of object in memory, in bytes
p93
sa(dp94
g4
I01
sg5
V__str__
p95
sg7
L5L
sa(dp96
g4
I01
sg5
V__subclasshook__
p97
sg7
L2L
sg52
VAbstract classes can override this to customize issubclass().\u000a\u000aThis is invoked early on by abc.ABCMeta.__subclasscheck__().\u000aIt should return True, False or NotImplemented.  If it returns\u000aNotImplemented, the normal algorithm is used.  Otherwise, it\u000aoverrides the normal algorithm (and the outcome is cached).\u000a
p98
sa(dp99
g4
I01
sg5
V__weakref__
p100
sg7
L5L
sa(dp101
g4
I01
sg5
Vcreate_module
p102
sg7
L5L
sa(dp103
g4
I01
sg5
Vexec_module
p104
sg7
L5L
sa(dp105
g4
I01
sg5
Vfind_module
p106
sg7
L5L
sa(dp107
g4
I01
sg5
Vfind_spec
p108
sg7
L5L
sa(dp109
g4
I01
sg5
Vget_code
p110
sg7
L5L
sa(dp111
g4
I01
sg5
Vget_source
p112
sg7
L5L
sa(dp113
g4
I01
sg5
Vis_package
p114
sg7
L5L
sa(dp115
g4
I01
sg5
Vload_module
p116
sg7
L5L
sa(dp117
g4
I01
sg5
Vmodule_repr
p118
sg7
L5L
sasg4
I01
sg5
V__loader__
p119
sg7
L3L
sg52
VMeta path import for built-in modules.\u000a\u000a    All methods are either class or static methods to avoid the need to\u000a    instantiate the class.\u000a\u000a    
p120
sa(dp121
g4
I01
sg5
V__name__
p122
sg7
L5L
sa(dp123
g4
I01
sg5
V__package__
p124
sg7
L5L
sa(dp125
g4
I01
sg5
V__spec__
p126
sg7
L5L
sa(dp127
g4
I01
sg5
Vsymtable
p128
sg7
L2L
sg52
VReturn symbol and scope dictionaries used internally by compiler.
p129
sasg4
I01
sg5
V_symtable
p130
sg52
Ns.