(dp0
Vchilds
p1
(lp2
(dp3
g1
(lp4
(dp5
Vis_builtin
p6
I01
sVname
p7
V__abs__
p8
sVtype
p9
L5L
sa(dp10
g6
I01
sg7
V__add__
p11
sg9
L5L
sa(dp12
g6
I01
sg7
V__and__
p13
sg9
L5L
sa(dp14
g6
I01
sg7
V__bool__
p15
sg9
L5L
sa(dp16
g6
I01
sg7
V__call__
p17
sg9
L5L
sa(dp18
g6
I01
sg7
V__contains__
p19
sg9
L5L
sa(dp20
g6
I01
sg7
V__delattr__
p21
sg9
L5L
sa(dp22
g6
I01
sg7
V__delitem__
p23
sg9
L5L
sa(dp24
g6
I01
sg7
V__dir__
p25
sg9
L2L
sVdoc
p26
V__dir__() -> list\u000adefault dir() implementation
p27
sa(dp28
g6
I01
sg7
V__divmod__
p29
sg9
L5L
sa(dp30
g6
I01
sg7
V__doc__
p31
sg9
L5L
sa(dp32
g6
I01
sg7
V__eq__
p33
sg9
L5L
sa(dp34
g6
I01
sg7
V__float__
p35
sg9
L5L
sa(dp36
g6
I01
sg7
V__floordiv__
p37
sg9
L5L
sa(dp38
g6
I01
sg7
V__format__
p39
sg9
L2L
sg26
Vdefault object formatter
p40
sa(dp41
g6
I01
sg7
V__ge__
p42
sg9
L5L
sa(dp43
g6
I01
sg7
V__getattribute__
p44
sg9
L5L
sa(dp45
g6
I01
sg7
V__getitem__
p46
sg9
L5L
sa(dp47
g6
I01
sg7
V__gt__
p48
sg9
L5L
sa(dp49
g6
I01
sg7
V__hash__
p50
sg9
L5L
sa(dp51
g6
I01
sg7
V__iadd__
p52
sg9
L5L
sa(dp53
g6
I01
sg7
V__iand__
p54
sg9
L5L
sa(dp55
g6
I01
sg7
V__ifloordiv__
p56
sg9
L5L
sa(dp57
g6
I01
sg7
V__ilshift__
p58
sg9
L5L
sa(dp59
g6
I01
sg7
V__imod__
p60
sg9
L5L
sa(dp61
g6
I01
sg7
V__imul__
p62
sg9
L5L
sa(dp63
g6
I01
sg7
V__index__
p64
sg9
L5L
sa(dp65
g6
I01
sg7
V__init__
p66
sg9
L5L
sa(dp67
g6
I01
sg7
V__int__
p68
sg9
L5L
sa(dp69
g6
I01
sg7
V__invert__
p70
sg9
L5L
sa(dp71
g6
I01
sg7
V__ior__
p72
sg9
L5L
sa(dp73
g6
I01
sg7
V__ipow__
p74
sg9
L5L
sa(dp75
g6
I01
sg7
V__irshift__
p76
sg9
L5L
sa(dp77
g6
I01
sg7
V__isub__
p78
sg9
L5L
sa(dp79
g6
I01
sg7
V__iter__
p80
sg9
L5L
sa(dp81
g6
I01
sg7
V__itruediv__
p82
sg9
L5L
sa(dp83
g6
I01
sg7
V__ixor__
p84
sg9
L5L
sa(dp85
g6
I01
sg7
V__le__
p86
sg9
L5L
sa(dp87
g6
I01
sg7
V__len__
p88
sg9
L5L
sa(dp89
g6
I01
sg7
V__lshift__
p90
sg9
L5L
sa(dp91
g6
I01
sg7
V__lt__
p92
sg9
L5L
sa(dp93
g6
I01
sg7
V__mod__
p94
sg9
L5L
sa(dp95
g6
I01
sg7
V__mul__
p96
sg9
L5L
sa(dp97
g6
I01
sg7
V__ne__
p98
sg9
L5L
sa(dp99
g6
I01
sg7
V__neg__
p100
sg9
L5L
sa(dp101
g6
I01
sg7
V__new__
p102
sg9
L2L
sg26
VCreate and return a new object.  See help(type) for accurate signature.
p103
sa(dp104
g6
I01
sg7
V__next__
p105
sg9
L5L
sa(dp106
g6
I01
sg7
V__or__
p107
sg9
L5L
sa(dp108
g6
I01
sg7
V__pos__
p109
sg9
L5L
sa(dp110
g6
I01
sg7
V__pow__
p111
sg9
L5L
sa(dp112
g6
I01
sg7
V__radd__
p113
sg9
L5L
sa(dp114
g6
I01
sg7
V__rand__
p115
sg9
L5L
sa(dp116
g6
I01
sg7
V__rdivmod__
p117
sg9
L5L
sa(dp118
g6
I01
sg7
V__reduce__
p119
sg9
L2L
sg26
Vhelper for pickle
p120
sa(dp121
g6
I01
sg7
V__reduce_ex__
p122
sg9
L2L
sg26
Vhelper for pickle
p123
sa(dp124
g6
I01
sg7
V__repr__
p125
sg9
L5L
sa(dp126
g6
I01
sg7
V__rfloordiv__
p127
sg9
L5L
sa(dp128
g6
I01
sg7
V__rlshift__
p129
sg9
L5L
sa(dp130
g6
I01
sg7
V__rmod__
p131
sg9
L5L
sa(dp132
g6
I01
sg7
V__rmul__
p133
sg9
L5L
sa(dp134
g6
I01
sg7
V__ror__
p135
sg9
L5L
sa(dp136
g6
I01
sg7
V__rpow__
p137
sg9
L5L
sa(dp138
g6
I01
sg7
V__rrshift__
p139
sg9
L5L
sa(dp140
g6
I01
sg7
V__rshift__
p141
sg9
L5L
sa(dp142
g6
I01
sg7
V__rsub__
p143
sg9
L5L
sa(dp144
g6
I01
sg7
V__rtruediv__
p145
sg9
L5L
sa(dp146
g6
I01
sg7
V__rxor__
p147
sg9
L5L
sa(dp148
g6
I01
sg7
V__setattr__
p149
sg9
L5L
sa(dp150
g6
I01
sg7
V__setitem__
p151
sg9
L5L
sa(dp152
g6
I01
sg7
V__sizeof__
p153
sg9
L2L
sg26
V__sizeof__() -> int\u000asize of object in memory, in bytes
p154
sa(dp155
g6
I01
sg7
V__str__
p156
sg9
L5L
sa(dp157
g6
I01
sg7
V__sub__
p158
sg9
L5L
sa(dp159
g6
I01
sg7
V__subclasshook__
p160
sg9
L2L
sg26
VAbstract classes can override this to customize issubclass().\u000a\u000aThis is invoked early on by abc.ABCMeta.__subclasscheck__().\u000aIt should return True, False or NotImplemented.  If it returns\u000aNotImplemented, the normal algorithm is used.  Otherwise, it\u000aoverrides the normal algorithm (and the outcome is cached).\u000a
p161
sa(dp162
g6
I01
sg7
V__truediv__
p163
sg9
L5L
sa(dp164
g6
I01
sg7
V__xor__
p165
sg9
L5L
sasg6
I01
sg7
VCallableProxyType
p166
sg9
L3L
sg26
Nsa(dp167
g1
(lp168
(dp169
g6
I01
sg7
g8
sg9
L5L
sa(dp170
g6
I01
sg7
g11
sg9
L5L
sa(dp171
g6
I01
sg7
g13
sg9
L5L
sa(dp172
g6
I01
sg7
g15
sg9
L5L
sa(dp173
g6
I01
sg7
V__bytes__
p174
sg9
L2L
sg26
Nsa(dp175
g6
I01
sg7
g19
sg9
L5L
sa(dp176
g6
I01
sg7
g21
sg9
L5L
sa(dp177
g6
I01
sg7
g23
sg9
L5L
sa(dp178
g6
I01
sg7
g25
sg9
L2L
sg26
V__dir__() -> list\u000adefault dir() implementation
p179
sa(dp180
g6
I01
sg7
g29
sg9
L5L
sa(dp181
g6
I01
sg7
g31
sg9
L5L
sa(dp182
g6
I01
sg7
g33
sg9
L5L
sa(dp183
g6
I01
sg7
g35
sg9
L5L
sa(dp184
g6
I01
sg7
g37
sg9
L5L
sa(dp185
g6
I01
sg7
g39
sg9
L2L
sg26
Vdefault object formatter
p186
sa(dp187
g6
I01
sg7
g42
sg9
L5L
sa(dp188
g6
I01
sg7
g44
sg9
L5L
sa(dp189
g6
I01
sg7
g46
sg9
L5L
sa(dp190
g6
I01
sg7
g48
sg9
L5L
sa(dp191
g6
I01
sg7
g50
sg9
L5L
sa(dp192
g6
I01
sg7
g52
sg9
L5L
sa(dp193
g6
I01
sg7
g54
sg9
L5L
sa(dp194
g6
I01
sg7
g56
sg9
L5L
sa(dp195
g6
I01
sg7
g58
sg9
L5L
sa(dp196
g6
I01
sg7
g60
sg9
L5L
sa(dp197
g6
I01
sg7
g62
sg9
L5L
sa(dp198
g6
I01
sg7
g64
sg9
L5L
sa(dp199
g6
I01
sg7
g66
sg9
L5L
sa(dp200
g6
I01
sg7
g68
sg9
L5L
sa(dp201
g6
I01
sg7
g70
sg9
L5L
sa(dp202
g6
I01
sg7
g72
sg9
L5L
sa(dp203
g6
I01
sg7
g74
sg9
L5L
sa(dp204
g6
I01
sg7
g76
sg9
L5L
sa(dp205
g6
I01
sg7
g78
sg9
L5L
sa(dp206
g6
I01
sg7
g80
sg9
L5L
sa(dp207
g6
I01
sg7
g82
sg9
L5L
sa(dp208
g6
I01
sg7
g84
sg9
L5L
sa(dp209
g6
I01
sg7
g86
sg9
L5L
sa(dp210
g6
I01
sg7
g88
sg9
L5L
sa(dp211
g6
I01
sg7
g90
sg9
L5L
sa(dp212
g6
I01
sg7
g92
sg9
L5L
sa(dp213
g6
I01
sg7
g94
sg9
L5L
sa(dp214
g6
I01
sg7
g96
sg9
L5L
sa(dp215
g6
I01
sg7
g98
sg9
L5L
sa(dp216
g6
I01
sg7
g100
sg9
L5L
sa(dp217
g6
I01
sg7
g102
sg9
L2L
sg26
VCreate and return a new object.  See help(type) for accurate signature.
p218
sa(dp219
g6
I01
sg7
g105
sg9
L5L
sa(dp220
g6
I01
sg7
g107
sg9
L5L
sa(dp221
g6
I01
sg7
g109
sg9
L5L
sa(dp222
g6
I01
sg7
g111
sg9
L5L
sa(dp223
g6
I01
sg7
g113
sg9
L5L
sa(dp224
g6
I01
sg7
g115
sg9
L5L
sa(dp225
g6
I01
sg7
g117
sg9
L5L
sa(dp226
g6
I01
sg7
g119
sg9
L2L
sg26
Vhelper for pickle
p227
sa(dp228
g6
I01
sg7
g122
sg9
L2L
sg26
Vhelper for pickle
p229
sa(dp230
g6
I01
sg7
g125
sg9
L5L
sa(dp231
g6
I01
sg7
g127
sg9
L5L
sa(dp232
g6
I01
sg7
g129
sg9
L5L
sa(dp233
g6
I01
sg7
g131
sg9
L5L
sa(dp234
g6
I01
sg7
g133
sg9
L5L
sa(dp235
g6
I01
sg7
g135
sg9
L5L
sa(dp236
g6
I01
sg7
g137
sg9
L5L
sa(dp237
g6
I01
sg7
g139
sg9
L5L
sa(dp238
g6
I01
sg7
g141
sg9
L5L
sa(dp239
g6
I01
sg7
g143
sg9
L5L
sa(dp240
g6
I01
sg7
g145
sg9
L5L
sa(dp241
g6
I01
sg7
g147
sg9
L5L
sa(dp242
g6
I01
sg7
g149
sg9
L5L
sa(dp243
g6
I01
sg7
g151
sg9
L5L
sa(dp244
g6
I01
sg7
g153
sg9
L2L
sg26
V__sizeof__() -> int\u000asize of object in memory, in bytes
p245
sa(dp246
g6
I01
sg7
g156
sg9
L5L
sa(dp247
g6
I01
sg7
g158
sg9
L5L
sa(dp248
g6
I01
sg7
g160
sg9
L2L
sg26
VAbstract classes can override this to customize issubclass().\u000a\u000aThis is invoked early on by abc.ABCMeta.__subclasscheck__().\u000aIt should return True, False or NotImplemented.  If it returns\u000aNotImplemented, the normal algorithm is used.  Otherwise, it\u000aoverrides the normal algorithm (and the outcome is cached).\u000a
p249
sa(dp250
g6
I01
sg7
g163
sg9
L5L
sa(dp251
g6
I01
sg7
g165
sg9
L5L
sasg6
I01
sg7
VProxyType
p252
sg9
L3L
sg26
Nsa(dp253
g1
(lp254
(dp255
g6
I01
sg7
g17
sg9
L5L
sa(dp256
g6
I01
sg7
V__callback__
p257
sg9
L5L
sa(dp258
g6
I01
sg7
g21
sg9
L5L
sa(dp259
g6
I01
sg7
g25
sg9
L2L
sg26
V__dir__() -> list\u000adefault dir() implementation
p260
sa(dp261
g6
I01
sg7
g31
sg9
L5L
sa(dp262
g6
I01
sg7
g33
sg9
L5L
sa(dp263
g6
I01
sg7
g39
sg9
L2L
sg26
Vdefault object formatter
p264
sa(dp265
g6
I01
sg7
g42
sg9
L5L
sa(dp266
g6
I01
sg7
g44
sg9
L5L
sa(dp267
g6
I01
sg7
g48
sg9
L5L
sa(dp268
g6
I01
sg7
g50
sg9
L5L
sa(dp269
g6
I01
sg7
g66
sg9
L5L
sa(dp270
g6
I01
sg7
g86
sg9
L5L
sa(dp271
g6
I01
sg7
g92
sg9
L5L
sa(dp272
g6
I01
sg7
g98
sg9
L5L
sa(dp273
g6
I01
sg7
g102
sg9
L2L
sg26
VCreate and return a new object.  See help(type) for accurate signature.
p274
sa(dp275
g6
I01
sg7
g119
sg9
L2L
sg26
Vhelper for pickle
p276
sa(dp277
g6
I01
sg7
g122
sg9
L2L
sg26
Vhelper for pickle
p278
sa(dp279
g6
I01
sg7
g125
sg9
L5L
sa(dp280
g6
I01
sg7
g149
sg9
L5L
sa(dp281
g6
I01
sg7
g153
sg9
L2L
sg26
V__sizeof__() -> int\u000asize of object in memory, in bytes
p282
sa(dp283
g6
I01
sg7
g156
sg9
L5L
sa(dp284
g6
I01
sg7
g160
sg9
L2L
sg26
VAbstract classes can override this to customize issubclass().\u000a\u000aThis is invoked early on by abc.ABCMeta.__subclasscheck__().\u000aIt should return True, False or NotImplemented.  If it returns\u000aNotImplemented, the normal algorithm is used.  Otherwise, it\u000aoverrides the normal algorithm (and the outcome is cached).\u000a
p285
sasg6
I01
sg7
VReferenceType
p286
sg9
L3L
sg26
Nsa(dp287
g6
I01
sg7
g31
sg9
L5L
sa(dp288
g1
(lp289
(dp290
g6
I01
sg7
g21
sg9
L5L
sa(dp291
g6
I01
sg7
V__dict__
p292
sg9
L5L
sa(dp293
g6
I01
sg7
g25
sg9
L2L
sg26
V__dir__() -> list\u000adefault dir() implementation
p294
sa(dp295
g6
I01
sg7
g31
sg9
L5L
sa(dp296
g6
I01
sg7
g33
sg9
L5L
sa(dp297
g6
I01
sg7
g39
sg9
L2L
sg26
Vdefault object formatter
p298
sa(dp299
g6
I01
sg7
g42
sg9
L5L
sa(dp300
g6
I01
sg7
g44
sg9
L5L
sa(dp301
g6
I01
sg7
g48
sg9
L5L
sa(dp302
g6
I01
sg7
g50
sg9
L5L
sa(dp303
g6
I01
sg7
g66
sg9
L5L
sa(dp304
g6
I01
sg7
g86
sg9
L5L
sa(dp305
g6
I01
sg7
g92
sg9
L5L
sa(dp306
g6
I01
sg7
V__module__
p307
sg9
L5L
sa(dp308
g6
I01
sg7
g98
sg9
L5L
sa(dp309
g6
I01
sg7
g102
sg9
L2L
sg26
VCreate and return a new object.  See help(type) for accurate signature.
p310
sa(dp311
g6
I01
sg7
g119
sg9
L2L
sg26
Vhelper for pickle
p312
sa(dp313
g6
I01
sg7
g122
sg9
L2L
sg26
Vhelper for pickle
p314
sa(dp315
g6
I01
sg7
g125
sg9
L5L
sa(dp316
g6
I01
sg7
g149
sg9
L5L
sa(dp317
g6
I01
sg7
g153
sg9
L2L
sg26
V__sizeof__() -> int\u000asize of object in memory, in bytes
p318
sa(dp319
g6
I01
sg7
g156
sg9
L5L
sa(dp320
g6
I01
sg7
g160
sg9
L2L
sg26
VAbstract classes can override this to customize issubclass().\u000a\u000aThis is invoked early on by abc.ABCMeta.__subclasscheck__().\u000aIt should return True, False or NotImplemented.  If it returns\u000aNotImplemented, the normal algorithm is used.  Otherwise, it\u000aoverrides the normal algorithm (and the outcome is cached).\u000a
p321
sa(dp322
g6
I01
sg7
V__weakref__
p323
sg9
L5L
sa(dp324
g6
I01
sg7
Vcreate_module
p325
sg9
L5L
sa(dp326
g6
I01
sg7
Vexec_module
p327
sg9
L5L
sa(dp328
g6
I01
sg7
Vfind_module
p329
sg9
L5L
sa(dp330
g6
I01
sg7
Vfind_spec
p331
sg9
L5L
sa(dp332
g6
I01
sg7
Vget_code
p333
sg9
L5L
sa(dp334
g6
I01
sg7
Vget_source
p335
sg9
L5L
sa(dp336
g6
I01
sg7
Vis_package
p337
sg9
L5L
sa(dp338
g6
I01
sg7
Vload_module
p339
sg9
L5L
sa(dp340
g6
I01
sg7
Vmodule_repr
p341
sg9
L5L
sasg6
I01
sg7
V__loader__
p342
sg9
L3L
sg26
VMeta path import for built-in modules.\u000a\u000a    All methods are either class or static methods to avoid the need to\u000a    instantiate the class.\u000a\u000a    
p343
sa(dp344
g6
I01
sg7
V__name__
p345
sg9
L5L
sa(dp346
g6
I01
sg7
V__package__
p347
sg9
L5L
sa(dp348
g6
I01
sg7
V__spec__
p349
sg9
L5L
sa(dp350
g6
I01
sg7
Vgetweakrefcount
p351
sg9
L2L
sg26
VReturn the number of weak references to 'object'.
p352
sa(dp353
g6
I01
sg7
Vgetweakrefs
p354
sg9
L2L
sg26
Vgetweakrefs(object) -- return a list of all weak reference objects\u000athat point to 'object'.
p355
sa(dp356
g6
I01
sg7
Vproxy
p357
sg9
L2L
sg26
Vproxy(object[, callback]) -- create a proxy object that weakly\u000areferences 'object'.  'callback', if given, is called with a\u000areference to the proxy when 'object' is about to be finalized.
p358
sa(dp359
g1
(lp360
(dp361
g6
I01
sg7
g17
sg9
L5L
sa(dp362
g6
I01
sg7
g257
sg9
L5L
sa(dp363
g6
I01
sg7
g21
sg9
L5L
sa(dp364
g6
I01
sg7
g25
sg9
L2L
sg26
V__dir__() -> list\u000adefault dir() implementation
p365
sa(dp366
g6
I01
sg7
g31
sg9
L5L
sa(dp367
g6
I01
sg7
g33
sg9
L5L
sa(dp368
g6
I01
sg7
g39
sg9
L2L
sg26
Vdefault object formatter
p369
sa(dp370
g6
I01
sg7
g42
sg9
L5L
sa(dp371
g6
I01
sg7
g44
sg9
L5L
sa(dp372
g6
I01
sg7
g48
sg9
L5L
sa(dp373
g6
I01
sg7
g50
sg9
L5L
sa(dp374
g6
I01
sg7
g66
sg9
L5L
sa(dp375
g6
I01
sg7
g86
sg9
L5L
sa(dp376
g6
I01
sg7
g92
sg9
L5L
sa(dp377
g6
I01
sg7
g98
sg9
L5L
sa(dp378
g6
I01
sg7
g102
sg9
L2L
sg26
VCreate and return a new object.  See help(type) for accurate signature.
p379
sa(dp380
g6
I01
sg7
g119
sg9
L2L
sg26
Vhelper for pickle
p381
sa(dp382
g6
I01
sg7
g122
sg9
L2L
sg26
Vhelper for pickle
p383
sa(dp384
g6
I01
sg7
g125
sg9
L5L
sa(dp385
g6
I01
sg7
g149
sg9
L5L
sa(dp386
g6
I01
sg7
g153
sg9
L2L
sg26
V__sizeof__() -> int\u000asize of object in memory, in bytes
p387
sa(dp388
g6
I01
sg7
g156
sg9
L5L
sa(dp389
g6
I01
sg7
g160
sg9
L2L
sg26
VAbstract classes can override this to customize issubclass().\u000a\u000aThis is invoked early on by abc.ABCMeta.__subclasscheck__().\u000aIt should return True, False or NotImplemented.  If it returns\u000aNotImplemented, the normal algorithm is used.  Otherwise, it\u000aoverrides the normal algorithm (and the outcome is cached).\u000a
p390
sasg6
I01
sg7
Vref
p391
sg9
L3L
sg26
Nsasg6
I01
sg7
V_weakref
p392
sg26
VWeak-reference support module.
p393
s.