(dp0
Vchilds
p1
(lp2
(dp3
g1
(lp4
(dp5
Vis_builtin
p6
I01
sVname
p7
V__cause__
p8
sVtype
p9
L5L
sa(dp10
g6
I01
sg7
V__context__
p11
sg9
L5L
sa(dp12
g6
I01
sg7
V__delattr__
p13
sg9
L5L
sa(dp14
g6
I01
sg7
V__dict__
p15
sg9
L5L
sa(dp16
g6
I01
sg7
V__dir__
p17
sg9
L2L
sVdoc
p18
V__dir__() -> list\u000adefault dir() implementation
p19
sa(dp20
g6
I01
sg7
V__doc__
p21
sg9
L5L
sa(dp22
g6
I01
sg7
V__eq__
p23
sg9
L5L
sa(dp24
g6
I01
sg7
V__format__
p25
sg9
L2L
sg18
Vdefault object formatter
p26
sa(dp27
g6
I01
sg7
V__ge__
p28
sg9
L5L
sa(dp29
g6
I01
sg7
V__getattribute__
p30
sg9
L5L
sa(dp31
g6
I01
sg7
V__gt__
p32
sg9
L5L
sa(dp33
g6
I01
sg7
V__hash__
p34
sg9
L5L
sa(dp35
g6
I01
sg7
V__init__
p36
sg9
L5L
sa(dp37
g6
I01
sg7
V__le__
p38
sg9
L5L
sa(dp39
g6
I01
sg7
V__lt__
p40
sg9
L5L
sa(dp41
g6
I01
sg7
V__module__
p42
sg9
L5L
sa(dp43
g6
I01
sg7
V__ne__
p44
sg9
L5L
sa(dp45
g6
I01
sg7
V__new__
p46
sg9
L2L
sg18
VCreate and return a new object.  See help(type) for accurate signature.
p47
sa(dp48
g6
I01
sg7
V__reduce__
p49
sg9
L2L
sg18
Nsa(dp50
g6
I01
sg7
V__reduce_ex__
p51
sg9
L2L
sg18
Vhelper for pickle
p52
sa(dp53
g6
I01
sg7
V__repr__
p54
sg9
L5L
sa(dp55
g6
I01
sg7
V__setattr__
p56
sg9
L5L
sa(dp57
g6
I01
sg7
V__setstate__
p58
sg9
L2L
sg18
Nsa(dp59
g6
I01
sg7
V__sizeof__
p60
sg9
L2L
sg18
V__sizeof__() -> int\u000asize of object in memory, in bytes
p61
sa(dp62
g6
I01
sg7
V__str__
p63
sg9
L5L
sa(dp64
g6
I01
sg7
V__subclasshook__
p65
sg9
L2L
sg18
VAbstract classes can override this to customize issubclass().\u000a\u000aThis is invoked early on by abc.ABCMeta.__subclasscheck__().\u000aIt should return True, False or NotImplemented.  If it returns\u000aNotImplemented, the normal algorithm is used.  Otherwise, it\u000aoverrides the normal algorithm (and the outcome is cached).\u000a
p66
sa(dp67
g6
I01
sg7
V__suppress_context__
p68
sg9
L5L
sa(dp69
g6
I01
sg7
V__traceback__
p70
sg9
L5L
sa(dp71
g6
I01
sg7
V__weakref__
p72
sg9
L5L
sa(dp73
g6
I01
sg7
Vargs
p74
sg9
L5L
sa(dp75
g6
I01
sg7
Vwith_traceback
p76
sg9
L2L
sg18
VException.with_traceback(tb) --\u000a    set self.__traceback__ to tb and return self.
p77
sasg6
I01
sg7
VError
p78
sg9
L3L
sg18
Nsa(dp79
g1
(lp80
(dp81
g6
I01
sg7
g8
sg9
L5L
sa(dp82
g6
I01
sg7
g11
sg9
L5L
sa(dp83
g6
I01
sg7
g13
sg9
L5L
sa(dp84
g6
I01
sg7
g15
sg9
L5L
sa(dp85
g6
I01
sg7
g17
sg9
L2L
sg18
V__dir__() -> list\u000adefault dir() implementation
p86
sa(dp87
g6
I01
sg7
g21
sg9
L5L
sa(dp88
g6
I01
sg7
g23
sg9
L5L
sa(dp89
g6
I01
sg7
g25
sg9
L2L
sg18
Vdefault object formatter
p90
sa(dp91
g6
I01
sg7
g28
sg9
L5L
sa(dp92
g6
I01
sg7
g30
sg9
L5L
sa(dp93
g6
I01
sg7
g32
sg9
L5L
sa(dp94
g6
I01
sg7
g34
sg9
L5L
sa(dp95
g6
I01
sg7
g36
sg9
L5L
sa(dp96
g6
I01
sg7
g38
sg9
L5L
sa(dp97
g6
I01
sg7
g40
sg9
L5L
sa(dp98
g6
I01
sg7
g42
sg9
L5L
sa(dp99
g6
I01
sg7
g44
sg9
L5L
sa(dp100
g6
I01
sg7
g46
sg9
L2L
sg18
VCreate and return a new object.  See help(type) for accurate signature.
p101
sa(dp102
g6
I01
sg7
g49
sg9
L2L
sg18
Nsa(dp103
g6
I01
sg7
g51
sg9
L2L
sg18
Vhelper for pickle
p104
sa(dp105
g6
I01
sg7
g54
sg9
L5L
sa(dp106
g6
I01
sg7
g56
sg9
L5L
sa(dp107
g6
I01
sg7
g58
sg9
L2L
sg18
Nsa(dp108
g6
I01
sg7
g60
sg9
L2L
sg18
V__sizeof__() -> int\u000asize of object in memory, in bytes
p109
sa(dp110
g6
I01
sg7
g63
sg9
L5L
sa(dp111
g6
I01
sg7
g65
sg9
L2L
sg18
VAbstract classes can override this to customize issubclass().\u000a\u000aThis is invoked early on by abc.ABCMeta.__subclasscheck__().\u000aIt should return True, False or NotImplemented.  If it returns\u000aNotImplemented, the normal algorithm is used.  Otherwise, it\u000aoverrides the normal algorithm (and the outcome is cached).\u000a
p112
sa(dp113
g6
I01
sg7
g68
sg9
L5L
sa(dp114
g6
I01
sg7
g70
sg9
L5L
sa(dp115
g6
I01
sg7
g72
sg9
L5L
sa(dp116
g6
I01
sg7
g74
sg9
L5L
sa(dp117
g6
I01
sg7
g76
sg9
L2L
sg18
VException.with_traceback(tb) --\u000a    set self.__traceback__ to tb and return self.
p118
sasg6
I01
sg7
VIncomplete
p119
sg9
L3L
sg18
Nsa(dp120
g6
I01
sg7
g21
sg9
L5L
sa(dp121
g1
(lp122
(dp123
g6
I01
sg7
g13
sg9
L5L
sa(dp124
g6
I01
sg7
g15
sg9
L5L
sa(dp125
g6
I01
sg7
g17
sg9
L2L
sg18
V__dir__() -> list\u000adefault dir() implementation
p126
sa(dp127
g6
I01
sg7
g21
sg9
L5L
sa(dp128
g6
I01
sg7
g23
sg9
L5L
sa(dp129
g6
I01
sg7
g25
sg9
L2L
sg18
Vdefault object formatter
p130
sa(dp131
g6
I01
sg7
g28
sg9
L5L
sa(dp132
g6
I01
sg7
g30
sg9
L5L
sa(dp133
g6
I01
sg7
g32
sg9
L5L
sa(dp134
g6
I01
sg7
g34
sg9
L5L
sa(dp135
g6
I01
sg7
g36
sg9
L5L
sa(dp136
g6
I01
sg7
g38
sg9
L5L
sa(dp137
g6
I01
sg7
g40
sg9
L5L
sa(dp138
g6
I01
sg7
g42
sg9
L5L
sa(dp139
g6
I01
sg7
g44
sg9
L5L
sa(dp140
g6
I01
sg7
g46
sg9
L2L
sg18
VCreate and return a new object.  See help(type) for accurate signature.
p141
sa(dp142
g6
I01
sg7
g49
sg9
L2L
sg18
Vhelper for pickle
p143
sa(dp144
g6
I01
sg7
g51
sg9
L2L
sg18
Vhelper for pickle
p145
sa(dp146
g6
I01
sg7
g54
sg9
L5L
sa(dp147
g6
I01
sg7
g56
sg9
L5L
sa(dp148
g6
I01
sg7
g60
sg9
L2L
sg18
V__sizeof__() -> int\u000asize of object in memory, in bytes
p149
sa(dp150
g6
I01
sg7
g63
sg9
L5L
sa(dp151
g6
I01
sg7
g65
sg9
L2L
sg18
VAbstract classes can override this to customize issubclass().\u000a\u000aThis is invoked early on by abc.ABCMeta.__subclasscheck__().\u000aIt should return True, False or NotImplemented.  If it returns\u000aNotImplemented, the normal algorithm is used.  Otherwise, it\u000aoverrides the normal algorithm (and the outcome is cached).\u000a
p152
sa(dp153
g6
I01
sg7
g72
sg9
L5L
sa(dp154
g6
I01
sg7
Vcreate_module
p155
sg9
L5L
sa(dp156
g6
I01
sg7
Vexec_module
p157
sg9
L5L
sa(dp158
g6
I01
sg7
Vfind_module
p159
sg9
L5L
sa(dp160
g6
I01
sg7
Vfind_spec
p161
sg9
L5L
sa(dp162
g6
I01
sg7
Vget_code
p163
sg9
L5L
sa(dp164
g6
I01
sg7
Vget_source
p165
sg9
L5L
sa(dp166
g6
I01
sg7
Vis_package
p167
sg9
L5L
sa(dp168
g6
I01
sg7
Vload_module
p169
sg9
L5L
sa(dp170
g6
I01
sg7
Vmodule_repr
p171
sg9
L5L
sasg6
I01
sg7
V__loader__
p172
sg9
L3L
sg18
VMeta path import for built-in modules.\u000a\u000a    All methods are either class or static methods to avoid the need to\u000a    instantiate the class.\u000a\u000a    
p173
sa(dp174
g6
I01
sg7
V__name__
p175
sg9
L5L
sa(dp176
g6
I01
sg7
V__package__
p177
sg9
L5L
sa(dp178
g6
I01
sg7
V__spec__
p179
sg9
L5L
sa(dp180
g6
I01
sg7
Va2b_base64
p181
sg9
L2L
sg18
VDecode a line of base64 data.
p182
sa(dp183
g6
I01
sg7
Va2b_hex
p184
sg9
L2L
sg18
VBinary data of hexadecimal representation.\u000a\u000ahexstr must contain an even number of hex digits (upper or lower case).\u000aThis function is also available as "unhexlify()".
p185
sa(dp186
g6
I01
sg7
Va2b_hqx
p187
sg9
L2L
sg18
VDecode .hqx coding.
p188
sa(dp189
g6
I01
sg7
Va2b_qp
p190
sg9
L2L
sg18
VDecode a string of qp-encoded data.
p191
sa(dp192
g6
I01
sg7
Va2b_uu
p193
sg9
L2L
sg18
VDecode a line of uuencoded data.
p194
sa(dp195
g6
I01
sg7
Vb2a_base64
p196
sg9
L2L
sg18
VBase64-code line of data.
p197
sa(dp198
g6
I01
sg7
Vb2a_hex
p199
sg9
L2L
sg18
VHexadecimal representation of binary data.\u000a\u000aThe return value is a bytes object.  This function is also\u000aavailable as "hexlify()".
p200
sa(dp201
g6
I01
sg7
Vb2a_hqx
p202
sg9
L2L
sg18
VEncode .hqx data.
p203
sa(dp204
g6
I01
sg7
Vb2a_qp
p205
sg9
L2L
sg18
VEncode a string using quoted-printable encoding.\u000a\u000aOn encoding, when istext is set, newlines are not encoded, and white\u000aspace at end of lines is.  When istext is not set, \u005cr and \u005cn (CR/LF)\u000aare both encoded.  When quotetabs is set, space and tabs are encoded.
p206
sa(dp207
g6
I01
sg7
Vb2a_uu
p208
sg9
L2L
sg18
VUuencode line of data.
p209
sa(dp210
g6
I01
sg7
Vcrc32
p211
sg9
L2L
sg18
VCompute CRC-32 incrementally.
p212
sa(dp213
g6
I01
sg7
Vcrc_hqx
p214
sg9
L2L
sg18
VCompute hqx CRC incrementally.
p215
sa(dp216
g6
I01
sg7
Vhexlify
p217
sg9
L2L
sg18
VHexadecimal representation of binary data.\u000a\u000aThe return value is a bytes object.
p218
sa(dp219
g6
I01
sg7
Vrlecode_hqx
p220
sg9
L2L
sg18
VBinhex RLE-code binary data.
p221
sa(dp222
g6
I01
sg7
Vrledecode_hqx
p223
sg9
L2L
sg18
VDecode hexbin RLE-coded string.
p224
sa(dp225
g6
I01
sg7
Vunhexlify
p226
sg9
L2L
sg18
VBinary data of hexadecimal representation.\u000a\u000ahexstr must contain an even number of hex digits (upper or lower case).
p227
sasg6
I01
sg7
Vbinascii
p228
sg18
VConversion between binary data and ASCII
p229
s.