(dp0
Vchilds
p1
(lp2
(dp3
Vis_builtin
p4
I01
sVname
p5
V__doc__
p6
sVtype
p7
L5L
sa(dp8
g1
(lp9
(dp10
g4
I01
sg5
V__delattr__
p11
sg7
L5L
sa(dp12
g4
I01
sg5
V__dict__
p13
sg7
L5L
sa(dp14
g4
I01
sg5
V__dir__
p15
sg7
L2L
sVdoc
p16
V__dir__() -> list\u000adefault dir() implementation
p17
sa(dp18
g4
I01
sg5
g6
sg7
L5L
sa(dp19
g4
I01
sg5
V__eq__
p20
sg7
L5L
sa(dp21
g4
I01
sg5
V__format__
p22
sg7
L2L
sg16
Vdefault object formatter
p23
sa(dp24
g4
I01
sg5
V__ge__
p25
sg7
L5L
sa(dp26
g4
I01
sg5
V__getattribute__
p27
sg7
L5L
sa(dp28
g4
I01
sg5
V__gt__
p29
sg7
L5L
sa(dp30
g4
I01
sg5
V__hash__
p31
sg7
L5L
sa(dp32
g4
I01
sg5
V__init__
p33
sg7
L5L
sa(dp34
g4
I01
sg5
V__le__
p35
sg7
L5L
sa(dp36
g4
I01
sg5
V__lt__
p37
sg7
L5L
sa(dp38
g4
I01
sg5
V__module__
p39
sg7
L5L
sa(dp40
g4
I01
sg5
V__ne__
p41
sg7
L5L
sa(dp42
g4
I01
sg5
V__new__
p43
sg7
L2L
sg16
VCreate and return a new object.  See help(type) for accurate signature.
p44
sa(dp45
g4
I01
sg5
V__reduce__
p46
sg7
L2L
sg16
Vhelper for pickle
p47
sa(dp48
g4
I01
sg5
V__reduce_ex__
p49
sg7
L2L
sg16
Vhelper for pickle
p50
sa(dp51
g4
I01
sg5
V__repr__
p52
sg7
L5L
sa(dp53
g4
I01
sg5
V__setattr__
p54
sg7
L5L
sa(dp55
g4
I01
sg5
V__sizeof__
p56
sg7
L2L
sg16
V__sizeof__() -> int\u000asize of object in memory, in bytes
p57
sa(dp58
g4
I01
sg5
V__str__
p59
sg7
L5L
sa(dp60
g4
I01
sg5
V__subclasshook__
p61
sg7
L2L
sg16
VAbstract classes can override this to customize issubclass().\u000a\u000aThis is invoked early on by abc.ABCMeta.__subclasscheck__().\u000aIt should return True, False or NotImplemented.  If it returns\u000aNotImplemented, the normal algorithm is used.  Otherwise, it\u000aoverrides the normal algorithm (and the outcome is cached).\u000a
p62
sa(dp63
g4
I01
sg5
V__weakref__
p64
sg7
L5L
sa(dp65
g4
I01
sg5
Vcreate_module
p66
sg7
L5L
sa(dp67
g4
I01
sg5
Vexec_module
p68
sg7
L5L
sa(dp69
g4
I01
sg5
Vfind_module
p70
sg7
L5L
sa(dp71
g4
I01
sg5
Vfind_spec
p72
sg7
L5L
sa(dp73
g4
I01
sg5
Vget_code
p74
sg7
L5L
sa(dp75
g4
I01
sg5
Vget_source
p76
sg7
L5L
sa(dp77
g4
I01
sg5
Vis_package
p78
sg7
L5L
sa(dp79
g4
I01
sg5
Vload_module
p80
sg7
L5L
sa(dp81
g4
I01
sg5
Vmodule_repr
p82
sg7
L5L
sasg4
I01
sg5
V__loader__
p83
sg7
L3L
sg16
VMeta path import for built-in modules.\u000a\u000a    All methods are either class or static methods to avoid the need to\u000a    instantiate the class.\u000a\u000a    
p84
sa(dp85
g4
I01
sg5
V__name__
p86
sg7
L5L
sa(dp87
g4
I01
sg5
V__package__
p88
sg7
L5L
sa(dp89
g4
I01
sg5
V__spec__
p90
sg7
L5L
sa(dp91
g4
I01
sg5
V_fatal_error
p92
sg7
L2L
sg16
V_fatal_error(message): call Py_FatalError(message)
p93
sa(dp94
g4
I01
sg5
V_read_null
p95
sg7
L2L
sg16
V_read_null(): read from NULL, raise a SIGSEGV or SIGBUS signal depending on the platform
p96
sa(dp97
g4
I01
sg5
V_sigabrt
p98
sg7
L2L
sg16
V_sigabrt(): raise a SIGABRT signal
p99
sa(dp100
g4
I01
sg5
V_sigfpe
p101
sg7
L2L
sg16
V_sigfpe(): raise a SIGFPE signal
p102
sa(dp103
g4
I01
sg5
V_sigsegv
p104
sg7
L2L
sg16
V_sigsegv(release_gil=False): raise a SIGSEGV signal
p105
sa(dp106
g4
I01
sg5
V_stack_overflow
p107
sg7
L2L
sg16
V_stack_overflow(): recursive call to raise a stack overflow
p108
sa(dp109
g4
I01
sg5
Vcancel_dump_traceback_later
p110
sg7
L2L
sg16
Vcancel_dump_traceback_later():\u000acancel the previous call to dump_traceback_later().
p111
sa(dp112
g4
I01
sg5
Vdisable
p113
sg7
L2L
sg16
Vdisable(): disable the fault handler
p114
sa(dp115
g4
I01
sg5
Vdump_traceback
p116
sg7
L2L
sg16
Vdump_traceback(file=sys.stderr, all_threads=True): dump the traceback of the current thread, or of all threads if all_threads is True, into file
p117
sa(dp118
g4
I01
sg5
Vdump_traceback_later
p119
sg7
L2L
sg16
Vdump_traceback_later(timeout, repeat=False, file=sys.stderrn, exit=False):\u000adump the traceback of all threads in timeout seconds,\u000aor each timeout seconds if repeat is True. If exit is True, call _exit(1) which is not safe.
p120
sa(dp121
g4
I01
sg5
Venable
p122
sg7
L2L
sg16
Venable(file=sys.stderr, all_threads=True): enable the fault handler
p123
sa(dp124
g4
I01
sg5
Vis_enabled
p125
sg7
L2L
sg16
Vis_enabled()->bool: check if the handler is enabled
p126
sa(dp127
g4
I01
sg5
Vregister
p128
sg7
L2L
sg16
Vregister(signum, file=sys.stderr, all_threads=True, chain=False): register a handler for the signal 'signum': dump the traceback of the current thread, or of all threads if all_threads is True, into file
p129
sa(dp130
g4
I01
sg5
Vunregister
p131
sg7
L2L
sg16
Vunregister(signum): unregister the handler of the signal 'signum' registered by register()
p132
sasg4
I01
sg5
Vfaulthandler
p133
sg16
Vfaulthandler module.
p134
s.