(dp0
Vchilds
p1
(lp2
(dp3
Vis_builtin
p4
I01
sVname
p5
V__doc__
p6
sVtype
p7
L5L
sa(dp8
g1
(lp9
(dp10
g4
I01
sg5
V__delattr__
p11
sg7
L5L
sa(dp12
g4
I01
sg5
V__dict__
p13
sg7
L5L
sa(dp14
g4
I01
sg5
V__dir__
p15
sg7
L2L
sVdoc
p16
V__dir__() -> list\u000adefault dir() implementation
p17
sa(dp18
g4
I01
sg5
g6
sg7
L5L
sa(dp19
g4
I01
sg5
V__eq__
p20
sg7
L5L
sa(dp21
g4
I01
sg5
V__format__
p22
sg7
L2L
sg16
Vdefault object formatter
p23
sa(dp24
g4
I01
sg5
V__ge__
p25
sg7
L5L
sa(dp26
g4
I01
sg5
V__getattribute__
p27
sg7
L5L
sa(dp28
g4
I01
sg5
V__gt__
p29
sg7
L5L
sa(dp30
g4
I01
sg5
V__hash__
p31
sg7
L5L
sa(dp32
g4
I01
sg5
V__init__
p33
sg7
L5L
sa(dp34
g4
I01
sg5
V__le__
p35
sg7
L5L
sa(dp36
g4
I01
sg5
V__lt__
p37
sg7
L5L
sa(dp38
g4
I01
sg5
V__module__
p39
sg7
L5L
sa(dp40
g4
I01
sg5
V__ne__
p41
sg7
L5L
sa(dp42
g4
I01
sg5
V__new__
p43
sg7
L2L
sg16
VCreate and return a new object.  See help(type) for accurate signature.
p44
sa(dp45
g4
I01
sg5
V__reduce__
p46
sg7
L2L
sg16
Vhelper for pickle
p47
sa(dp48
g4
I01
sg5
V__reduce_ex__
p49
sg7
L2L
sg16
Vhelper for pickle
p50
sa(dp51
g4
I01
sg5
V__repr__
p52
sg7
L5L
sa(dp53
g4
I01
sg5
V__setattr__
p54
sg7
L5L
sa(dp55
g4
I01
sg5
V__sizeof__
p56
sg7
L2L
sg16
V__sizeof__() -> int\u000asize of object in memory, in bytes
p57
sa(dp58
g4
I01
sg5
V__str__
p59
sg7
L5L
sa(dp60
g4
I01
sg5
V__subclasshook__
p61
sg7
L2L
sg16
VAbstract classes can override this to customize issubclass().\u000a\u000aThis is invoked early on by abc.ABCMeta.__subclasscheck__().\u000aIt should return True, False or NotImplemented.  If it returns\u000aNotImplemented, the normal algorithm is used.  Otherwise, it\u000aoverrides the normal algorithm (and the outcome is cached).\u000a
p62
sa(dp63
g4
I01
sg5
V__weakref__
p64
sg7
L5L
sa(dp65
g4
I01
sg5
Vcreate_module
p66
sg7
L5L
sa(dp67
g4
I01
sg5
Vexec_module
p68
sg7
L5L
sa(dp69
g4
I01
sg5
Vfind_module
p70
sg7
L5L
sa(dp71
g4
I01
sg5
Vfind_spec
p72
sg7
L5L
sa(dp73
g4
I01
sg5
Vget_code
p74
sg7
L5L
sa(dp75
g4
I01
sg5
Vget_source
p76
sg7
L5L
sa(dp77
g4
I01
sg5
Vis_package
p78
sg7
L5L
sa(dp79
g4
I01
sg5
Vload_module
p80
sg7
L5L
sa(dp81
g4
I01
sg5
Vmodule_repr
p82
sg7
L5L
sasg4
I01
sg5
V__loader__
p83
sg7
L3L
sg16
VMeta path import for built-in modules.\u000a\u000a    All methods are either class or static methods to avoid the need to\u000a    instantiate the class.\u000a\u000a    
p84
sa(dp85
g4
I01
sg5
V__name__
p86
sg7
L5L
sa(dp87
g4
I01
sg5
V__package__
p88
sg7
L5L
sa(dp89
g4
I01
sg5
V__spec__
p90
sg7
L5L
sa(dp91
g1
(lp92
(dp93
g4
I01
sg5
g11
sg7
L5L
sa(dp94
g4
I01
sg5
g15
sg7
L2L
sg16
V__dir__() -> list\u000adefault dir() implementation
p95
sa(dp96
g4
I01
sg5
g6
sg7
L5L
sa(dp97
g4
I01
sg5
g20
sg7
L5L
sa(dp98
g4
I01
sg5
g22
sg7
L2L
sg16
Vdefault object formatter
p99
sa(dp100
g4
I01
sg5
g25
sg7
L5L
sa(dp101
g4
I01
sg5
g27
sg7
L5L
sa(dp102
g4
I01
sg5
g29
sg7
L5L
sa(dp103
g4
I01
sg5
g31
sg7
L5L
sa(dp104
g4
I01
sg5
g33
sg7
L5L
sa(dp105
g4
I01
sg5
V__iter__
p106
sg7
L5L
sa(dp107
g4
I01
sg5
g35
sg7
L5L
sa(dp108
g4
I01
sg5
g37
sg7
L5L
sa(dp109
g4
I01
sg5
g41
sg7
L5L
sa(dp110
g4
I01
sg5
g43
sg7
L2L
sg16
VCreate and return a new object.  See help(type) for accurate signature.
p111
sa(dp112
g4
I01
sg5
V__next__
p113
sg7
L5L
sa(dp114
g4
I01
sg5
g46
sg7
L2L
sg16
VReturn state information for pickling.
p115
sa(dp116
g4
I01
sg5
g49
sg7
L2L
sg16
Vhelper for pickle
p117
sa(dp118
g4
I01
sg5
g52
sg7
L5L
sa(dp119
g4
I01
sg5
g54
sg7
L5L
sa(dp120
g4
I01
sg5
g56
sg7
L2L
sg16
V__sizeof__() -> int\u000asize of object in memory, in bytes
p121
sa(dp122
g4
I01
sg5
g59
sg7
L5L
sa(dp123
g4
I01
sg5
g61
sg7
L2L
sg16
VAbstract classes can override this to customize issubclass().\u000a\u000aThis is invoked early on by abc.ABCMeta.__subclasscheck__().\u000aIt should return True, False or NotImplemented.  If it returns\u000aNotImplemented, the normal algorithm is used.  Otherwise, it\u000aoverrides the normal algorithm (and the outcome is cached).\u000a
p124
sasg4
I01
sg5
V_grouper
p125
sg7
L3L
sg16
Nsa(dp126
g1
(lp127
(dp128
g4
I01
sg5
V__copy__
p129
sg7
L2L
sg16
VReturns an independent iterator.
p130
sa(dp131
g4
I01
sg5
g11
sg7
L5L
sa(dp132
g4
I01
sg5
g15
sg7
L2L
sg16
V__dir__() -> list\u000adefault dir() implementation
p133
sa(dp134
g4
I01
sg5
g6
sg7
L5L
sa(dp135
g4
I01
sg5
g20
sg7
L5L
sa(dp136
g4
I01
sg5
g22
sg7
L2L
sg16
Vdefault object formatter
p137
sa(dp138
g4
I01
sg5
g25
sg7
L5L
sa(dp139
g4
I01
sg5
g27
sg7
L5L
sa(dp140
g4
I01
sg5
g29
sg7
L5L
sa(dp141
g4
I01
sg5
g31
sg7
L5L
sa(dp142
g4
I01
sg5
g33
sg7
L5L
sa(dp143
g4
I01
sg5
g106
sg7
L5L
sa(dp144
g4
I01
sg5
g35
sg7
L5L
sa(dp145
g4
I01
sg5
g37
sg7
L5L
sa(dp146
g4
I01
sg5
g41
sg7
L5L
sa(dp147
g4
I01
sg5
g43
sg7
L2L
sg16
VCreate and return a new object.  See help(type) for accurate signature.
p148
sa(dp149
g4
I01
sg5
g113
sg7
L5L
sa(dp150
g4
I01
sg5
g46
sg7
L2L
sg16
VReturn state information for pickling.
p151
sa(dp152
g4
I01
sg5
g49
sg7
L2L
sg16
Vhelper for pickle
p153
sa(dp154
g4
I01
sg5
g52
sg7
L5L
sa(dp155
g4
I01
sg5
g54
sg7
L5L
sa(dp156
g4
I01
sg5
V__setstate__
p157
sg7
L2L
sg16
VSet state information for unpickling.
p158
sa(dp159
g4
I01
sg5
g56
sg7
L2L
sg16
V__sizeof__() -> int\u000asize of object in memory, in bytes
p160
sa(dp161
g4
I01
sg5
g59
sg7
L5L
sa(dp162
g4
I01
sg5
g61
sg7
L2L
sg16
VAbstract classes can override this to customize issubclass().\u000a\u000aThis is invoked early on by abc.ABCMeta.__subclasscheck__().\u000aIt should return True, False or NotImplemented.  If it returns\u000aNotImplemented, the normal algorithm is used.  Otherwise, it\u000aoverrides the normal algorithm (and the outcome is cached).\u000a
p163
sasg4
I01
sg5
V_tee
p164
sg7
L3L
sg16
VIterator wrapped to make it copyable
p165
sa(dp166
g1
(lp167
(dp168
g4
I01
sg5
g11
sg7
L5L
sa(dp169
g4
I01
sg5
g15
sg7
L2L
sg16
V__dir__() -> list\u000adefault dir() implementation
p170
sa(dp171
g4
I01
sg5
g6
sg7
L5L
sa(dp172
g4
I01
sg5
g20
sg7
L5L
sa(dp173
g4
I01
sg5
g22
sg7
L2L
sg16
Vdefault object formatter
p174
sa(dp175
g4
I01
sg5
g25
sg7
L5L
sa(dp176
g4
I01
sg5
g27
sg7
L5L
sa(dp177
g4
I01
sg5
g29
sg7
L5L
sa(dp178
g4
I01
sg5
g31
sg7
L5L
sa(dp179
g4
I01
sg5
g33
sg7
L5L
sa(dp180
g4
I01
sg5
g35
sg7
L5L
sa(dp181
g4
I01
sg5
g37
sg7
L5L
sa(dp182
g4
I01
sg5
g41
sg7
L5L
sa(dp183
g4
I01
sg5
g43
sg7
L2L
sg16
VCreate and return a new object.  See help(type) for accurate signature.
p184
sa(dp185
g4
I01
sg5
g46
sg7
L2L
sg16
VReturn state information for pickling.
p186
sa(dp187
g4
I01
sg5
g49
sg7
L2L
sg16
Vhelper for pickle
p188
sa(dp189
g4
I01
sg5
g52
sg7
L5L
sa(dp190
g4
I01
sg5
g54
sg7
L5L
sa(dp191
g4
I01
sg5
g56
sg7
L2L
sg16
V__sizeof__() -> int\u000asize of object in memory, in bytes
p192
sa(dp193
g4
I01
sg5
g59
sg7
L5L
sa(dp194
g4
I01
sg5
g61
sg7
L2L
sg16
VAbstract classes can override this to customize issubclass().\u000a\u000aThis is invoked early on by abc.ABCMeta.__subclasscheck__().\u000aIt should return True, False or NotImplemented.  If it returns\u000aNotImplemented, the normal algorithm is used.  Otherwise, it\u000aoverrides the normal algorithm (and the outcome is cached).\u000a
p195
sasg4
I01
sg5
V_tee_dataobject
p196
sg7
L3L
sg16
VData container common to multiple tee objects.
p197
sa(dp198
g1
(lp199
(dp200
g4
I01
sg5
g11
sg7
L5L
sa(dp201
g4
I01
sg5
g15
sg7
L2L
sg16
V__dir__() -> list\u000adefault dir() implementation
p202
sa(dp203
g4
I01
sg5
g6
sg7
L5L
sa(dp204
g4
I01
sg5
g20
sg7
L5L
sa(dp205
g4
I01
sg5
g22
sg7
L2L
sg16
Vdefault object formatter
p206
sa(dp207
g4
I01
sg5
g25
sg7
L5L
sa(dp208
g4
I01
sg5
g27
sg7
L5L
sa(dp209
g4
I01
sg5
g29
sg7
L5L
sa(dp210
g4
I01
sg5
g31
sg7
L5L
sa(dp211
g4
I01
sg5
g33
sg7
L5L
sa(dp212
g4
I01
sg5
g106
sg7
L5L
sa(dp213
g4
I01
sg5
g35
sg7
L5L
sa(dp214
g4
I01
sg5
g37
sg7
L5L
sa(dp215
g4
I01
sg5
g41
sg7
L5L
sa(dp216
g4
I01
sg5
g43
sg7
L2L
sg16
VCreate and return a new object.  See help(type) for accurate signature.
p217
sa(dp218
g4
I01
sg5
g113
sg7
L5L
sa(dp219
g4
I01
sg5
g46
sg7
L2L
sg16
VReturn state information for pickling.
p220
sa(dp221
g4
I01
sg5
g49
sg7
L2L
sg16
Vhelper for pickle
p222
sa(dp223
g4
I01
sg5
g52
sg7
L5L
sa(dp224
g4
I01
sg5
g54
sg7
L5L
sa(dp225
g4
I01
sg5
g157
sg7
L2L
sg16
VSet state information for unpickling.
p226
sa(dp227
g4
I01
sg5
g56
sg7
L2L
sg16
V__sizeof__() -> int\u000asize of object in memory, in bytes
p228
sa(dp229
g4
I01
sg5
g59
sg7
L5L
sa(dp230
g4
I01
sg5
g61
sg7
L2L
sg16
VAbstract classes can override this to customize issubclass().\u000a\u000aThis is invoked early on by abc.ABCMeta.__subclasscheck__().\u000aIt should return True, False or NotImplemented.  If it returns\u000aNotImplemented, the normal algorithm is used.  Otherwise, it\u000aoverrides the normal algorithm (and the outcome is cached).\u000a
p231
sasg4
I01
sg5
Vaccumulate
p232
sg7
L3L
sg16
Vaccumulate(iterable[, func]) --> accumulate object\u000a\u000aReturn series of accumulated sums (or other binary function results).
p233
sa(dp234
g1
(lp235
(dp236
g4
I01
sg5
g11
sg7
L5L
sa(dp237
g4
I01
sg5
g15
sg7
L2L
sg16
V__dir__() -> list\u000adefault dir() implementation
p238
sa(dp239
g4
I01
sg5
g6
sg7
L5L
sa(dp240
g4
I01
sg5
g20
sg7
L5L
sa(dp241
g4
I01
sg5
g22
sg7
L2L
sg16
Vdefault object formatter
p242
sa(dp243
g4
I01
sg5
g25
sg7
L5L
sa(dp244
g4
I01
sg5
g27
sg7
L5L
sa(dp245
g4
I01
sg5
g29
sg7
L5L
sa(dp246
g4
I01
sg5
g31
sg7
L5L
sa(dp247
g4
I01
sg5
g33
sg7
L5L
sa(dp248
g4
I01
sg5
g106
sg7
L5L
sa(dp249
g4
I01
sg5
g35
sg7
L5L
sa(dp250
g4
I01
sg5
g37
sg7
L5L
sa(dp251
g4
I01
sg5
g41
sg7
L5L
sa(dp252
g4
I01
sg5
g43
sg7
L2L
sg16
VCreate and return a new object.  See help(type) for accurate signature.
p253
sa(dp254
g4
I01
sg5
g113
sg7
L5L
sa(dp255
g4
I01
sg5
g46
sg7
L2L
sg16
VReturn state information for pickling.
p256
sa(dp257
g4
I01
sg5
g49
sg7
L2L
sg16
Vhelper for pickle
p258
sa(dp259
g4
I01
sg5
g52
sg7
L5L
sa(dp260
g4
I01
sg5
g54
sg7
L5L
sa(dp261
g4
I01
sg5
g157
sg7
L2L
sg16
VSet state information for unpickling.
p262
sa(dp263
g4
I01
sg5
g56
sg7
L2L
sg16
V__sizeof__() -> int\u000asize of object in memory, in bytes
p264
sa(dp265
g4
I01
sg5
g59
sg7
L5L
sa(dp266
g4
I01
sg5
g61
sg7
L2L
sg16
VAbstract classes can override this to customize issubclass().\u000a\u000aThis is invoked early on by abc.ABCMeta.__subclasscheck__().\u000aIt should return True, False or NotImplemented.  If it returns\u000aNotImplemented, the normal algorithm is used.  Otherwise, it\u000aoverrides the normal algorithm (and the outcome is cached).\u000a
p267
sa(dp268
g4
I01
sg5
Vfrom_iterable
p269
sg7
L2L
sg16
Vchain.from_iterable(iterable) --> chain object\u000a\u000aAlternate chain() contructor taking a single iterable argument\u000athat evaluates lazily.
p270
sasg4
I01
sg5
Vchain
p271
sg7
L3L
sg16
Vchain(*iterables) --> chain object\u000a\u000aReturn a chain object whose .__next__() method returns elements from the\u000afirst iterable until it is exhausted, then elements from the next\u000aiterable, until all of the iterables are exhausted.
p272
sa(dp273
g1
(lp274
(dp275
g4
I01
sg5
g11
sg7
L5L
sa(dp276
g4
I01
sg5
g15
sg7
L2L
sg16
V__dir__() -> list\u000adefault dir() implementation
p277
sa(dp278
g4
I01
sg5
g6
sg7
L5L
sa(dp279
g4
I01
sg5
g20
sg7
L5L
sa(dp280
g4
I01
sg5
g22
sg7
L2L
sg16
Vdefault object formatter
p281
sa(dp282
g4
I01
sg5
g25
sg7
L5L
sa(dp283
g4
I01
sg5
g27
sg7
L5L
sa(dp284
g4
I01
sg5
g29
sg7
L5L
sa(dp285
g4
I01
sg5
g31
sg7
L5L
sa(dp286
g4
I01
sg5
g33
sg7
L5L
sa(dp287
g4
I01
sg5
g106
sg7
L5L
sa(dp288
g4
I01
sg5
g35
sg7
L5L
sa(dp289
g4
I01
sg5
g37
sg7
L5L
sa(dp290
g4
I01
sg5
g41
sg7
L5L
sa(dp291
g4
I01
sg5
g43
sg7
L2L
sg16
VCreate and return a new object.  See help(type) for accurate signature.
p292
sa(dp293
g4
I01
sg5
g113
sg7
L5L
sa(dp294
g4
I01
sg5
g46
sg7
L2L
sg16
VReturn state information for pickling.
p295
sa(dp296
g4
I01
sg5
g49
sg7
L2L
sg16
Vhelper for pickle
p297
sa(dp298
g4
I01
sg5
g52
sg7
L5L
sa(dp299
g4
I01
sg5
g54
sg7
L5L
sa(dp300
g4
I01
sg5
g157
sg7
L2L
sg16
VSet state information for unpickling.
p301
sa(dp302
g4
I01
sg5
g56
sg7
L2L
sg16
VReturns size in memory, in bytes.
p303
sa(dp304
g4
I01
sg5
g59
sg7
L5L
sa(dp305
g4
I01
sg5
g61
sg7
L2L
sg16
VAbstract classes can override this to customize issubclass().\u000a\u000aThis is invoked early on by abc.ABCMeta.__subclasscheck__().\u000aIt should return True, False or NotImplemented.  If it returns\u000aNotImplemented, the normal algorithm is used.  Otherwise, it\u000aoverrides the normal algorithm (and the outcome is cached).\u000a
p306
sasg4
I01
sg5
Vcombinations
p307
sg7
L3L
sg16
Vcombinations(iterable, r) --> combinations object\u000a\u000aReturn successive r-length combinations of elements in the iterable.\u000a\u000acombinations(range(4), 3) --> (0,1,2), (0,1,3), (0,2,3), (1,2,3)
p308
sa(dp309
g1
(lp310
(dp311
g4
I01
sg5
g11
sg7
L5L
sa(dp312
g4
I01
sg5
g15
sg7
L2L
sg16
V__dir__() -> list\u000adefault dir() implementation
p313
sa(dp314
g4
I01
sg5
g6
sg7
L5L
sa(dp315
g4
I01
sg5
g20
sg7
L5L
sa(dp316
g4
I01
sg5
g22
sg7
L2L
sg16
Vdefault object formatter
p317
sa(dp318
g4
I01
sg5
g25
sg7
L5L
sa(dp319
g4
I01
sg5
g27
sg7
L5L
sa(dp320
g4
I01
sg5
g29
sg7
L5L
sa(dp321
g4
I01
sg5
g31
sg7
L5L
sa(dp322
g4
I01
sg5
g33
sg7
L5L
sa(dp323
g4
I01
sg5
g106
sg7
L5L
sa(dp324
g4
I01
sg5
g35
sg7
L5L
sa(dp325
g4
I01
sg5
g37
sg7
L5L
sa(dp326
g4
I01
sg5
g41
sg7
L5L
sa(dp327
g4
I01
sg5
g43
sg7
L2L
sg16
VCreate and return a new object.  See help(type) for accurate signature.
p328
sa(dp329
g4
I01
sg5
g113
sg7
L5L
sa(dp330
g4
I01
sg5
g46
sg7
L2L
sg16
VReturn state information for pickling.
p331
sa(dp332
g4
I01
sg5
g49
sg7
L2L
sg16
Vhelper for pickle
p333
sa(dp334
g4
I01
sg5
g52
sg7
L5L
sa(dp335
g4
I01
sg5
g54
sg7
L5L
sa(dp336
g4
I01
sg5
g157
sg7
L2L
sg16
VSet state information for unpickling.
p337
sa(dp338
g4
I01
sg5
g56
sg7
L2L
sg16
VReturns size in memory, in bytes.
p339
sa(dp340
g4
I01
sg5
g59
sg7
L5L
sa(dp341
g4
I01
sg5
g61
sg7
L2L
sg16
VAbstract classes can override this to customize issubclass().\u000a\u000aThis is invoked early on by abc.ABCMeta.__subclasscheck__().\u000aIt should return True, False or NotImplemented.  If it returns\u000aNotImplemented, the normal algorithm is used.  Otherwise, it\u000aoverrides the normal algorithm (and the outcome is cached).\u000a
p342
sasg4
I01
sg5
Vcombinations_with_replacement
p343
sg7
L3L
sg16
Vcombinations_with_replacement(iterable, r) --> combinations_with_replacement object\u000a\u000aReturn successive r-length combinations of elements in the iterable\u000aallowing individual elements to have successive repeats.\u000acombinations_with_replacement('ABC', 2) --> AA AB AC BB BC CC
p344
sa(dp345
g1
(lp346
(dp347
g4
I01
sg5
g11
sg7
L5L
sa(dp348
g4
I01
sg5
g15
sg7
L2L
sg16
V__dir__() -> list\u000adefault dir() implementation
p349
sa(dp350
g4
I01
sg5
g6
sg7
L5L
sa(dp351
g4
I01
sg5
g20
sg7
L5L
sa(dp352
g4
I01
sg5
g22
sg7
L2L
sg16
Vdefault object formatter
p353
sa(dp354
g4
I01
sg5
g25
sg7
L5L
sa(dp355
g4
I01
sg5
g27
sg7
L5L
sa(dp356
g4
I01
sg5
g29
sg7
L5L
sa(dp357
g4
I01
sg5
g31
sg7
L5L
sa(dp358
g4
I01
sg5
g33
sg7
L5L
sa(dp359
g4
I01
sg5
g106
sg7
L5L
sa(dp360
g4
I01
sg5
g35
sg7
L5L
sa(dp361
g4
I01
sg5
g37
sg7
L5L
sa(dp362
g4
I01
sg5
g41
sg7
L5L
sa(dp363
g4
I01
sg5
g43
sg7
L2L
sg16
VCreate and return a new object.  See help(type) for accurate signature.
p364
sa(dp365
g4
I01
sg5
g113
sg7
L5L
sa(dp366
g4
I01
sg5
g46
sg7
L2L
sg16
VReturn state information for pickling.
p367
sa(dp368
g4
I01
sg5
g49
sg7
L2L
sg16
Vhelper for pickle
p369
sa(dp370
g4
I01
sg5
g52
sg7
L5L
sa(dp371
g4
I01
sg5
g54
sg7
L5L
sa(dp372
g4
I01
sg5
g56
sg7
L2L
sg16
V__sizeof__() -> int\u000asize of object in memory, in bytes
p373
sa(dp374
g4
I01
sg5
g59
sg7
L5L
sa(dp375
g4
I01
sg5
g61
sg7
L2L
sg16
VAbstract classes can override this to customize issubclass().\u000a\u000aThis is invoked early on by abc.ABCMeta.__subclasscheck__().\u000aIt should return True, False or NotImplemented.  If it returns\u000aNotImplemented, the normal algorithm is used.  Otherwise, it\u000aoverrides the normal algorithm (and the outcome is cached).\u000a
p376
sasg4
I01
sg5
Vcompress
p377
sg7
L3L
sg16
Vcompress(data, selectors) --> iterator over selected data\u000a\u000aReturn data elements corresponding to true selector elements.\u000aForms a shorter iterator from selected data elements using the\u000aselectors to choose the data elements.
p378
sa(dp379
g1
(lp380
(dp381
g4
I01
sg5
g11
sg7
L5L
sa(dp382
g4
I01
sg5
g15
sg7
L2L
sg16
V__dir__() -> list\u000adefault dir() implementation
p383
sa(dp384
g4
I01
sg5
g6
sg7
L5L
sa(dp385
g4
I01
sg5
g20
sg7
L5L
sa(dp386
g4
I01
sg5
g22
sg7
L2L
sg16
Vdefault object formatter
p387
sa(dp388
g4
I01
sg5
g25
sg7
L5L
sa(dp389
g4
I01
sg5
g27
sg7
L5L
sa(dp390
g4
I01
sg5
g29
sg7
L5L
sa(dp391
g4
I01
sg5
g31
sg7
L5L
sa(dp392
g4
I01
sg5
g33
sg7
L5L
sa(dp393
g4
I01
sg5
g106
sg7
L5L
sa(dp394
g4
I01
sg5
g35
sg7
L5L
sa(dp395
g4
I01
sg5
g37
sg7
L5L
sa(dp396
g4
I01
sg5
g41
sg7
L5L
sa(dp397
g4
I01
sg5
g43
sg7
L2L
sg16
VCreate and return a new object.  See help(type) for accurate signature.
p398
sa(dp399
g4
I01
sg5
g113
sg7
L5L
sa(dp400
g4
I01
sg5
g46
sg7
L2L
sg16
VReturn state information for pickling.
p401
sa(dp402
g4
I01
sg5
g49
sg7
L2L
sg16
Vhelper for pickle
p403
sa(dp404
g4
I01
sg5
g52
sg7
L5L
sa(dp405
g4
I01
sg5
g54
sg7
L5L
sa(dp406
g4
I01
sg5
g56
sg7
L2L
sg16
V__sizeof__() -> int\u000asize of object in memory, in bytes
p407
sa(dp408
g4
I01
sg5
g59
sg7
L5L
sa(dp409
g4
I01
sg5
g61
sg7
L2L
sg16
VAbstract classes can override this to customize issubclass().\u000a\u000aThis is invoked early on by abc.ABCMeta.__subclasscheck__().\u000aIt should return True, False or NotImplemented.  If it returns\u000aNotImplemented, the normal algorithm is used.  Otherwise, it\u000aoverrides the normal algorithm (and the outcome is cached).\u000a
p410
sasg4
I01
sg5
Vcount
p411
sg7
L3L
sg16
Vcount(start=0, step=1) --> count object\u000a\u000aReturn a count object whose .__next__() method returns consecutive values.\u000aEquivalent to:\u000a\u000a    def count(firstval=0, step=1):\u000a        x = firstval\u000a        while 1:\u000a            yield x\u000a            x += step\u000a
p412
sa(dp413
g1
(lp414
(dp415
g4
I01
sg5
g11
sg7
L5L
sa(dp416
g4
I01
sg5
g15
sg7
L2L
sg16
V__dir__() -> list\u000adefault dir() implementation
p417
sa(dp418
g4
I01
sg5
g6
sg7
L5L
sa(dp419
g4
I01
sg5
g20
sg7
L5L
sa(dp420
g4
I01
sg5
g22
sg7
L2L
sg16
Vdefault object formatter
p421
sa(dp422
g4
I01
sg5
g25
sg7
L5L
sa(dp423
g4
I01
sg5
g27
sg7
L5L
sa(dp424
g4
I01
sg5
g29
sg7
L5L
sa(dp425
g4
I01
sg5
g31
sg7
L5L
sa(dp426
g4
I01
sg5
g33
sg7
L5L
sa(dp427
g4
I01
sg5
g106
sg7
L5L
sa(dp428
g4
I01
sg5
g35
sg7
L5L
sa(dp429
g4
I01
sg5
g37
sg7
L5L
sa(dp430
g4
I01
sg5
g41
sg7
L5L
sa(dp431
g4
I01
sg5
g43
sg7
L2L
sg16
VCreate and return a new object.  See help(type) for accurate signature.
p432
sa(dp433
g4
I01
sg5
g113
sg7
L5L
sa(dp434
g4
I01
sg5
g46
sg7
L2L
sg16
VReturn state information for pickling.
p435
sa(dp436
g4
I01
sg5
g49
sg7
L2L
sg16
Vhelper for pickle
p437
sa(dp438
g4
I01
sg5
g52
sg7
L5L
sa(dp439
g4
I01
sg5
g54
sg7
L5L
sa(dp440
g4
I01
sg5
g157
sg7
L2L
sg16
VSet state information for unpickling.
p441
sa(dp442
g4
I01
sg5
g56
sg7
L2L
sg16
V__sizeof__() -> int\u000asize of object in memory, in bytes
p443
sa(dp444
g4
I01
sg5
g59
sg7
L5L
sa(dp445
g4
I01
sg5
g61
sg7
L2L
sg16
VAbstract classes can override this to customize issubclass().\u000a\u000aThis is invoked early on by abc.ABCMeta.__subclasscheck__().\u000aIt should return True, False or NotImplemented.  If it returns\u000aNotImplemented, the normal algorithm is used.  Otherwise, it\u000aoverrides the normal algorithm (and the outcome is cached).\u000a
p446
sasg4
I01
sg5
Vcycle
p447
sg7
L3L
sg16
Vcycle(iterable) --> cycle object\u000a\u000aReturn elements from the iterable until it is exhausted.\u000aThen repeat the sequence indefinitely.
p448
sa(dp449
g1
(lp450
(dp451
g4
I01
sg5
g11
sg7
L5L
sa(dp452
g4
I01
sg5
g15
sg7
L2L
sg16
V__dir__() -> list\u000adefault dir() implementation
p453
sa(dp454
g4
I01
sg5
g6
sg7
L5L
sa(dp455
g4
I01
sg5
g20
sg7
L5L
sa(dp456
g4
I01
sg5
g22
sg7
L2L
sg16
Vdefault object formatter
p457
sa(dp458
g4
I01
sg5
g25
sg7
L5L
sa(dp459
g4
I01
sg5
g27
sg7
L5L
sa(dp460
g4
I01
sg5
g29
sg7
L5L
sa(dp461
g4
I01
sg5
g31
sg7
L5L
sa(dp462
g4
I01
sg5
g33
sg7
L5L
sa(dp463
g4
I01
sg5
g106
sg7
L5L
sa(dp464
g4
I01
sg5
g35
sg7
L5L
sa(dp465
g4
I01
sg5
g37
sg7
L5L
sa(dp466
g4
I01
sg5
g41
sg7
L5L
sa(dp467
g4
I01
sg5
g43
sg7
L2L
sg16
VCreate and return a new object.  See help(type) for accurate signature.
p468
sa(dp469
g4
I01
sg5
g113
sg7
L5L
sa(dp470
g4
I01
sg5
g46
sg7
L2L
sg16
VReturn state information for pickling.
p471
sa(dp472
g4
I01
sg5
g49
sg7
L2L
sg16
Vhelper for pickle
p473
sa(dp474
g4
I01
sg5
g52
sg7
L5L
sa(dp475
g4
I01
sg5
g54
sg7
L5L
sa(dp476
g4
I01
sg5
g157
sg7
L2L
sg16
VSet state information for unpickling.
p477
sa(dp478
g4
I01
sg5
g56
sg7
L2L
sg16
V__sizeof__() -> int\u000asize of object in memory, in bytes
p479
sa(dp480
g4
I01
sg5
g59
sg7
L5L
sa(dp481
g4
I01
sg5
g61
sg7
L2L
sg16
VAbstract classes can override this to customize issubclass().\u000a\u000aThis is invoked early on by abc.ABCMeta.__subclasscheck__().\u000aIt should return True, False or NotImplemented.  If it returns\u000aNotImplemented, the normal algorithm is used.  Otherwise, it\u000aoverrides the normal algorithm (and the outcome is cached).\u000a
p482
sasg4
I01
sg5
Vdropwhile
p483
sg7
L3L
sg16
Vdropwhile(predicate, iterable) --> dropwhile object\u000a\u000aDrop items from the iterable while predicate(item) is true.\u000aAfterwards, return every element until the iterable is exhausted.
p484
sa(dp485
g1
(lp486
(dp487
g4
I01
sg5
g11
sg7
L5L
sa(dp488
g4
I01
sg5
g15
sg7
L2L
sg16
V__dir__() -> list\u000adefault dir() implementation
p489
sa(dp490
g4
I01
sg5
g6
sg7
L5L
sa(dp491
g4
I01
sg5
g20
sg7
L5L
sa(dp492
g4
I01
sg5
g22
sg7
L2L
sg16
Vdefault object formatter
p493
sa(dp494
g4
I01
sg5
g25
sg7
L5L
sa(dp495
g4
I01
sg5
g27
sg7
L5L
sa(dp496
g4
I01
sg5
g29
sg7
L5L
sa(dp497
g4
I01
sg5
g31
sg7
L5L
sa(dp498
g4
I01
sg5
g33
sg7
L5L
sa(dp499
g4
I01
sg5
g106
sg7
L5L
sa(dp500
g4
I01
sg5
g35
sg7
L5L
sa(dp501
g4
I01
sg5
g37
sg7
L5L
sa(dp502
g4
I01
sg5
g41
sg7
L5L
sa(dp503
g4
I01
sg5
g43
sg7
L2L
sg16
VCreate and return a new object.  See help(type) for accurate signature.
p504
sa(dp505
g4
I01
sg5
g113
sg7
L5L
sa(dp506
g4
I01
sg5
g46
sg7
L2L
sg16
VReturn state information for pickling.
p507
sa(dp508
g4
I01
sg5
g49
sg7
L2L
sg16
Vhelper for pickle
p509
sa(dp510
g4
I01
sg5
g52
sg7
L5L
sa(dp511
g4
I01
sg5
g54
sg7
L5L
sa(dp512
g4
I01
sg5
g56
sg7
L2L
sg16
V__sizeof__() -> int\u000asize of object in memory, in bytes
p513
sa(dp514
g4
I01
sg5
g59
sg7
L5L
sa(dp515
g4
I01
sg5
g61
sg7
L2L
sg16
VAbstract classes can override this to customize issubclass().\u000a\u000aThis is invoked early on by abc.ABCMeta.__subclasscheck__().\u000aIt should return True, False or NotImplemented.  If it returns\u000aNotImplemented, the normal algorithm is used.  Otherwise, it\u000aoverrides the normal algorithm (and the outcome is cached).\u000a
p516
sasg4
I01
sg5
Vfilterfalse
p517
sg7
L3L
sg16
Vfilterfalse(function or None, sequence) --> filterfalse object\u000a\u000aReturn those items of sequence for which function(item) is false.\u000aIf function is None, return the items that are false.
p518
sa(dp519
g1
(lp520
(dp521
g4
I01
sg5
g11
sg7
L5L
sa(dp522
g4
I01
sg5
g15
sg7
L2L
sg16
V__dir__() -> list\u000adefault dir() implementation
p523
sa(dp524
g4
I01
sg5
g6
sg7
L5L
sa(dp525
g4
I01
sg5
g20
sg7
L5L
sa(dp526
g4
I01
sg5
g22
sg7
L2L
sg16
Vdefault object formatter
p527
sa(dp528
g4
I01
sg5
g25
sg7
L5L
sa(dp529
g4
I01
sg5
g27
sg7
L5L
sa(dp530
g4
I01
sg5
g29
sg7
L5L
sa(dp531
g4
I01
sg5
g31
sg7
L5L
sa(dp532
g4
I01
sg5
g33
sg7
L5L
sa(dp533
g4
I01
sg5
g106
sg7
L5L
sa(dp534
g4
I01
sg5
g35
sg7
L5L
sa(dp535
g4
I01
sg5
g37
sg7
L5L
sa(dp536
g4
I01
sg5
g41
sg7
L5L
sa(dp537
g4
I01
sg5
g43
sg7
L2L
sg16
VCreate and return a new object.  See help(type) for accurate signature.
p538
sa(dp539
g4
I01
sg5
g113
sg7
L5L
sa(dp540
g4
I01
sg5
g46
sg7
L2L
sg16
VReturn state information for pickling.
p541
sa(dp542
g4
I01
sg5
g49
sg7
L2L
sg16
Vhelper for pickle
p543
sa(dp544
g4
I01
sg5
g52
sg7
L5L
sa(dp545
g4
I01
sg5
g54
sg7
L5L
sa(dp546
g4
I01
sg5
g157
sg7
L2L
sg16
VSet state information for unpickling.
p547
sa(dp548
g4
I01
sg5
g56
sg7
L2L
sg16
V__sizeof__() -> int\u000asize of object in memory, in bytes
p549
sa(dp550
g4
I01
sg5
g59
sg7
L5L
sa(dp551
g4
I01
sg5
g61
sg7
L2L
sg16
VAbstract classes can override this to customize issubclass().\u000a\u000aThis is invoked early on by abc.ABCMeta.__subclasscheck__().\u000aIt should return True, False or NotImplemented.  If it returns\u000aNotImplemented, the normal algorithm is used.  Otherwise, it\u000aoverrides the normal algorithm (and the outcome is cached).\u000a
p552
sasg4
I01
sg5
Vgroupby
p553
sg7
L3L
sg16
Vgroupby(iterable[, keyfunc]) -> create an iterator which returns\u000a(key, sub-iterator) grouped by each value of key(value).\u000a
p554
sa(dp555
g1
(lp556
(dp557
g4
I01
sg5
g11
sg7
L5L
sa(dp558
g4
I01
sg5
g15
sg7
L2L
sg16
V__dir__() -> list\u000adefault dir() implementation
p559
sa(dp560
g4
I01
sg5
g6
sg7
L5L
sa(dp561
g4
I01
sg5
g20
sg7
L5L
sa(dp562
g4
I01
sg5
g22
sg7
L2L
sg16
Vdefault object formatter
p563
sa(dp564
g4
I01
sg5
g25
sg7
L5L
sa(dp565
g4
I01
sg5
g27
sg7
L5L
sa(dp566
g4
I01
sg5
g29
sg7
L5L
sa(dp567
g4
I01
sg5
g31
sg7
L5L
sa(dp568
g4
I01
sg5
g33
sg7
L5L
sa(dp569
g4
I01
sg5
g106
sg7
L5L
sa(dp570
g4
I01
sg5
g35
sg7
L5L
sa(dp571
g4
I01
sg5
g37
sg7
L5L
sa(dp572
g4
I01
sg5
g41
sg7
L5L
sa(dp573
g4
I01
sg5
g43
sg7
L2L
sg16
VCreate and return a new object.  See help(type) for accurate signature.
p574
sa(dp575
g4
I01
sg5
g113
sg7
L5L
sa(dp576
g4
I01
sg5
g46
sg7
L2L
sg16
VReturn state information for pickling.
p577
sa(dp578
g4
I01
sg5
g49
sg7
L2L
sg16
Vhelper for pickle
p579
sa(dp580
g4
I01
sg5
g52
sg7
L5L
sa(dp581
g4
I01
sg5
g54
sg7
L5L
sa(dp582
g4
I01
sg5
g157
sg7
L2L
sg16
VSet state information for unpickling.
p583
sa(dp584
g4
I01
sg5
g56
sg7
L2L
sg16
V__sizeof__() -> int\u000asize of object in memory, in bytes
p585
sa(dp586
g4
I01
sg5
g59
sg7
L5L
sa(dp587
g4
I01
sg5
g61
sg7
L2L
sg16
VAbstract classes can override this to customize issubclass().\u000a\u000aThis is invoked early on by abc.ABCMeta.__subclasscheck__().\u000aIt should return True, False or NotImplemented.  If it returns\u000aNotImplemented, the normal algorithm is used.  Otherwise, it\u000aoverrides the normal algorithm (and the outcome is cached).\u000a
p588
sasg4
I01
sg5
Vislice
p589
sg7
L3L
sg16
Vislice(iterable, stop) --> islice object\u000aislice(iterable, start, stop[, step]) --> islice object\u000a\u000aReturn an iterator whose next() method returns selected values from an\u000aiterable.  If start is specified, will skip all preceding elements;\u000aotherwise, start defaults to zero.  Step defaults to one.  If\u000aspecified as another value, step determines how many values are \u000askipped between successive calls.  Works like a slice() on a list\u000abut returns an iterator.
p590
sa(dp591
g1
(lp592
(dp593
g4
I01
sg5
g11
sg7
L5L
sa(dp594
g4
I01
sg5
g15
sg7
L2L
sg16
V__dir__() -> list\u000adefault dir() implementation
p595
sa(dp596
g4
I01
sg5
g6
sg7
L5L
sa(dp597
g4
I01
sg5
g20
sg7
L5L
sa(dp598
g4
I01
sg5
g22
sg7
L2L
sg16
Vdefault object formatter
p599
sa(dp600
g4
I01
sg5
g25
sg7
L5L
sa(dp601
g4
I01
sg5
g27
sg7
L5L
sa(dp602
g4
I01
sg5
g29
sg7
L5L
sa(dp603
g4
I01
sg5
g31
sg7
L5L
sa(dp604
g4
I01
sg5
g33
sg7
L5L
sa(dp605
g4
I01
sg5
g106
sg7
L5L
sa(dp606
g4
I01
sg5
g35
sg7
L5L
sa(dp607
g4
I01
sg5
g37
sg7
L5L
sa(dp608
g4
I01
sg5
g41
sg7
L5L
sa(dp609
g4
I01
sg5
g43
sg7
L2L
sg16
VCreate and return a new object.  See help(type) for accurate signature.
p610
sa(dp611
g4
I01
sg5
g113
sg7
L5L
sa(dp612
g4
I01
sg5
g46
sg7
L2L
sg16
VReturn state information for pickling.
p613
sa(dp614
g4
I01
sg5
g49
sg7
L2L
sg16
Vhelper for pickle
p615
sa(dp616
g4
I01
sg5
g52
sg7
L5L
sa(dp617
g4
I01
sg5
g54
sg7
L5L
sa(dp618
g4
I01
sg5
g157
sg7
L2L
sg16
VSet state information for unpickling.
p619
sa(dp620
g4
I01
sg5
g56
sg7
L2L
sg16
VReturns size in memory, in bytes.
p621
sa(dp622
g4
I01
sg5
g59
sg7
L5L
sa(dp623
g4
I01
sg5
g61
sg7
L2L
sg16
VAbstract classes can override this to customize issubclass().\u000a\u000aThis is invoked early on by abc.ABCMeta.__subclasscheck__().\u000aIt should return True, False or NotImplemented.  If it returns\u000aNotImplemented, the normal algorithm is used.  Otherwise, it\u000aoverrides the normal algorithm (and the outcome is cached).\u000a
p624
sasg4
I01
sg5
Vpermutations
p625
sg7
L3L
sg16
Vpermutations(iterable[, r]) --> permutations object\u000a\u000aReturn successive r-length permutations of elements in the iterable.\u000a\u000apermutations(range(3), 2) --> (0,1), (0,2), (1,0), (1,2), (2,0), (2,1)
p626
sa(dp627
g1
(lp628
(dp629
g4
I01
sg5
g11
sg7
L5L
sa(dp630
g4
I01
sg5
g15
sg7
L2L
sg16
V__dir__() -> list\u000adefault dir() implementation
p631
sa(dp632
g4
I01
sg5
g6
sg7
L5L
sa(dp633
g4
I01
sg5
g20
sg7
L5L
sa(dp634
g4
I01
sg5
g22
sg7
L2L
sg16
Vdefault object formatter
p635
sa(dp636
g4
I01
sg5
g25
sg7
L5L
sa(dp637
g4
I01
sg5
g27
sg7
L5L
sa(dp638
g4
I01
sg5
g29
sg7
L5L
sa(dp639
g4
I01
sg5
g31
sg7
L5L
sa(dp640
g4
I01
sg5
g33
sg7
L5L
sa(dp641
g4
I01
sg5
g106
sg7
L5L
sa(dp642
g4
I01
sg5
g35
sg7
L5L
sa(dp643
g4
I01
sg5
g37
sg7
L5L
sa(dp644
g4
I01
sg5
g41
sg7
L5L
sa(dp645
g4
I01
sg5
g43
sg7
L2L
sg16
VCreate and return a new object.  See help(type) for accurate signature.
p646
sa(dp647
g4
I01
sg5
g113
sg7
L5L
sa(dp648
g4
I01
sg5
g46
sg7
L2L
sg16
VReturn state information for pickling.
p649
sa(dp650
g4
I01
sg5
g49
sg7
L2L
sg16
Vhelper for pickle
p651
sa(dp652
g4
I01
sg5
g52
sg7
L5L
sa(dp653
g4
I01
sg5
g54
sg7
L5L
sa(dp654
g4
I01
sg5
g157
sg7
L2L
sg16
VSet state information for unpickling.
p655
sa(dp656
g4
I01
sg5
g56
sg7
L2L
sg16
VReturns size in memory, in bytes.
p657
sa(dp658
g4
I01
sg5
g59
sg7
L5L
sa(dp659
g4
I01
sg5
g61
sg7
L2L
sg16
VAbstract classes can override this to customize issubclass().\u000a\u000aThis is invoked early on by abc.ABCMeta.__subclasscheck__().\u000aIt should return True, False or NotImplemented.  If it returns\u000aNotImplemented, the normal algorithm is used.  Otherwise, it\u000aoverrides the normal algorithm (and the outcome is cached).\u000a
p660
sasg4
I01
sg5
Vproduct
p661
sg7
L3L
sg16
Vproduct(*iterables, repeat=1) --> product object\u000a\u000aCartesian product of input iterables.  Equivalent to nested for-loops.\u000a\u000aFor example, product(A, B) returns the same as:  ((x,y) for x in A for y in B).\u000aThe leftmost iterators are in the outermost for-loop, so the output tuples\u000acycle in a manner similar to an odometer (with the rightmost element changing\u000aon every iteration).\u000a\u000aTo compute the product of an iterable with itself, specify the number\u000aof repetitions with the optional repeat keyword argument. For example,\u000aproduct(A, repeat=4) means the same as product(A, A, A, A).\u000a\u000aproduct('ab', range(3)) --> ('a',0) ('a',1) ('a',2) ('b',0) ('b',1) ('b',2)\u000aproduct((0,1), (0,1), (0,1)) --> (0,0,0) (0,0,1) (0,1,0) (0,1,1) (1,0,0) ...
p662
sa(dp663
g1
(lp664
(dp665
g4
I01
sg5
g11
sg7
L5L
sa(dp666
g4
I01
sg5
g15
sg7
L2L
sg16
V__dir__() -> list\u000adefault dir() implementation
p667
sa(dp668
g4
I01
sg5
g6
sg7
L5L
sa(dp669
g4
I01
sg5
g20
sg7
L5L
sa(dp670
g4
I01
sg5
g22
sg7
L2L
sg16
Vdefault object formatter
p671
sa(dp672
g4
I01
sg5
g25
sg7
L5L
sa(dp673
g4
I01
sg5
g27
sg7
L5L
sa(dp674
g4
I01
sg5
g29
sg7
L5L
sa(dp675
g4
I01
sg5
g31
sg7
L5L
sa(dp676
g4
I01
sg5
g33
sg7
L5L
sa(dp677
g4
I01
sg5
g106
sg7
L5L
sa(dp678
g4
I01
sg5
g35
sg7
L5L
sa(dp679
g4
I01
sg5
V__length_hint__
p680
sg7
L2L
sg16
VPrivate method returning an estimate of len(list(it)).
p681
sa(dp682
g4
I01
sg5
g37
sg7
L5L
sa(dp683
g4
I01
sg5
g41
sg7
L5L
sa(dp684
g4
I01
sg5
g43
sg7
L2L
sg16
VCreate and return a new object.  See help(type) for accurate signature.
p685
sa(dp686
g4
I01
sg5
g113
sg7
L5L
sa(dp687
g4
I01
sg5
g46
sg7
L2L
sg16
VReturn state information for pickling.
p688
sa(dp689
g4
I01
sg5
g49
sg7
L2L
sg16
Vhelper for pickle
p690
sa(dp691
g4
I01
sg5
g52
sg7
L5L
sa(dp692
g4
I01
sg5
g54
sg7
L5L
sa(dp693
g4
I01
sg5
g56
sg7
L2L
sg16
V__sizeof__() -> int\u000asize of object in memory, in bytes
p694
sa(dp695
g4
I01
sg5
g59
sg7
L5L
sa(dp696
g4
I01
sg5
g61
sg7
L2L
sg16
VAbstract classes can override this to customize issubclass().\u000a\u000aThis is invoked early on by abc.ABCMeta.__subclasscheck__().\u000aIt should return True, False or NotImplemented.  If it returns\u000aNotImplemented, the normal algorithm is used.  Otherwise, it\u000aoverrides the normal algorithm (and the outcome is cached).\u000a
p697
sasg4
I01
sg5
Vrepeat
p698
sg7
L3L
sg16
Vrepeat(object [,times]) -> create an iterator which returns the object\u000afor the specified number of times.  If not specified, returns the object\u000aendlessly.
p699
sa(dp700
g1
(lp701
(dp702
g4
I01
sg5
g11
sg7
L5L
sa(dp703
g4
I01
sg5
g15
sg7
L2L
sg16
V__dir__() -> list\u000adefault dir() implementation
p704
sa(dp705
g4
I01
sg5
g6
sg7
L5L
sa(dp706
g4
I01
sg5
g20
sg7
L5L
sa(dp707
g4
I01
sg5
g22
sg7
L2L
sg16
Vdefault object formatter
p708
sa(dp709
g4
I01
sg5
g25
sg7
L5L
sa(dp710
g4
I01
sg5
g27
sg7
L5L
sa(dp711
g4
I01
sg5
g29
sg7
L5L
sa(dp712
g4
I01
sg5
g31
sg7
L5L
sa(dp713
g4
I01
sg5
g33
sg7
L5L
sa(dp714
g4
I01
sg5
g106
sg7
L5L
sa(dp715
g4
I01
sg5
g35
sg7
L5L
sa(dp716
g4
I01
sg5
g37
sg7
L5L
sa(dp717
g4
I01
sg5
g41
sg7
L5L
sa(dp718
g4
I01
sg5
g43
sg7
L2L
sg16
VCreate and return a new object.  See help(type) for accurate signature.
p719
sa(dp720
g4
I01
sg5
g113
sg7
L5L
sa(dp721
g4
I01
sg5
g46
sg7
L2L
sg16
VReturn state information for pickling.
p722
sa(dp723
g4
I01
sg5
g49
sg7
L2L
sg16
Vhelper for pickle
p724
sa(dp725
g4
I01
sg5
g52
sg7
L5L
sa(dp726
g4
I01
sg5
g54
sg7
L5L
sa(dp727
g4
I01
sg5
g56
sg7
L2L
sg16
V__sizeof__() -> int\u000asize of object in memory, in bytes
p728
sa(dp729
g4
I01
sg5
g59
sg7
L5L
sa(dp730
g4
I01
sg5
g61
sg7
L2L
sg16
VAbstract classes can override this to customize issubclass().\u000a\u000aThis is invoked early on by abc.ABCMeta.__subclasscheck__().\u000aIt should return True, False or NotImplemented.  If it returns\u000aNotImplemented, the normal algorithm is used.  Otherwise, it\u000aoverrides the normal algorithm (and the outcome is cached).\u000a
p731
sasg4
I01
sg5
Vstarmap
p732
sg7
L3L
sg16
Vstarmap(function, sequence) --> starmap object\u000a\u000aReturn an iterator whose values are returned from the function evaluated\u000awith an argument tuple taken from the given sequence.
p733
sa(dp734
g1
(lp735
(dp736
g4
I01
sg5
g11
sg7
L5L
sa(dp737
g4
I01
sg5
g15
sg7
L2L
sg16
V__dir__() -> list\u000adefault dir() implementation
p738
sa(dp739
g4
I01
sg5
g6
sg7
L5L
sa(dp740
g4
I01
sg5
g20
sg7
L5L
sa(dp741
g4
I01
sg5
g22
sg7
L2L
sg16
Vdefault object formatter
p742
sa(dp743
g4
I01
sg5
g25
sg7
L5L
sa(dp744
g4
I01
sg5
g27
sg7
L5L
sa(dp745
g4
I01
sg5
g29
sg7
L5L
sa(dp746
g4
I01
sg5
g31
sg7
L5L
sa(dp747
g4
I01
sg5
g33
sg7
L5L
sa(dp748
g4
I01
sg5
g106
sg7
L5L
sa(dp749
g4
I01
sg5
g35
sg7
L5L
sa(dp750
g4
I01
sg5
g37
sg7
L5L
sa(dp751
g4
I01
sg5
g41
sg7
L5L
sa(dp752
g4
I01
sg5
g43
sg7
L2L
sg16
VCreate and return a new object.  See help(type) for accurate signature.
p753
sa(dp754
g4
I01
sg5
g113
sg7
L5L
sa(dp755
g4
I01
sg5
g46
sg7
L2L
sg16
VReturn state information for pickling.
p756
sa(dp757
g4
I01
sg5
g49
sg7
L2L
sg16
Vhelper for pickle
p758
sa(dp759
g4
I01
sg5
g52
sg7
L5L
sa(dp760
g4
I01
sg5
g54
sg7
L5L
sa(dp761
g4
I01
sg5
g157
sg7
L2L
sg16
VSet state information for unpickling.
p762
sa(dp763
g4
I01
sg5
g56
sg7
L2L
sg16
V__sizeof__() -> int\u000asize of object in memory, in bytes
p764
sa(dp765
g4
I01
sg5
g59
sg7
L5L
sa(dp766
g4
I01
sg5
g61
sg7
L2L
sg16
VAbstract classes can override this to customize issubclass().\u000a\u000aThis is invoked early on by abc.ABCMeta.__subclasscheck__().\u000aIt should return True, False or NotImplemented.  If it returns\u000aNotImplemented, the normal algorithm is used.  Otherwise, it\u000aoverrides the normal algorithm (and the outcome is cached).\u000a
p767
sasg4
I01
sg5
Vtakewhile
p768
sg7
L3L
sg16
Vtakewhile(predicate, iterable) --> takewhile object\u000a\u000aReturn successive entries from an iterable as long as the \u000apredicate evaluates to true for each entry.
p769
sa(dp770
g4
I01
sg5
Vtee
p771
sg7
L2L
sg16
Vtee(iterable, n=2) --> tuple of n independent iterators.
p772
sa(dp773
g1
(lp774
(dp775
g4
I01
sg5
g11
sg7
L5L
sa(dp776
g4
I01
sg5
g15
sg7
L2L
sg16
V__dir__() -> list\u000adefault dir() implementation
p777
sa(dp778
g4
I01
sg5
g6
sg7
L5L
sa(dp779
g4
I01
sg5
g20
sg7
L5L
sa(dp780
g4
I01
sg5
g22
sg7
L2L
sg16
Vdefault object formatter
p781
sa(dp782
g4
I01
sg5
g25
sg7
L5L
sa(dp783
g4
I01
sg5
g27
sg7
L5L
sa(dp784
g4
I01
sg5
g29
sg7
L5L
sa(dp785
g4
I01
sg5
g31
sg7
L5L
sa(dp786
g4
I01
sg5
g33
sg7
L5L
sa(dp787
g4
I01
sg5
g106
sg7
L5L
sa(dp788
g4
I01
sg5
g35
sg7
L5L
sa(dp789
g4
I01
sg5
g37
sg7
L5L
sa(dp790
g4
I01
sg5
g41
sg7
L5L
sa(dp791
g4
I01
sg5
g43
sg7
L2L
sg16
VCreate and return a new object.  See help(type) for accurate signature.
p792
sa(dp793
g4
I01
sg5
g113
sg7
L5L
sa(dp794
g4
I01
sg5
g46
sg7
L2L
sg16
VReturn state information for pickling.
p795
sa(dp796
g4
I01
sg5
g49
sg7
L2L
sg16
Vhelper for pickle
p797
sa(dp798
g4
I01
sg5
g52
sg7
L5L
sa(dp799
g4
I01
sg5
g54
sg7
L5L
sa(dp800
g4
I01
sg5
g157
sg7
L2L
sg16
VSet state information for unpickling.
p801
sa(dp802
g4
I01
sg5
g56
sg7
L2L
sg16
V__sizeof__() -> int\u000asize of object in memory, in bytes
p803
sa(dp804
g4
I01
sg5
g59
sg7
L5L
sa(dp805
g4
I01
sg5
g61
sg7
L2L
sg16
VAbstract classes can override this to customize issubclass().\u000a\u000aThis is invoked early on by abc.ABCMeta.__subclasscheck__().\u000aIt should return True, False or NotImplemented.  If it returns\u000aNotImplemented, the normal algorithm is used.  Otherwise, it\u000aoverrides the normal algorithm (and the outcome is cached).\u000a
p806
sasg4
I01
sg5
Vzip_longest
p807
sg7
L3L
sg16
Vzip_longest(iter1 [,iter2 [...]], [fillvalue=None]) --> zip_longest object\u000a\u000aReturn a zip_longest object whose .__next__() method returns a tuple where\u000athe i-th element comes from the i-th iterable argument.  The .__next__()\u000amethod continues until the longest iterable in the argument sequence\u000ais exhausted and then it raises StopIteration.  When the shorter iterables\u000aare exhausted, the fillvalue is substituted in their place.  The fillvalue\u000adefaults to None or can be specified by a keyword argument.\u000a
p808
sasg4
I01
sg5
Vitertools
p809
sg16
VFunctional tools for creating and using iterators.\u000a\u000aInfinite iterators:\u000acount(start=0, step=1) --> start, start+step, start+2*step, ...\u000acycle(p) --> p0, p1, ... plast, p0, p1, ...\u000arepeat(elem [,n]) --> elem, elem, elem, ... endlessly or up to n times\u000a\u000aIterators terminating on the shortest input sequence:\u000aaccumulate(p[, func]) --> p0, p0+p1, p0+p1+p2\u000achain(p, q, ...) --> p0, p1, ... plast, q0, q1, ... \u000achain.from_iterable([p, q, ...]) --> p0, p1, ... plast, q0, q1, ... \u000acompress(data, selectors) --> (d[0] if s[0]), (d[1] if s[1]), ...\u000adropwhile(pred, seq) --> seq[n], seq[n+1], starting when pred fails\u000agroupby(iterable[, keyfunc]) --> sub-iterators grouped by value of keyfunc(v)\u000afilterfalse(pred, seq) --> elements of seq where pred(elem) is False\u000aislice(seq, [start,] stop [, step]) --> elements from\u000a       seq[start:stop:step]\u000astarmap(fun, seq) --> fun(*seq[0]), fun(*seq[1]), ...\u000atee(it, n=2) --> (it1, it2 , ... itn) splits one iterator into n\u000atakewhile(pred, seq) --> seq[0], seq[1], until pred fails\u000azip_longest(p, q, ...) --> (p[0], q[0]), (p[1], q[1]), ... \u000a\u000aCombinatoric generators:\u000aproduct(p, q, ... [repeat=1]) --> cartesian product\u000apermutations(p[, r])\u000acombinations(p, r)\u000acombinations_with_replacement(p, r)\u000a
p810
s.