(dp0
Vchilds
p1
(lp2
(dp3
Vis_builtin
p4
I01
sVname
p5
VCLD_CONTINUED
p6
sVtype
p7
L5L
sa(dp8
g4
I01
sg5
VCLD_DUMPED
p9
sg7
L5L
sa(dp10
g4
I01
sg5
VCLD_EXITED
p11
sg7
L5L
sa(dp12
g4
I01
sg5
VCLD_TRAPPED
p13
sg7
L5L
sa(dp14
g4
I01
sg5
VEX_CANTCREAT
p15
sg7
L5L
sa(dp16
g4
I01
sg5
VEX_CONFIG
p17
sg7
L5L
sa(dp18
g4
I01
sg5
VEX_DATAERR
p19
sg7
L5L
sa(dp20
g4
I01
sg5
VEX_IOERR
p21
sg7
L5L
sa(dp22
g4
I01
sg5
VEX_NOHOST
p23
sg7
L5L
sa(dp24
g4
I01
sg5
VEX_NOINPUT
p25
sg7
L5L
sa(dp26
g4
I01
sg5
VEX_NOPERM
p27
sg7
L5L
sa(dp28
g4
I01
sg5
VEX_NOUSER
p29
sg7
L5L
sa(dp30
g4
I01
sg5
VEX_OK
p31
sg7
L5L
sa(dp32
g4
I01
sg5
VEX_OSERR
p33
sg7
L5L
sa(dp34
g4
I01
sg5
VEX_OSFILE
p35
sg7
L5L
sa(dp36
g4
I01
sg5
VEX_PROTOCOL
p37
sg7
L5L
sa(dp38
g4
I01
sg5
VEX_SOFTWARE
p39
sg7
L5L
sa(dp40
g4
I01
sg5
VEX_TEMPFAIL
p41
sg7
L5L
sa(dp42
g4
I01
sg5
VEX_UNAVAILABLE
p43
sg7
L5L
sa(dp44
g4
I01
sg5
VEX_USAGE
p45
sg7
L5L
sa(dp46
g4
I01
sg5
VF_LOCK
p47
sg7
L5L
sa(dp48
g4
I01
sg5
VF_OK
p49
sg7
L5L
sa(dp50
g4
I01
sg5
VF_TEST
p51
sg7
L5L
sa(dp52
g4
I01
sg5
VF_TLOCK
p53
sg7
L5L
sa(dp54
g4
I01
sg5
VF_ULOCK
p55
sg7
L5L
sa(dp56
g4
I01
sg5
VNGROUPS_MAX
p57
sg7
L5L
sa(dp58
g4
I01
sg5
VO_ACCMODE
p59
sg7
L5L
sa(dp60
g4
I01
sg5
VO_APPEND
p61
sg7
L5L
sa(dp62
g4
I01
sg5
VO_ASYNC
p63
sg7
L5L
sa(dp64
g4
I01
sg5
VO_CLOEXEC
p65
sg7
L5L
sa(dp66
g4
I01
sg5
VO_CREAT
p67
sg7
L5L
sa(dp68
g4
I01
sg5
VO_DIRECT
p69
sg7
L5L
sa(dp70
g4
I01
sg5
VO_DIRECTORY
p71
sg7
L5L
sa(dp72
g4
I01
sg5
VO_DSYNC
p73
sg7
L5L
sa(dp74
g4
I01
sg5
VO_EXCL
p75
sg7
L5L
sa(dp76
g4
I01
sg5
VO_LARGEFILE
p77
sg7
L5L
sa(dp78
g4
I01
sg5
VO_NDELAY
p79
sg7
L5L
sa(dp80
g4
I01
sg5
VO_NOATIME
p81
sg7
L5L
sa(dp82
g4
I01
sg5
VO_NOCTTY
p83
sg7
L5L
sa(dp84
g4
I01
sg5
VO_NOFOLLOW
p85
sg7
L5L
sa(dp86
g4
I01
sg5
VO_NONBLOCK
p87
sg7
L5L
sa(dp88
g4
I01
sg5
VO_PATH
p89
sg7
L5L
sa(dp90
g4
I01
sg5
VO_RDONLY
p91
sg7
L5L
sa(dp92
g4
I01
sg5
VO_RDWR
p93
sg7
L5L
sa(dp94
g4
I01
sg5
VO_RSYNC
p95
sg7
L5L
sa(dp96
g4
I01
sg5
VO_SYNC
p97
sg7
L5L
sa(dp98
g4
I01
sg5
VO_TMPFILE
p99
sg7
L5L
sa(dp100
g4
I01
sg5
VO_TRUNC
p101
sg7
L5L
sa(dp102
g4
I01
sg5
VO_WRONLY
p103
sg7
L5L
sa(dp104
g4
I01
sg5
VPOSIX_FADV_DONTNEED
p105
sg7
L5L
sa(dp106
g4
I01
sg5
VPOSIX_FADV_NOREUSE
p107
sg7
L5L
sa(dp108
g4
I01
sg5
VPOSIX_FADV_NORMAL
p109
sg7
L5L
sa(dp110
g4
I01
sg5
VPOSIX_FADV_RANDOM
p111
sg7
L5L
sa(dp112
g4
I01
sg5
VPOSIX_FADV_SEQUENTIAL
p113
sg7
L5L
sa(dp114
g4
I01
sg5
VPOSIX_FADV_WILLNEED
p115
sg7
L5L
sa(dp116
g4
I01
sg5
VPRIO_PGRP
p117
sg7
L5L
sa(dp118
g4
I01
sg5
VPRIO_PROCESS
p119
sg7
L5L
sa(dp120
g4
I01
sg5
VPRIO_USER
p121
sg7
L5L
sa(dp122
g4
I01
sg5
VP_ALL
p123
sg7
L5L
sa(dp124
g4
I01
sg5
VP_PGID
p125
sg7
L5L
sa(dp126
g4
I01
sg5
VP_PID
p127
sg7
L5L
sa(dp128
g4
I01
sg5
VRTLD_DEEPBIND
p129
sg7
L5L
sa(dp130
g4
I01
sg5
VRTLD_GLOBAL
p131
sg7
L5L
sa(dp132
g4
I01
sg5
VRTLD_LAZY
p133
sg7
L5L
sa(dp134
g4
I01
sg5
VRTLD_LOCAL
p135
sg7
L5L
sa(dp136
g4
I01
sg5
VRTLD_NODELETE
p137
sg7
L5L
sa(dp138
g4
I01
sg5
VRTLD_NOLOAD
p139
sg7
L5L
sa(dp140
g4
I01
sg5
VRTLD_NOW
p141
sg7
L5L
sa(dp142
g4
I01
sg5
VR_OK
p143
sg7
L5L
sa(dp144
g4
I01
sg5
VSCHED_BATCH
p145
sg7
L5L
sa(dp146
g4
I01
sg5
VSCHED_FIFO
p147
sg7
L5L
sa(dp148
g4
I01
sg5
VSCHED_IDLE
p149
sg7
L5L
sa(dp150
g4
I01
sg5
VSCHED_OTHER
p151
sg7
L5L
sa(dp152
g4
I01
sg5
VSCHED_RESET_ON_FORK
p153
sg7
L5L
sa(dp154
g4
I01
sg5
VSCHED_RR
p155
sg7
L5L
sa(dp156
g4
I01
sg5
VSEEK_DATA
p157
sg7
L5L
sa(dp158
g4
I01
sg5
VSEEK_HOLE
p159
sg7
L5L
sa(dp160
g4
I01
sg5
VST_APPEND
p161
sg7
L5L
sa(dp162
g4
I01
sg5
VST_MANDLOCK
p163
sg7
L5L
sa(dp164
g4
I01
sg5
VST_NOATIME
p165
sg7
L5L
sa(dp166
g4
I01
sg5
VST_NODEV
p167
sg7
L5L
sa(dp168
g4
I01
sg5
VST_NODIRATIME
p169
sg7
L5L
sa(dp170
g4
I01
sg5
VST_NOEXEC
p171
sg7
L5L
sa(dp172
g4
I01
sg5
VST_NOSUID
p173
sg7
L5L
sa(dp174
g4
I01
sg5
VST_RDONLY
p175
sg7
L5L
sa(dp176
g4
I01
sg5
VST_RELATIME
p177
sg7
L5L
sa(dp178
g4
I01
sg5
VST_SYNCHRONOUS
p179
sg7
L5L
sa(dp180
g4
I01
sg5
VST_WRITE
p181
sg7
L5L
sa(dp182
g4
I01
sg5
VTMP_MAX
p183
sg7
L5L
sa(dp184
g4
I01
sg5
VWCONTINUED
p185
sg7
L5L
sa(dp186
g4
I01
sg5
VWCOREDUMP
p187
sg7
L2L
sVdoc
p188
VReturn True if the process returning status was dumped to a core file.
p189
sa(dp190
g4
I01
sg5
VWEXITED
p191
sg7
L5L
sa(dp192
g4
I01
sg5
VWEXITSTATUS
p193
sg7
L2L
sg188
VReturn the process return code from status.
p194
sa(dp195
g4
I01
sg5
VWIFCONTINUED
p196
sg7
L2L
sg188
VReturn True if a particular process was continued from a job control stop.\u000a\u000aReturn True if the process returning status was continued from a\u000ajob control stop.
p197
sa(dp198
g4
I01
sg5
VWIFEXITED
p199
sg7
L2L
sg188
VReturn True if the process returning status exited via the exit() system call.
p200
sa(dp201
g4
I01
sg5
VWIFSIGNALED
p202
sg7
L2L
sg188
VReturn True if the process returning status was terminated by a signal.
p203
sa(dp204
g4
I01
sg5
VWIFSTOPPED
p205
sg7
L2L
sg188
VReturn True if the process returning status was stopped.
p206
sa(dp207
g4
I01
sg5
VWNOHANG
p208
sg7
L5L
sa(dp209
g4
I01
sg5
VWNOWAIT
p210
sg7
L5L
sa(dp211
g4
I01
sg5
VWSTOPPED
p212
sg7
L5L
sa(dp213
g4
I01
sg5
VWSTOPSIG
p214
sg7
L2L
sg188
VReturn the signal that stopped the process that provided the status value.
p215
sa(dp216
g4
I01
sg5
VWTERMSIG
p217
sg7
L2L
sg188
VReturn the signal that terminated the process that provided the status value.
p218
sa(dp219
g4
I01
sg5
VWUNTRACED
p220
sg7
L5L
sa(dp221
g4
I01
sg5
VW_OK
p222
sg7
L5L
sa(dp223
g4
I01
sg5
VXATTR_CREATE
p224
sg7
L5L
sa(dp225
g4
I01
sg5
VXATTR_REPLACE
p226
sg7
L5L
sa(dp227
g4
I01
sg5
VXATTR_SIZE_MAX
p228
sg7
L5L
sa(dp229
g4
I01
sg5
VX_OK
p230
sg7
L5L
sa(dp231
g4
I01
sg5
V__doc__
p232
sg7
L5L
sa(dp233
g1
(lp234
(dp235
g4
I01
sg5
V__delattr__
p236
sg7
L5L
sa(dp237
g4
I01
sg5
V__dict__
p238
sg7
L5L
sa(dp239
g4
I01
sg5
V__dir__
p240
sg7
L2L
sg188
V__dir__() -> list\u000adefault dir() implementation
p241
sa(dp242
g4
I01
sg5
g232
sg7
L5L
sa(dp243
g4
I01
sg5
V__eq__
p244
sg7
L5L
sa(dp245
g4
I01
sg5
V__format__
p246
sg7
L2L
sg188
Vdefault object formatter
p247
sa(dp248
g4
I01
sg5
V__ge__
p249
sg7
L5L
sa(dp250
g4
I01
sg5
V__getattribute__
p251
sg7
L5L
sa(dp252
g4
I01
sg5
V__gt__
p253
sg7
L5L
sa(dp254
g4
I01
sg5
V__hash__
p255
sg7
L5L
sa(dp256
g4
I01
sg5
V__init__
p257
sg7
L5L
sa(dp258
g4
I01
sg5
V__le__
p259
sg7
L5L
sa(dp260
g4
I01
sg5
V__lt__
p261
sg7
L5L
sa(dp262
g4
I01
sg5
V__module__
p263
sg7
L5L
sa(dp264
g4
I01
sg5
V__ne__
p265
sg7
L5L
sa(dp266
g4
I01
sg5
V__new__
p267
sg7
L2L
sg188
VCreate and return a new object.  See help(type) for accurate signature.
p268
sa(dp269
g4
I01
sg5
V__reduce__
p270
sg7
L2L
sg188
Vhelper for pickle
p271
sa(dp272
g4
I01
sg5
V__reduce_ex__
p273
sg7
L2L
sg188
Vhelper for pickle
p274
sa(dp275
g4
I01
sg5
V__repr__
p276
sg7
L5L
sa(dp277
g4
I01
sg5
V__setattr__
p278
sg7
L5L
sa(dp279
g4
I01
sg5
V__sizeof__
p280
sg7
L2L
sg188
V__sizeof__() -> int\u000asize of object in memory, in bytes
p281
sa(dp282
g4
I01
sg5
V__str__
p283
sg7
L5L
sa(dp284
g4
I01
sg5
V__subclasshook__
p285
sg7
L2L
sg188
VAbstract classes can override this to customize issubclass().\u000a\u000aThis is invoked early on by abc.ABCMeta.__subclasscheck__().\u000aIt should return True, False or NotImplemented.  If it returns\u000aNotImplemented, the normal algorithm is used.  Otherwise, it\u000aoverrides the normal algorithm (and the outcome is cached).\u000a
p286
sa(dp287
g4
I01
sg5
V__weakref__
p288
sg7
L5L
sa(dp289
g4
I01
sg5
Vcreate_module
p290
sg7
L5L
sa(dp291
g4
I01
sg5
Vexec_module
p292
sg7
L5L
sa(dp293
g4
I01
sg5
Vfind_module
p294
sg7
L5L
sa(dp295
g4
I01
sg5
Vfind_spec
p296
sg7
L5L
sa(dp297
g4
I01
sg5
Vget_code
p298
sg7
L5L
sa(dp299
g4
I01
sg5
Vget_source
p300
sg7
L5L
sa(dp301
g4
I01
sg5
Vis_package
p302
sg7
L5L
sa(dp303
g4
I01
sg5
Vload_module
p304
sg7
L5L
sa(dp305
g4
I01
sg5
Vmodule_repr
p306
sg7
L5L
sasg4
I01
sg5
V__loader__
p307
sg7
L3L
sg188
VMeta path import for built-in modules.\u000a\u000a    All methods are either class or static methods to avoid the need to\u000a    instantiate the class.\u000a\u000a    
p308
sa(dp309
g4
I01
sg5
V__name__
p310
sg7
L5L
sa(dp311
g4
I01
sg5
V__package__
p312
sg7
L5L
sa(dp313
g4
I01
sg5
V__spec__
p314
sg7
L5L
sa(dp315
g4
I01
sg5
V_exit
p316
sg7
L2L
sg188
VExit to the system with specified status, without normal exit processing.
p317
sa(dp318
g4
I01
sg5
V_have_functions
p319
sg7
L5L
sa(dp320
g4
I01
sg5
Vabort
p321
sg7
L2L
sg188
VAbort the interpreter immediately.\u000a\u000aThis function 'dumps core' or otherwise fails in the hardest way possible\u000aon the hosting operating system.  This function never returns.
p322
sa(dp323
g4
I01
sg5
Vaccess
p324
sg7
L2L
sg188
VUse the real uid/gid to test for access to a path.\u000a\u000a  path\u000a    Path to be tested; can be string, bytes, or open-file-descriptor int.\u000a  mode\u000a    Operating-system mode bitfield.  Can be F_OK to test existence,\u000a    or the inclusive-OR of R_OK, W_OK, and X_OK.\u000a  dir_fd\u000a    If not None, it should be a file descriptor open to a directory,\u000a    and path should be relative; path will then be relative to that\u000a    directory.\u000a  effective_ids\u000a    If True, access will use the effective uid/gid instead of\u000a    the real uid/gid.\u000a  follow_symlinks\u000a    If False, and the last element of the path is a symbolic link,\u000a    access will examine the symbolic link itself instead of the file\u000a    the link points to.\u000a\u000adir_fd, effective_ids, and follow_symlinks may not be implemented\u000a  on your platform.  If they are unavailable, using them will raise a\u000a  NotImplementedError.\u000a\u000aNote that most operations will use the effective uid/gid, therefore this\u000a  routine can be used in a suid/sgid environment to test if the invoking user\u000a  has the specified access to the path.
p325
sa(dp326
g4
I01
sg5
Vchdir
p327
sg7
L2L
sg188
VChange the current working directory to the specified path.\u000a\u000apath may always be specified as a string.\u000aOn some platforms, path may also be specified as an open file descriptor.\u000a  If this functionality is unavailable, using it raises an exception.
p328
sa(dp329
g4
I01
sg5
Vchmod
p330
sg7
L2L
sg188
VChange the access permissions of a file.\u000a\u000a  path\u000a    Path to be modified.  May always be specified as a str or bytes.\u000a    On some platforms, path may also be specified as an open file descriptor.\u000a    If this functionality is unavailable, using it raises an exception.\u000a  mode\u000a    Operating-system mode bitfield.\u000a  dir_fd\u000a    If not None, it should be a file descriptor open to a directory,\u000a    and path should be relative; path will then be relative to that\u000a    directory.\u000a  follow_symlinks\u000a    If False, and the last element of the path is a symbolic link,\u000a    chmod will modify the symbolic link itself instead of the file\u000a    the link points to.\u000a\u000aIt is an error to use dir_fd or follow_symlinks when specifying path as\u000a  an open file descriptor.\u000adir_fd and follow_symlinks may not be implemented on your platform.\u000a  If they are unavailable, using them will raise a NotImplementedError.
p331
sa(dp332
g4
I01
sg5
Vchown
p333
sg7
L2L
sg188
VChange the owner and group id of path to the numeric uid and gid.\u005c\u000a\u000a  path\u000a    Path to be examined; can be string, bytes, or open-file-descriptor int.\u000a  dir_fd\u000a    If not None, it should be a file descriptor open to a directory,\u000a    and path should be relative; path will then be relative to that\u000a    directory.\u000a  follow_symlinks\u000a    If False, and the last element of the path is a symbolic link,\u000a    stat will examine the symbolic link itself instead of the file\u000a    the link points to.\u000a\u000apath may always be specified as a string.\u000aOn some platforms, path may also be specified as an open file descriptor.\u000a  If this functionality is unavailable, using it raises an exception.\u000aIf dir_fd is not None, it should be a file descriptor open to a directory,\u000a  and path should be relative; path will then be relative to that directory.\u000aIf follow_symlinks is False, and the last element of the path is a symbolic\u000a  link, chown will modify the symbolic link itself instead of the file the\u000a  link points to.\u000aIt is an error to use dir_fd or follow_symlinks when specifying path as\u000a  an open file descriptor.\u000adir_fd and follow_symlinks may not be implemented on your platform.\u000a  If they are unavailable, using them will raise a NotImplementedError.
p334
sa(dp335
g4
I01
sg5
Vchroot
p336
sg7
L2L
sg188
VChange root directory to path.
p337
sa(dp338
g4
I01
sg5
Vclose
p339
sg7
L2L
sg188
VClose a file descriptor.
p340
sa(dp341
g4
I01
sg5
Vcloserange
p342
sg7
L2L
sg188
VCloses all file descriptors in [fd_low, fd_high), ignoring errors.
p343
sa(dp344
g4
I01
sg5
Vconfstr
p345
sg7
L2L
sg188
VReturn a string-valued system configuration variable.
p346
sa(dp347
g4
I01
sg5
Vconfstr_names
p348
sg7
L5L
sa(dp349
g4
I01
sg5
Vcpu_count
p350
sg7
L2L
sg188
VReturn the number of CPUs in the system; return None if indeterminable.
p351
sa(dp352
g4
I01
sg5
Vctermid
p353
sg7
L2L
sg188
VReturn the name of the controlling terminal for this process.
p354
sa(dp355
g4
I01
sg5
Vdevice_encoding
p356
sg7
L2L
sg188
VReturn a string describing the encoding of a terminal's file descriptor.\u000a\u000aThe file descriptor must be attached to a terminal.\u000aIf the device is not a terminal, return None.
p357
sa(dp358
g4
I01
sg5
Vdup
p359
sg7
L2L
sg188
VReturn a duplicate of a file descriptor.
p360
sa(dp361
g4
I01
sg5
Vdup2
p362
sg7
L2L
sg188
VDuplicate file descriptor.
p363
sa(dp364
g4
I01
sg5
Venviron
p365
sg7
L5L
sa(dp366
g1
(lp367
(dp368
g4
I01
sg5
V__cause__
p369
sg7
L5L
sa(dp370
g4
I01
sg5
V__context__
p371
sg7
L5L
sa(dp372
g4
I01
sg5
g236
sg7
L5L
sa(dp373
g4
I01
sg5
g238
sg7
L5L
sa(dp374
g4
I01
sg5
g240
sg7
L2L
sg188
V__dir__() -> list\u000adefault dir() implementation
p375
sa(dp376
g4
I01
sg5
g232
sg7
L5L
sa(dp377
g4
I01
sg5
g244
sg7
L5L
sa(dp378
g4
I01
sg5
g246
sg7
L2L
sg188
Vdefault object formatter
p379
sa(dp380
g4
I01
sg5
g249
sg7
L5L
sa(dp381
g4
I01
sg5
g251
sg7
L5L
sa(dp382
g4
I01
sg5
g253
sg7
L5L
sa(dp383
g4
I01
sg5
g255
sg7
L5L
sa(dp384
g4
I01
sg5
g257
sg7
L5L
sa(dp385
g4
I01
sg5
g259
sg7
L5L
sa(dp386
g4
I01
sg5
g261
sg7
L5L
sa(dp387
g4
I01
sg5
g265
sg7
L5L
sa(dp388
g4
I01
sg5
g267
sg7
L2L
sg188
VCreate and return a new object.  See help(type) for accurate signature.
p389
sa(dp390
g4
I01
sg5
g270
sg7
L2L
sg188
Nsa(dp391
g4
I01
sg5
g273
sg7
L2L
sg188
Vhelper for pickle
p392
sa(dp393
g4
I01
sg5
g276
sg7
L5L
sa(dp394
g4
I01
sg5
g278
sg7
L5L
sa(dp395
g4
I01
sg5
V__setstate__
p396
sg7
L2L
sg188
Nsa(dp397
g4
I01
sg5
g280
sg7
L2L
sg188
V__sizeof__() -> int\u000asize of object in memory, in bytes
p398
sa(dp399
g4
I01
sg5
g283
sg7
L5L
sa(dp400
g4
I01
sg5
g285
sg7
L2L
sg188
VAbstract classes can override this to customize issubclass().\u000a\u000aThis is invoked early on by abc.ABCMeta.__subclasscheck__().\u000aIt should return True, False or NotImplemented.  If it returns\u000aNotImplemented, the normal algorithm is used.  Otherwise, it\u000aoverrides the normal algorithm (and the outcome is cached).\u000a
p401
sa(dp402
g4
I01
sg5
V__suppress_context__
p403
sg7
L5L
sa(dp404
g4
I01
sg5
V__traceback__
p405
sg7
L5L
sa(dp406
g4
I01
sg5
Vargs
p407
sg7
L5L
sa(dp408
g4
I01
sg5
Vcharacters_written
p409
sg7
L5L
sa(dp410
g4
I01
sg5
Verrno
p411
sg7
L5L
sa(dp412
g4
I01
sg5
Vfilename
p413
sg7
L5L
sa(dp414
g4
I01
sg5
Vfilename2
p415
sg7
L5L
sa(dp416
g4
I01
sg5
Vstrerror
p417
sg7
L5L
sa(dp418
g4
I01
sg5
Vwith_traceback
p419
sg7
L2L
sg188
VException.with_traceback(tb) --\u000a    set self.__traceback__ to tb and return self.
p420
sasg4
I01
sg5
Verror
p421
sg7
L3L
sg188
VBase class for I/O related errors.
p422
sa(dp423
g4
I01
sg5
Vexecv
p424
sg7
L2L
sg188
VExecute an executable path with arguments, replacing current process.\u000a\u000a  path\u000a    Path of executable file.\u000a  argv\u000a    Tuple or list of strings.
p425
sa(dp426
g4
I01
sg5
Vexecve
p427
sg7
L2L
sg188
VExecute an executable path with arguments, replacing current process.\u000a\u000a  path\u000a    Path of executable file.\u000a  argv\u000a    Tuple or list of strings.\u000a  env\u000a    Dictionary of strings mapping to strings.
p428
sa(dp429
g4
I01
sg5
Vfchdir
p430
sg7
L2L
sg188
VChange to the directory of the given file descriptor.\u000a\u000afd must be opened on a directory, not a file.\u000aEquivalent to os.chdir(fd).
p431
sa(dp432
g4
I01
sg5
Vfchmod
p433
sg7
L2L
sg188
VChange the access permissions of the file given by file descriptor fd.\u000a\u000aEquivalent to os.chmod(fd, mode).
p434
sa(dp435
g4
I01
sg5
Vfchown
p436
sg7
L2L
sg188
VChange the owner and group id of the file specified by file descriptor.\u000a\u000aEquivalent to os.chown(fd, uid, gid).
p437
sa(dp438
g4
I01
sg5
Vfdatasync
p439
sg7
L2L
sg188
VForce write of fd to disk without forcing update of metadata.
p440
sa(dp441
g4
I01
sg5
Vfork
p442
sg7
L2L
sg188
VFork a child process.\u000a\u000aReturn 0 to child process and PID of child to parent process.
p443
sa(dp444
g4
I01
sg5
Vforkpty
p445
sg7
L2L
sg188
VFork a new process with a new pseudo-terminal as controlling tty.\u000a\u000aReturns a tuple of (pid, master_fd).\u000aLike fork(), return pid of 0 to the child process,\u000aand pid of child to the parent process.\u000aTo both, return fd of newly opened pseudo-terminal.
p446
sa(dp447
g4
I01
sg5
Vfpathconf
p448
sg7
L2L
sg188
VReturn the configuration limit name for the file descriptor fd.\u000a\u000aIf there is no limit, return -1.
p449
sa(dp450
g4
I01
sg5
Vfstat
p451
sg7
L2L
sg188
VPerform a stat system call on the given file descriptor.\u000a\u000aLike stat(), but for an open file descriptor.\u000aEquivalent to os.stat(fd).
p452
sa(dp453
g4
I01
sg5
Vfstatvfs
p454
sg7
L2L
sg188
VPerform an fstatvfs system call on the given fd.\u000a\u000aEquivalent to statvfs(fd).
p455
sa(dp456
g4
I01
sg5
Vfsync
p457
sg7
L2L
sg188
VForce write of fd to disk.
p458
sa(dp459
g4
I01
sg5
Vftruncate
p460
sg7
L2L
sg188
VTruncate a file, specified by file descriptor, to a specific length.
p461
sa(dp462
g4
I01
sg5
Vget_blocking
p463
sg7
L2L
sg188
Vget_blocking(fd) -> bool\u000a\u000aGet the blocking mode of the file descriptor:\u000aFalse if the O_NONBLOCK flag is set, True if the flag is cleared.
p464
sa(dp465
g4
I01
sg5
Vget_inheritable
p466
sg7
L2L
sg188
VGet the close-on-exe flag of the specified file descriptor.
p467
sa(dp468
g4
I01
sg5
Vget_terminal_size
p469
sg7
L2L
sg188
VReturn the size of the terminal window as (columns, lines).\u000a\u000aThe optional argument fd (default standard output) specifies\u000awhich file descriptor should be queried.\u000a\u000aIf the file descriptor is not connected to a terminal, an OSError\u000ais thrown.\u000a\u000aThis function will only be defined if an implementation is\u000aavailable for this system.\u000a\u000ashutil.get_terminal_size is the high-level function which should \u000anormally be used, os.get_terminal_size is the low-level implementation.
p470
sa(dp471
g4
I01
sg5
Vgetcwd
p472
sg7
L2L
sg188
VReturn a unicode string representing the current working directory.
p473
sa(dp474
g4
I01
sg5
Vgetcwdb
p475
sg7
L2L
sg188
VReturn a bytes string representing the current working directory.
p476
sa(dp477
g4
I01
sg5
Vgetegid
p478
sg7
L2L
sg188
VReturn the current process's effective group id.
p479
sa(dp480
g4
I01
sg5
Vgeteuid
p481
sg7
L2L
sg188
VReturn the current process's effective user id.
p482
sa(dp483
g4
I01
sg5
Vgetgid
p484
sg7
L2L
sg188
VReturn the current process's group id.
p485
sa(dp486
g4
I01
sg5
Vgetgrouplist
p487
sg7
L2L
sg188
Vgetgrouplist(user, group) -> list of groups to which a user belongs\u000a\u000aReturns a list of groups to which a user belongs.\u000a\u000a    user: username to lookup\u000a    group: base group id of the user
p488
sa(dp489
g4
I01
sg5
Vgetgroups
p490
sg7
L2L
sg188
VReturn list of supplemental group IDs for the process.
p491
sa(dp492
g4
I01
sg5
Vgetloadavg
p493
sg7
L2L
sg188
VReturn average recent system load information.\u000a\u000aReturn the number of processes in the system run queue averaged over\u000athe last 1, 5, and 15 minutes as a tuple of three floats.\u000aRaises OSError if the load average was unobtainable.
p494
sa(dp495
g4
I01
sg5
Vgetlogin
p496
sg7
L2L
sg188
VReturn the actual login name.
p497
sa(dp498
g4
I01
sg5
Vgetpgid
p499
sg7
L2L
sg188
VCall the system call getpgid(), and return the result.
p500
sa(dp501
g4
I01
sg5
Vgetpgrp
p502
sg7
L2L
sg188
VReturn the current process group id.
p503
sa(dp504
g4
I01
sg5
Vgetpid
p505
sg7
L2L
sg188
VReturn the current process id.
p506
sa(dp507
g4
I01
sg5
Vgetppid
p508
sg7
L2L
sg188
VReturn the parent's process id.\u000a\u000aIf the parent process has already exited, Windows machines will still\u000areturn its id; others systems will return the id of the 'init' process (1).
p509
sa(dp510
g4
I01
sg5
Vgetpriority
p511
sg7
L2L
sg188
VReturn program scheduling priority.
p512
sa(dp513
g4
I01
sg5
Vgetresgid
p514
sg7
L2L
sg188
VReturn a tuple of the current process's real, effective, and saved group ids.
p515
sa(dp516
g4
I01
sg5
Vgetresuid
p517
sg7
L2L
sg188
VReturn a tuple of the current process's real, effective, and saved user ids.
p518
sa(dp519
g4
I01
sg5
Vgetsid
p520
sg7
L2L
sg188
VCall the system call getsid(pid) and return the result.
p521
sa(dp522
g4
I01
sg5
Vgetuid
p523
sg7
L2L
sg188
VReturn the current process's user id.
p524
sa(dp525
g4
I01
sg5
Vgetxattr
p526
sg7
L2L
sg188
VReturn the value of extended attribute attribute on path.\u000a\u000apath may be either a string or an open file descriptor.\u000aIf follow_symlinks is False, and the last element of the path is a symbolic\u000a  link, getxattr will examine the symbolic link itself instead of the file\u000a  the link points to.
p527
sa(dp528
g4
I01
sg5
Vinitgroups
p529
sg7
L2L
sg188
Vinitgroups(username, gid) -> None\u000a\u000aCall the system initgroups() to initialize the group access list with all of\u000athe groups of which the specified username is a member, plus the specified\u000agroup id.
p530
sa(dp531
g4
I01
sg5
Visatty
p532
sg7
L2L
sg188
VReturn True if the fd is connected to a terminal.\u000a\u000aReturn True if the file descriptor is an open file descriptor\u000aconnected to the slave end of a terminal.
p533
sa(dp534
g4
I01
sg5
Vkill
p535
sg7
L2L
sg188
VKill a process with a signal.
p536
sa(dp537
g4
I01
sg5
Vkillpg
p538
sg7
L2L
sg188
VKill a process group with a signal.
p539
sa(dp540
g4
I01
sg5
Vlchown
p541
sg7
L2L
sg188
VChange the owner and group id of path to the numeric uid and gid.\u000a\u000aThis function will not follow symbolic links.\u000aEquivalent to os.chown(path, uid, gid, follow_symlinks=False).
p542
sa(dp543
g4
I01
sg5
Vlink
p544
sg7
L2L
sg188
VCreate a hard link to a file.\u000a\u000aIf either src_dir_fd or dst_dir_fd is not None, it should be a file\u000a  descriptor open to a directory, and the respective path string (src or dst)\u000a  should be relative; the path will then be relative to that directory.\u000aIf follow_symlinks is False, and the last element of src is a symbolic\u000a  link, link will create a link to the symbolic link itself instead of the\u000a  file the link points to.\u000asrc_dir_fd, dst_dir_fd, and follow_symlinks may not be implemented on your\u000a  platform.  If they are unavailable, using them will raise a\u000a  NotImplementedError.
p545
sa(dp546
g4
I01
sg5
Vlistdir
p547
sg7
L2L
sg188
VReturn a list containing the names of the files in the directory.\u000a\u000apath can be specified as either str or bytes.  If path is bytes,\u000a  the filenames returned will also be bytes; in all other circumstances\u000a  the filenames returned will be str.\u000aIf path is None, uses the path='.'.\u000aOn some platforms, path may also be specified as an open file descriptor;\u005c\u000a  the file descriptor must refer to a directory.\u000a  If this functionality is unavailable, using it raises NotImplementedError.\u000a\u000aThe list is in arbitrary order.  It does not include the special\u000aentries '.' and '..' even if they are present in the directory.
p548
sa(dp549
g4
I01
sg5
Vlistxattr
p550
sg7
L2L
sg188
VReturn a list of extended attributes on path.\u000a\u000apath may be either None, a string, or an open file descriptor.\u000aif path is None, listxattr will examine the current directory.\u000aIf follow_symlinks is False, and the last element of the path is a symbolic\u000a  link, listxattr will examine the symbolic link itself instead of the file\u000a  the link points to.
p551
sa(dp552
g4
I01
sg5
Vlockf
p553
sg7
L2L
sg188
VApply, test or remove a POSIX lock on an open file descriptor.\u000a\u000a  fd\u000a    An open file descriptor.\u000a  command\u000a    One of F_LOCK, F_TLOCK, F_ULOCK or F_TEST.\u000a  length\u000a    The number of bytes to lock, starting at the current position.
p554
sa(dp555
g4
I01
sg5
Vlseek
p556
sg7
L2L
sg188
VSet the position of a file descriptor.  Return the new position.\u000a\u000aReturn the new cursor position in number of bytes\u000arelative to the beginning of the file.
p557
sa(dp558
g4
I01
sg5
Vlstat
p559
sg7
L2L
sg188
VPerform a stat system call on the given path, without following symbolic links.\u000a\u000aLike stat(), but do not follow symbolic links.\u000aEquivalent to stat(path, follow_symlinks=False).
p560
sa(dp561
g4
I01
sg5
Vmajor
p562
sg7
L2L
sg188
VExtracts a device major number from a raw device number.
p563
sa(dp564
g4
I01
sg5
Vmakedev
p565
sg7
L2L
sg188
VComposes a raw device number from the major and minor device numbers.
p566
sa(dp567
g4
I01
sg5
Vminor
p568
sg7
L2L
sg188
VExtracts a device minor number from a raw device number.
p569
sa(dp570
g4
I01
sg5
Vmkdir
p571
sg7
L2L
sg188
VCreate a directory.\u000a\u000aIf dir_fd is not None, it should be a file descriptor open to a directory,\u000a  and path should be relative; path will then be relative to that directory.\u000adir_fd may not be implemented on your platform.\u000a  If it is unavailable, using it will raise a NotImplementedError.\u000a\u000aThe mode argument is ignored on Windows.
p572
sa(dp573
g4
I01
sg5
Vmkfifo
p574
sg7
L2L
sg188
VCreate a "fifo" (a POSIX named pipe).\u000a\u000aIf dir_fd is not None, it should be a file descriptor open to a directory,\u000a  and path should be relative; path will then be relative to that directory.\u000adir_fd may not be implemented on your platform.\u000a  If it is unavailable, using it will raise a NotImplementedError.
p575
sa(dp576
g4
I01
sg5
Vmknod
p577
sg7
L2L
sg188
VCreate a node in the file system.\u000a\u000aCreate a node in the file system (file, device special file or named pipe)\u000aat path.  mode specifies both the permissions to use and the\u000atype of node to be created, being combined (bitwise OR) with one of\u000aS_IFREG, S_IFCHR, S_IFBLK, and S_IFIFO.  If S_IFCHR or S_IFBLK is set on mode,\u000adevice defines the newly created device special file (probably using\u000aos.makedev()).  Otherwise device is ignored.\u000a\u000aIf dir_fd is not None, it should be a file descriptor open to a directory,\u000a  and path should be relative; path will then be relative to that directory.\u000adir_fd may not be implemented on your platform.\u000a  If it is unavailable, using it will raise a NotImplementedError.
p578
sa(dp579
g4
I01
sg5
Vnice
p580
sg7
L2L
sg188
VAdd increment to the priority of process and return the new priority.
p581
sa(dp582
g4
I01
sg5
Vopen
p583
sg7
L2L
sg188
VOpen a file for low level IO.  Returns a file descriptor (integer).\u000a\u000aIf dir_fd is not None, it should be a file descriptor open to a directory,\u000a  and path should be relative; path will then be relative to that directory.\u000adir_fd may not be implemented on your platform.\u000a  If it is unavailable, using it will raise a NotImplementedError.
p584
sa(dp585
g4
I01
sg5
Vopenpty
p586
sg7
L2L
sg188
VOpen a pseudo-terminal.\u000a\u000aReturn a tuple of (master_fd, slave_fd) containing open file descriptors\u000afor both the master and slave ends.
p587
sa(dp588
g4
I01
sg5
Vpathconf
p589
sg7
L2L
sg188
VReturn the configuration limit name for the file or directory path.\u000a\u000aIf there is no limit, return -1.\u000aOn some platforms, path may also be specified as an open file descriptor.\u000a  If this functionality is unavailable, using it raises an exception.
p590
sa(dp591
g4
I01
sg5
Vpathconf_names
p592
sg7
L5L
sa(dp593
g4
I01
sg5
Vpipe
p594
sg7
L2L
sg188
VCreate a pipe.\u000a\u000aReturns a tuple of two file descriptors:\u000a  (read_fd, write_fd)
p595
sa(dp596
g4
I01
sg5
Vpipe2
p597
sg7
L2L
sg188
VCreate a pipe with flags set atomically.\u000a\u000aReturns a tuple of two file descriptors:\u000a  (read_fd, write_fd)\u000a\u000aflags can be constructed by ORing together one or more of these values:\u000aO_NONBLOCK, O_CLOEXEC.
p598
sa(dp599
g4
I01
sg5
Vposix_fadvise
p600
sg7
L2L
sg188
VAnnounce an intention to access data in a specific pattern.\u000a\u000aAnnounce an intention to access data in a specific pattern, thus allowing\u000athe kernel to make optimizations.\u000aThe advice applies to the region of the file specified by fd starting at\u000aoffset and continuing for length bytes.\u000aadvice is one of POSIX_FADV_NORMAL, POSIX_FADV_SEQUENTIAL,\u000aPOSIX_FADV_RANDOM, POSIX_FADV_NOREUSE, POSIX_FADV_WILLNEED, or\u000aPOSIX_FADV_DONTNEED.
p601
sa(dp602
g4
I01
sg5
Vposix_fallocate
p603
sg7
L2L
sg188
VEnsure a file has allocated at least a particular number of bytes on disk.\u000a\u000aEnsure that the file specified by fd encompasses a range of bytes\u000astarting at offset bytes from the beginning and continuing for length bytes.
p604
sa(dp605
g4
I01
sg5
Vpread
p606
sg7
L2L
sg188
VRead a number of bytes from a file descriptor starting at a particular offset.\u000a\u000aRead length bytes from file descriptor fd, starting at offset bytes from\u000athe beginning of the file.  The file offset remains unchanged.
p607
sa(dp608
g4
I01
sg5
Vputenv
p609
sg7
L2L
sg188
VChange or add an environment variable.
p610
sa(dp611
g4
I01
sg5
Vpwrite
p612
sg7
L2L
sg188
VWrite bytes to a file descriptor starting at a particular offset.\u000a\u000aWrite buffer to fd, starting at offset bytes from the beginning of\u000athe file.  Returns the number of bytes writte.  Does not change the\u000acurrent file offset.
p613
sa(dp614
g4
I01
sg5
Vread
p615
sg7
L2L
sg188
VRead from a file descriptor.  Returns a bytes object.
p616
sa(dp617
g4
I01
sg5
Vreadlink
p618
sg7
L2L
sg188
Vreadlink(path, *, dir_fd=None) -> path\u000a\u000aReturn a string representing the path to which the symbolic link points.\u000a\u000aIf dir_fd is not None, it should be a file descriptor open to a directory,\u000a  and path should be relative; path will then be relative to that directory.\u000adir_fd may not be implemented on your platform.\u000a  If it is unavailable, using it will raise a NotImplementedError.
p619
sa(dp620
g4
I01
sg5
Vreadv
p621
sg7
L2L
sg188
VRead from a file descriptor fd into an iterable of buffers.\u000a\u000aThe buffers should be mutable buffers accepting bytes.\u000areadv will transfer data into each buffer until it is full\u000aand then move on to the next buffer in the sequence to hold\u000athe rest of the data.\u000a\u000areadv returns the total number of bytes read,\u000awhich may be less than the total capacity of all the buffers.
p622
sa(dp623
g4
I01
sg5
Vremove
p624
sg7
L2L
sg188
VRemove a file (same as unlink()).\u000a\u000aIf dir_fd is not None, it should be a file descriptor open to a directory,\u000a  and path should be relative; path will then be relative to that directory.\u000adir_fd may not be implemented on your platform.\u000a  If it is unavailable, using it will raise a NotImplementedError.
p625
sa(dp626
g4
I01
sg5
Vremovexattr
p627
sg7
L2L
sg188
VRemove extended attribute attribute on path.\u000a\u000apath may be either a string or an open file descriptor.\u000aIf follow_symlinks is False, and the last element of the path is a symbolic\u000a  link, removexattr will modify the symbolic link itself instead of the file\u000a  the link points to.
p628
sa(dp629
g4
I01
sg5
Vrename
p630
sg7
L2L
sg188
VRename a file or directory.\u000a\u000aIf either src_dir_fd or dst_dir_fd is not None, it should be a file\u000a  descriptor open to a directory, and the respective path string (src or dst)\u000a  should be relative; the path will then be relative to that directory.\u000asrc_dir_fd and dst_dir_fd, may not be implemented on your platform.\u000a  If they are unavailable, using them will raise a NotImplementedError.
p631
sa(dp632
g4
I01
sg5
Vreplace
p633
sg7
L2L
sg188
VRename a file or directory, overwriting the destination.\u000a\u000aIf either src_dir_fd or dst_dir_fd is not None, it should be a file\u000a  descriptor open to a directory, and the respective path string (src or dst)\u000a  should be relative; the path will then be relative to that directory.\u000asrc_dir_fd and dst_dir_fd, may not be implemented on your platform.\u000a  If they are unavailable, using them will raise a NotImplementedError."
p634
sa(dp635
g4
I01
sg5
Vrmdir
p636
sg7
L2L
sg188
VRemove a directory.\u000a\u000aIf dir_fd is not None, it should be a file descriptor open to a directory,\u000a  and path should be relative; path will then be relative to that directory.\u000adir_fd may not be implemented on your platform.\u000a  If it is unavailable, using it will raise a NotImplementedError.
p637
sa(dp638
g4
I01
sg5
Vscandir
p639
sg7
L2L
sg188
Vscandir(path='.') -> iterator of DirEntry objects for given path
p640
sa(dp641
g4
I01
sg5
Vsched_get_priority_max
p642
sg7
L2L
sg188
VGet the maximum scheduling priority for policy.
p643
sa(dp644
g4
I01
sg5
Vsched_get_priority_min
p645
sg7
L2L
sg188
VGet the minimum scheduling priority for policy.
p646
sa(dp647
g4
I01
sg5
Vsched_getaffinity
p648
sg7
L2L
sg188
VReturn the affinity of the process identified by pid.\u000a\u000aThe affinity is returned as a set of CPU identifiers.
p649
sa(dp650
g4
I01
sg5
Vsched_getparam
p651
sg7
L2L
sg188
VReturns scheduling parameters for the process identified by pid.\u000a\u000aIf pid is 0, returns parameters for the calling process.\u000aReturn value is an instance of sched_param.
p652
sa(dp653
g4
I01
sg5
Vsched_getscheduler
p654
sg7
L2L
sg188
VGet the scheduling policy for the process identifiedy by pid.\u000a\u000aPassing 0 for pid returns the scheduling policy for the calling process.
p655
sa(dp656
g1
(lp657
(dp658
g4
I01
sg5
V__add__
p659
sg7
L5L
sa(dp660
g4
I01
sg5
V__contains__
p661
sg7
L5L
sa(dp662
g4
I01
sg5
g236
sg7
L5L
sa(dp663
g4
I01
sg5
g240
sg7
L2L
sg188
V__dir__() -> list\u000adefault dir() implementation
p664
sa(dp665
g4
I01
sg5
g232
sg7
L5L
sa(dp666
g4
I01
sg5
g244
sg7
L5L
sa(dp667
g4
I01
sg5
g246
sg7
L2L
sg188
Vdefault object formatter
p668
sa(dp669
g4
I01
sg5
g249
sg7
L5L
sa(dp670
g4
I01
sg5
g251
sg7
L5L
sa(dp671
g4
I01
sg5
V__getitem__
p672
sg7
L5L
sa(dp673
g4
I01
sg5
V__getnewargs__
p674
sg7
L2L
sg188
Nsa(dp675
g4
I01
sg5
g253
sg7
L5L
sa(dp676
g4
I01
sg5
g255
sg7
L5L
sa(dp677
g4
I01
sg5
g257
sg7
L5L
sa(dp678
g4
I01
sg5
V__iter__
p679
sg7
L5L
sa(dp680
g4
I01
sg5
g259
sg7
L5L
sa(dp681
g4
I01
sg5
V__len__
p682
sg7
L5L
sa(dp683
g4
I01
sg5
g261
sg7
L5L
sa(dp684
g4
I01
sg5
V__mul__
p685
sg7
L5L
sa(dp686
g4
I01
sg5
g265
sg7
L5L
sa(dp687
g4
I01
sg5
g267
sg7
L2L
sg188
VCreate and return a new object.  See help(type) for accurate signature.
p688
sa(dp689
g4
I01
sg5
g270
sg7
L2L
sg188
Nsa(dp690
g4
I01
sg5
g273
sg7
L2L
sg188
Vhelper for pickle
p691
sa(dp692
g4
I01
sg5
g276
sg7
L5L
sa(dp693
g4
I01
sg5
V__rmul__
p694
sg7
L5L
sa(dp695
g4
I01
sg5
g278
sg7
L5L
sa(dp696
g4
I01
sg5
g280
sg7
L2L
sg188
V__sizeof__() -> int\u000asize of object in memory, in bytes
p697
sa(dp698
g4
I01
sg5
g283
sg7
L5L
sa(dp699
g4
I01
sg5
g285
sg7
L2L
sg188
VAbstract classes can override this to customize issubclass().\u000a\u000aThis is invoked early on by abc.ABCMeta.__subclasscheck__().\u000aIt should return True, False or NotImplemented.  If it returns\u000aNotImplemented, the normal algorithm is used.  Otherwise, it\u000aoverrides the normal algorithm (and the outcome is cached).\u000a
p700
sa(dp701
g4
I01
sg5
Vcount
p702
sg7
L2L
sg188
VT.count(value) -> integer -- return number of occurrences of value
p703
sa(dp704
g4
I01
sg5
Vindex
p705
sg7
L2L
sg188
VT.index(value, [start, [stop]]) -> integer -- return first index of value.\u000aRaises ValueError if the value is not present.
p706
sa(dp707
g4
I01
sg5
Vn_fields
p708
sg7
L5L
sa(dp709
g4
I01
sg5
Vn_sequence_fields
p710
sg7
L5L
sa(dp711
g4
I01
sg5
Vn_unnamed_fields
p712
sg7
L5L
sa(dp713
g4
I01
sg5
Vsched_priority
p714
sg7
L5L
sasg4
I01
sg5
Vsched_param
p715
sg7
L3L
sg188
VCurrent has only one field: sched_priority");\u000a\u000a  sched_priority\u000a    A scheduling parameter.
p716
sa(dp717
g4
I01
sg5
Vsched_rr_get_interval
p718
sg7
L2L
sg188
VReturn the round-robin quantum for the process identified by pid, in seconds.\u000a\u000aValue returned is a float.
p719
sa(dp720
g4
I01
sg5
Vsched_setaffinity
p721
sg7
L2L
sg188
VSet the CPU affinity of the process identified by pid to mask.\u000a\u000amask should be an iterable of integers identifying CPUs.
p722
sa(dp723
g4
I01
sg5
Vsched_setparam
p724
sg7
L2L
sg188
VSet scheduling parameters for the process identified by pid.\u000a\u000aIf pid is 0, sets parameters for the calling process.\u000aparam should be an instance of sched_param.
p725
sa(dp726
g4
I01
sg5
Vsched_setscheduler
p727
sg7
L2L
sg188
VSet the scheduling policy for the process identified by pid.\u000a\u000aIf pid is 0, the calling process is changed.\u000aparam is an instance of sched_param.
p728
sa(dp729
g4
I01
sg5
Vsched_yield
p730
sg7
L2L
sg188
VVoluntarily relinquish the CPU.
p731
sa(dp732
g4
I01
sg5
Vsendfile
p733
sg7
L2L
sg188
Vsendfile(out, in, offset, count) -> byteswritten\u000asendfile(out, in, offset, count[, headers][, trailers], flags=0)\u000a            -> byteswritten\u000aCopy count bytes from file descriptor in to file descriptor out.
p734
sa(dp735
g4
I01
sg5
Vset_blocking
p736
sg7
L2L
sg188
Vset_blocking(fd, blocking)\u000a\u000aSet the blocking mode of the specified file descriptor.\u000aSet the O_NONBLOCK flag if blocking is False,\u000aclear the O_NONBLOCK flag otherwise.
p737
sa(dp738
g4
I01
sg5
Vset_inheritable
p739
sg7
L2L
sg188
VSet the inheritable flag of the specified file descriptor.
p740
sa(dp741
g4
I01
sg5
Vsetegid
p742
sg7
L2L
sg188
VSet the current process's effective group id.
p743
sa(dp744
g4
I01
sg5
Vseteuid
p745
sg7
L2L
sg188
VSet the current process's effective user id.
p746
sa(dp747
g4
I01
sg5
Vsetgid
p748
sg7
L2L
sg188
VSet the current process's group id.
p749
sa(dp750
g4
I01
sg5
Vsetgroups
p751
sg7
L2L
sg188
VSet the groups of the current process to list.
p752
sa(dp753
g4
I01
sg5
Vsetpgid
p754
sg7
L2L
sg188
VCall the system call setpgid(pid, pgrp).
p755
sa(dp756
g4
I01
sg5
Vsetpgrp
p757
sg7
L2L
sg188
VMake the current process the leader of its process group.
p758
sa(dp759
g4
I01
sg5
Vsetpriority
p760
sg7
L2L
sg188
VSet program scheduling priority.
p761
sa(dp762
g4
I01
sg5
Vsetregid
p763
sg7
L2L
sg188
VSet the current process's real and effective group ids.
p764
sa(dp765
g4
I01
sg5
Vsetresgid
p766
sg7
L2L
sg188
VSet the current process's real, effective, and saved group ids.
p767
sa(dp768
g4
I01
sg5
Vsetresuid
p769
sg7
L2L
sg188
VSet the current process's real, effective, and saved user ids.
p770
sa(dp771
g4
I01
sg5
Vsetreuid
p772
sg7
L2L
sg188
VSet the current process's real and effective user ids.
p773
sa(dp774
g4
I01
sg5
Vsetsid
p775
sg7
L2L
sg188
VCall the system call setsid().
p776
sa(dp777
g4
I01
sg5
Vsetuid
p778
sg7
L2L
sg188
VSet the current process's user id.
p779
sa(dp780
g4
I01
sg5
Vsetxattr
p781
sg7
L2L
sg188
VSet extended attribute attribute on path to value.\u000a\u000apath may be either a string or an open file descriptor.\u000aIf follow_symlinks is False, and the last element of the path is a symbolic\u000a  link, setxattr will modify the symbolic link itself instead of the file\u000a  the link points to.
p782
sa(dp783
g4
I01
sg5
Vstat
p784
sg7
L2L
sg188
VPerform a stat system call on the given path.\u000a\u000a  path\u000a    Path to be examined; can be string, bytes, or open-file-descriptor int.\u000a  dir_fd\u000a    If not None, it should be a file descriptor open to a directory,\u000a    and path should be a relative string; path will then be relative to\u000a    that directory.\u000a  follow_symlinks\u000a    If False, and the last element of the path is a symbolic link,\u000a    stat will examine the symbolic link itself instead of the file\u000a    the link points to.\u000a\u000adir_fd and follow_symlinks may not be implemented\u000a  on your platform.  If they are unavailable, using them will raise a\u000a  NotImplementedError.\u000a\u000aIt's an error to use dir_fd or follow_symlinks when specifying path as\u000a  an open file descriptor.
p785
sa(dp786
g4
I01
sg5
Vstat_float_times
p787
sg7
L2L
sg188
Vstat_float_times([newval]) -> oldval\u000a\u000aDetermine whether os.[lf]stat represents time stamps as float objects.\u000a\u000aIf value is True, future calls to stat() return floats; if it is False,\u000afuture calls return ints.\u000aIf value is omitted, return the current setting.\u000a
p788
sa(dp789
g1
(lp790
(dp791
g4
I01
sg5
g659
sg7
L5L
sa(dp792
g4
I01
sg5
g661
sg7
L5L
sa(dp793
g4
I01
sg5
g236
sg7
L5L
sa(dp794
g4
I01
sg5
g240
sg7
L2L
sg188
V__dir__() -> list\u000adefault dir() implementation
p795
sa(dp796
g4
I01
sg5
g232
sg7
L5L
sa(dp797
g4
I01
sg5
g244
sg7
L5L
sa(dp798
g4
I01
sg5
g246
sg7
L2L
sg188
Vdefault object formatter
p799
sa(dp800
g4
I01
sg5
g249
sg7
L5L
sa(dp801
g4
I01
sg5
g251
sg7
L5L
sa(dp802
g4
I01
sg5
g672
sg7
L5L
sa(dp803
g4
I01
sg5
g674
sg7
L2L
sg188
Nsa(dp804
g4
I01
sg5
g253
sg7
L5L
sa(dp805
g4
I01
sg5
g255
sg7
L5L
sa(dp806
g4
I01
sg5
g257
sg7
L5L
sa(dp807
g4
I01
sg5
g679
sg7
L5L
sa(dp808
g4
I01
sg5
g259
sg7
L5L
sa(dp809
g4
I01
sg5
g682
sg7
L5L
sa(dp810
g4
I01
sg5
g261
sg7
L5L
sa(dp811
g4
I01
sg5
g685
sg7
L5L
sa(dp812
g4
I01
sg5
g265
sg7
L5L
sa(dp813
g4
I01
sg5
g267
sg7
L2L
sg188
VCreate and return a new object.  See help(type) for accurate signature.
p814
sa(dp815
g4
I01
sg5
g270
sg7
L2L
sg188
Nsa(dp816
g4
I01
sg5
g273
sg7
L2L
sg188
Vhelper for pickle
p817
sa(dp818
g4
I01
sg5
g276
sg7
L5L
sa(dp819
g4
I01
sg5
g694
sg7
L5L
sa(dp820
g4
I01
sg5
g278
sg7
L5L
sa(dp821
g4
I01
sg5
g280
sg7
L2L
sg188
V__sizeof__() -> int\u000asize of object in memory, in bytes
p822
sa(dp823
g4
I01
sg5
g283
sg7
L5L
sa(dp824
g4
I01
sg5
g285
sg7
L2L
sg188
VAbstract classes can override this to customize issubclass().\u000a\u000aThis is invoked early on by abc.ABCMeta.__subclasscheck__().\u000aIt should return True, False or NotImplemented.  If it returns\u000aNotImplemented, the normal algorithm is used.  Otherwise, it\u000aoverrides the normal algorithm (and the outcome is cached).\u000a
p825
sa(dp826
g4
I01
sg5
g702
sg7
L2L
sg188
VT.count(value) -> integer -- return number of occurrences of value
p827
sa(dp828
g4
I01
sg5
g705
sg7
L2L
sg188
VT.index(value, [start, [stop]]) -> integer -- return first index of value.\u000aRaises ValueError if the value is not present.
p829
sa(dp830
g4
I01
sg5
g708
sg7
L5L
sa(dp831
g4
I01
sg5
g710
sg7
L5L
sa(dp832
g4
I01
sg5
g712
sg7
L5L
sa(dp833
g4
I01
sg5
Vst_atime
p834
sg7
L5L
sa(dp835
g4
I01
sg5
Vst_atime_ns
p836
sg7
L5L
sa(dp837
g4
I01
sg5
Vst_blksize
p838
sg7
L5L
sa(dp839
g4
I01
sg5
Vst_blocks
p840
sg7
L5L
sa(dp841
g4
I01
sg5
Vst_ctime
p842
sg7
L5L
sa(dp843
g4
I01
sg5
Vst_ctime_ns
p844
sg7
L5L
sa(dp845
g4
I01
sg5
Vst_dev
p846
sg7
L5L
sa(dp847
g4
I01
sg5
Vst_gid
p848
sg7
L5L
sa(dp849
g4
I01
sg5
Vst_ino
p850
sg7
L5L
sa(dp851
g4
I01
sg5
Vst_mode
p852
sg7
L5L
sa(dp853
g4
I01
sg5
Vst_mtime
p854
sg7
L5L
sa(dp855
g4
I01
sg5
Vst_mtime_ns
p856
sg7
L5L
sa(dp857
g4
I01
sg5
Vst_nlink
p858
sg7
L5L
sa(dp859
g4
I01
sg5
Vst_rdev
p860
sg7
L5L
sa(dp861
g4
I01
sg5
Vst_size
p862
sg7
L5L
sa(dp863
g4
I01
sg5
Vst_uid
p864
sg7
L5L
sasg4
I01
sg5
Vstat_result
p865
sg7
L3L
sg188
Vstat_result: Result from stat, fstat, or lstat.\u000a\u000aThis object may be accessed either as a tuple of\u000a  (mode, ino, dev, nlink, uid, gid, size, atime, mtime, ctime)\u000aor via the attributes st_mode, st_ino, st_dev, st_nlink, st_uid, and so on.\u000a\u000aPosix/windows: If your platform supports st_blksize, st_blocks, st_rdev,\u000aor st_flags, they are available as attributes only.\u000a\u000aSee os.stat for more information.
p866
sa(dp867
g4
I01
sg5
Vstatvfs
p868
sg7
L2L
sg188
VPerform a statvfs system call on the given path.\u000a\u000apath may always be specified as a string.\u000aOn some platforms, path may also be specified as an open file descriptor.\u000a  If this functionality is unavailable, using it raises an exception.
p869
sa(dp870
g1
(lp871
(dp872
g4
I01
sg5
g659
sg7
L5L
sa(dp873
g4
I01
sg5
g661
sg7
L5L
sa(dp874
g4
I01
sg5
g236
sg7
L5L
sa(dp875
g4
I01
sg5
g240
sg7
L2L
sg188
V__dir__() -> list\u000adefault dir() implementation
p876
sa(dp877
g4
I01
sg5
g232
sg7
L5L
sa(dp878
g4
I01
sg5
g244
sg7
L5L
sa(dp879
g4
I01
sg5
g246
sg7
L2L
sg188
Vdefault object formatter
p880
sa(dp881
g4
I01
sg5
g249
sg7
L5L
sa(dp882
g4
I01
sg5
g251
sg7
L5L
sa(dp883
g4
I01
sg5
g672
sg7
L5L
sa(dp884
g4
I01
sg5
g674
sg7
L2L
sg188
Nsa(dp885
g4
I01
sg5
g253
sg7
L5L
sa(dp886
g4
I01
sg5
g255
sg7
L5L
sa(dp887
g4
I01
sg5
g257
sg7
L5L
sa(dp888
g4
I01
sg5
g679
sg7
L5L
sa(dp889
g4
I01
sg5
g259
sg7
L5L
sa(dp890
g4
I01
sg5
g682
sg7
L5L
sa(dp891
g4
I01
sg5
g261
sg7
L5L
sa(dp892
g4
I01
sg5
g685
sg7
L5L
sa(dp893
g4
I01
sg5
g265
sg7
L5L
sa(dp894
g4
I01
sg5
g267
sg7
L2L
sg188
VCreate and return a new object.  See help(type) for accurate signature.
p895
sa(dp896
g4
I01
sg5
g270
sg7
L2L
sg188
Nsa(dp897
g4
I01
sg5
g273
sg7
L2L
sg188
Vhelper for pickle
p898
sa(dp899
g4
I01
sg5
g276
sg7
L5L
sa(dp900
g4
I01
sg5
g694
sg7
L5L
sa(dp901
g4
I01
sg5
g278
sg7
L5L
sa(dp902
g4
I01
sg5
g280
sg7
L2L
sg188
V__sizeof__() -> int\u000asize of object in memory, in bytes
p903
sa(dp904
g4
I01
sg5
g283
sg7
L5L
sa(dp905
g4
I01
sg5
g285
sg7
L2L
sg188
VAbstract classes can override this to customize issubclass().\u000a\u000aThis is invoked early on by abc.ABCMeta.__subclasscheck__().\u000aIt should return True, False or NotImplemented.  If it returns\u000aNotImplemented, the normal algorithm is used.  Otherwise, it\u000aoverrides the normal algorithm (and the outcome is cached).\u000a
p906
sa(dp907
g4
I01
sg5
g702
sg7
L2L
sg188
VT.count(value) -> integer -- return number of occurrences of value
p908
sa(dp909
g4
I01
sg5
Vf_bavail
p910
sg7
L5L
sa(dp911
g4
I01
sg5
Vf_bfree
p912
sg7
L5L
sa(dp913
g4
I01
sg5
Vf_blocks
p914
sg7
L5L
sa(dp915
g4
I01
sg5
Vf_bsize
p916
sg7
L5L
sa(dp917
g4
I01
sg5
Vf_favail
p918
sg7
L5L
sa(dp919
g4
I01
sg5
Vf_ffree
p920
sg7
L5L
sa(dp921
g4
I01
sg5
Vf_files
p922
sg7
L5L
sa(dp923
g4
I01
sg5
Vf_flag
p924
sg7
L5L
sa(dp925
g4
I01
sg5
Vf_frsize
p926
sg7
L5L
sa(dp927
g4
I01
sg5
Vf_namemax
p928
sg7
L5L
sa(dp929
g4
I01
sg5
g705
sg7
L2L
sg188
VT.index(value, [start, [stop]]) -> integer -- return first index of value.\u000aRaises ValueError if the value is not present.
p930
sa(dp931
g4
I01
sg5
g708
sg7
L5L
sa(dp932
g4
I01
sg5
g710
sg7
L5L
sa(dp933
g4
I01
sg5
g712
sg7
L5L
sasg4
I01
sg5
Vstatvfs_result
p934
sg7
L3L
sg188
Vstatvfs_result: Result from statvfs or fstatvfs.\u000a\u000aThis object may be accessed either as a tuple of\u000a  (bsize, frsize, blocks, bfree, bavail, files, ffree, favail, flag, namemax),\u000aor via the attributes f_bsize, f_frsize, f_blocks, f_bfree, and so on.\u000a\u000aSee os.statvfs for more information.
p935
sa(dp936
g4
I01
sg5
g417
sg7
L2L
sg188
VTranslate an error code to a message string.
p937
sa(dp938
g4
I01
sg5
Vsymlink
p939
sg7
L2L
sg188
VCreate a symbolic link pointing to src named dst.\u000a\u000atarget_is_directory is required on Windows if the target is to be\u000a  interpreted as a directory.  (On Windows, symlink requires\u000a  Windows 6.0 or greater, and raises a NotImplementedError otherwise.)\u000a  target_is_directory is ignored on non-Windows platforms.\u000a\u000aIf dir_fd is not None, it should be a file descriptor open to a directory,\u000a  and path should be relative; path will then be relative to that directory.\u000adir_fd may not be implemented on your platform.\u000a  If it is unavailable, using it will raise a NotImplementedError.
p940
sa(dp941
g4
I01
sg5
Vsync
p942
sg7
L2L
sg188
VForce write of everything to disk.
p943
sa(dp944
g4
I01
sg5
Vsysconf
p945
sg7
L2L
sg188
VReturn an integer-valued system configuration variable.
p946
sa(dp947
g4
I01
sg5
Vsysconf_names
p948
sg7
L5L
sa(dp949
g4
I01
sg5
Vsystem
p950
sg7
L2L
sg188
VExecute the command in a subshell.
p951
sa(dp952
g4
I01
sg5
Vtcgetpgrp
p953
sg7
L2L
sg188
VReturn the process group associated with the terminal specified by fd.
p954
sa(dp955
g4
I01
sg5
Vtcsetpgrp
p956
sg7
L2L
sg188
VSet the process group associated with the terminal specified by fd.
p957
sa(dp958
g1
(lp959
(dp960
g4
I01
sg5
g659
sg7
L5L
sa(dp961
g4
I01
sg5
g661
sg7
L5L
sa(dp962
g4
I01
sg5
g236
sg7
L5L
sa(dp963
g4
I01
sg5
g240
sg7
L2L
sg188
V__dir__() -> list\u000adefault dir() implementation
p964
sa(dp965
g4
I01
sg5
g232
sg7
L5L
sa(dp966
g4
I01
sg5
g244
sg7
L5L
sa(dp967
g4
I01
sg5
g246
sg7
L2L
sg188
Vdefault object formatter
p968
sa(dp969
g4
I01
sg5
g249
sg7
L5L
sa(dp970
g4
I01
sg5
g251
sg7
L5L
sa(dp971
g4
I01
sg5
g672
sg7
L5L
sa(dp972
g4
I01
sg5
g674
sg7
L2L
sg188
Nsa(dp973
g4
I01
sg5
g253
sg7
L5L
sa(dp974
g4
I01
sg5
g255
sg7
L5L
sa(dp975
g4
I01
sg5
g257
sg7
L5L
sa(dp976
g4
I01
sg5
g679
sg7
L5L
sa(dp977
g4
I01
sg5
g259
sg7
L5L
sa(dp978
g4
I01
sg5
g682
sg7
L5L
sa(dp979
g4
I01
sg5
g261
sg7
L5L
sa(dp980
g4
I01
sg5
g685
sg7
L5L
sa(dp981
g4
I01
sg5
g265
sg7
L5L
sa(dp982
g4
I01
sg5
g267
sg7
L2L
sg188
VCreate and return a new object.  See help(type) for accurate signature.
p983
sa(dp984
g4
I01
sg5
g270
sg7
L2L
sg188
Nsa(dp985
g4
I01
sg5
g273
sg7
L2L
sg188
Vhelper for pickle
p986
sa(dp987
g4
I01
sg5
g276
sg7
L5L
sa(dp988
g4
I01
sg5
g694
sg7
L5L
sa(dp989
g4
I01
sg5
g278
sg7
L5L
sa(dp990
g4
I01
sg5
g280
sg7
L2L
sg188
V__sizeof__() -> int\u000asize of object in memory, in bytes
p991
sa(dp992
g4
I01
sg5
g283
sg7
L5L
sa(dp993
g4
I01
sg5
g285
sg7
L2L
sg188
VAbstract classes can override this to customize issubclass().\u000a\u000aThis is invoked early on by abc.ABCMeta.__subclasscheck__().\u000aIt should return True, False or NotImplemented.  If it returns\u000aNotImplemented, the normal algorithm is used.  Otherwise, it\u000aoverrides the normal algorithm (and the outcome is cached).\u000a
p994
sa(dp995
g4
I01
sg5
Vcolumns
p996
sg7
L5L
sa(dp997
g4
I01
sg5
g702
sg7
L2L
sg188
VT.count(value) -> integer -- return number of occurrences of value
p998
sa(dp999
g4
I01
sg5
g705
sg7
L2L
sg188
VT.index(value, [start, [stop]]) -> integer -- return first index of value.\u000aRaises ValueError if the value is not present.
p1000
sa(dp1001
g4
I01
sg5
Vlines
p1002
sg7
L5L
sa(dp1003
g4
I01
sg5
g708
sg7
L5L
sa(dp1004
g4
I01
sg5
g710
sg7
L5L
sa(dp1005
g4
I01
sg5
g712
sg7
L5L
sasg4
I01
sg5
Vterminal_size
p1006
sg7
L3L
sg188
VA tuple of (columns, lines) for holding terminal window size
p1007
sa(dp1008
g4
I01
sg5
Vtimes
p1009
sg7
L2L
sg188
VReturn a collection containing process timing information.\u000a\u000aThe object returned behaves like a named tuple with these fields:\u000a  (utime, stime, cutime, cstime, elapsed_time)\u000aAll fields are floating point numbers.
p1010
sa(dp1011
g1
(lp1012
(dp1013
g4
I01
sg5
g659
sg7
L5L
sa(dp1014
g4
I01
sg5
g661
sg7
L5L
sa(dp1015
g4
I01
sg5
g236
sg7
L5L
sa(dp1016
g4
I01
sg5
g240
sg7
L2L
sg188
V__dir__() -> list\u000adefault dir() implementation
p1017
sa(dp1018
g4
I01
sg5
g232
sg7
L5L
sa(dp1019
g4
I01
sg5
g244
sg7
L5L
sa(dp1020
g4
I01
sg5
g246
sg7
L2L
sg188
Vdefault object formatter
p1021
sa(dp1022
g4
I01
sg5
g249
sg7
L5L
sa(dp1023
g4
I01
sg5
g251
sg7
L5L
sa(dp1024
g4
I01
sg5
g672
sg7
L5L
sa(dp1025
g4
I01
sg5
g674
sg7
L2L
sg188
Nsa(dp1026
g4
I01
sg5
g253
sg7
L5L
sa(dp1027
g4
I01
sg5
g255
sg7
L5L
sa(dp1028
g4
I01
sg5
g257
sg7
L5L
sa(dp1029
g4
I01
sg5
g679
sg7
L5L
sa(dp1030
g4
I01
sg5
g259
sg7
L5L
sa(dp1031
g4
I01
sg5
g682
sg7
L5L
sa(dp1032
g4
I01
sg5
g261
sg7
L5L
sa(dp1033
g4
I01
sg5
g685
sg7
L5L
sa(dp1034
g4
I01
sg5
g265
sg7
L5L
sa(dp1035
g4
I01
sg5
g267
sg7
L2L
sg188
VCreate and return a new object.  See help(type) for accurate signature.
p1036
sa(dp1037
g4
I01
sg5
g270
sg7
L2L
sg188
Nsa(dp1038
g4
I01
sg5
g273
sg7
L2L
sg188
Vhelper for pickle
p1039
sa(dp1040
g4
I01
sg5
g276
sg7
L5L
sa(dp1041
g4
I01
sg5
g694
sg7
L5L
sa(dp1042
g4
I01
sg5
g278
sg7
L5L
sa(dp1043
g4
I01
sg5
g280
sg7
L2L
sg188
V__sizeof__() -> int\u000asize of object in memory, in bytes
p1044
sa(dp1045
g4
I01
sg5
g283
sg7
L5L
sa(dp1046
g4
I01
sg5
g285
sg7
L2L
sg188
VAbstract classes can override this to customize issubclass().\u000a\u000aThis is invoked early on by abc.ABCMeta.__subclasscheck__().\u000aIt should return True, False or NotImplemented.  If it returns\u000aNotImplemented, the normal algorithm is used.  Otherwise, it\u000aoverrides the normal algorithm (and the outcome is cached).\u000a
p1047
sa(dp1048
g4
I01
sg5
Vchildren_system
p1049
sg7
L5L
sa(dp1050
g4
I01
sg5
Vchildren_user
p1051
sg7
L5L
sa(dp1052
g4
I01
sg5
g702
sg7
L2L
sg188
VT.count(value) -> integer -- return number of occurrences of value
p1053
sa(dp1054
g4
I01
sg5
Velapsed
p1055
sg7
L5L
sa(dp1056
g4
I01
sg5
g705
sg7
L2L
sg188
VT.index(value, [start, [stop]]) -> integer -- return first index of value.\u000aRaises ValueError if the value is not present.
p1057
sa(dp1058
g4
I01
sg5
g708
sg7
L5L
sa(dp1059
g4
I01
sg5
g710
sg7
L5L
sa(dp1060
g4
I01
sg5
g712
sg7
L5L
sa(dp1061
g4
I01
sg5
g950
sg7
L5L
sa(dp1062
g4
I01
sg5
Vuser
p1063
sg7
L5L
sasg4
I01
sg5
Vtimes_result
p1064
sg7
L3L
sg188
Vtimes_result: Result from os.times().\u000a\u000aThis object may be accessed either as a tuple of\u000a  (user, system, children_user, children_system, elapsed),\u000aor via the attributes user, system, children_user, children_system,\u000aand elapsed.\u000a\u000aSee os.times for more information.
p1065
sa(dp1066
g4
I01
sg5
Vtruncate
p1067
sg7
L2L
sg188
VTruncate a file, specified by path, to a specific length.\u000a\u000aOn some platforms, path may also be specified as an open file descriptor.\u000a  If this functionality is unavailable, using it raises an exception.
p1068
sa(dp1069
g4
I01
sg5
Vttyname
p1070
sg7
L2L
sg188
VReturn the name of the terminal device connected to 'fd'.\u000a\u000a  fd\u000a    Integer file descriptor handle.
p1071
sa(dp1072
g4
I01
sg5
Vumask
p1073
sg7
L2L
sg188
VSet the current numeric umask and return the previous umask.
p1074
sa(dp1075
g4
I01
sg5
Vuname
p1076
sg7
L2L
sg188
VReturn an object identifying the current operating system.\u000a\u000aThe object behaves like a named tuple with the following fields:\u000a  (sysname, nodename, release, version, machine)
p1077
sa(dp1078
g1
(lp1079
(dp1080
g4
I01
sg5
g659
sg7
L5L
sa(dp1081
g4
I01
sg5
g661
sg7
L5L
sa(dp1082
g4
I01
sg5
g236
sg7
L5L
sa(dp1083
g4
I01
sg5
g240
sg7
L2L
sg188
V__dir__() -> list\u000adefault dir() implementation
p1084
sa(dp1085
g4
I01
sg5
g232
sg7
L5L
sa(dp1086
g4
I01
sg5
g244
sg7
L5L
sa(dp1087
g4
I01
sg5
g246
sg7
L2L
sg188
Vdefault object formatter
p1088
sa(dp1089
g4
I01
sg5
g249
sg7
L5L
sa(dp1090
g4
I01
sg5
g251
sg7
L5L
sa(dp1091
g4
I01
sg5
g672
sg7
L5L
sa(dp1092
g4
I01
sg5
g674
sg7
L2L
sg188
Nsa(dp1093
g4
I01
sg5
g253
sg7
L5L
sa(dp1094
g4
I01
sg5
g255
sg7
L5L
sa(dp1095
g4
I01
sg5
g257
sg7
L5L
sa(dp1096
g4
I01
sg5
g679
sg7
L5L
sa(dp1097
g4
I01
sg5
g259
sg7
L5L
sa(dp1098
g4
I01
sg5
g682
sg7
L5L
sa(dp1099
g4
I01
sg5
g261
sg7
L5L
sa(dp1100
g4
I01
sg5
g685
sg7
L5L
sa(dp1101
g4
I01
sg5
g265
sg7
L5L
sa(dp1102
g4
I01
sg5
g267
sg7
L2L
sg188
VCreate and return a new object.  See help(type) for accurate signature.
p1103
sa(dp1104
g4
I01
sg5
g270
sg7
L2L
sg188
Nsa(dp1105
g4
I01
sg5
g273
sg7
L2L
sg188
Vhelper for pickle
p1106
sa(dp1107
g4
I01
sg5
g276
sg7
L5L
sa(dp1108
g4
I01
sg5
g694
sg7
L5L
sa(dp1109
g4
I01
sg5
g278
sg7
L5L
sa(dp1110
g4
I01
sg5
g280
sg7
L2L
sg188
V__sizeof__() -> int\u000asize of object in memory, in bytes
p1111
sa(dp1112
g4
I01
sg5
g283
sg7
L5L
sa(dp1113
g4
I01
sg5
g285
sg7
L2L
sg188
VAbstract classes can override this to customize issubclass().\u000a\u000aThis is invoked early on by abc.ABCMeta.__subclasscheck__().\u000aIt should return True, False or NotImplemented.  If it returns\u000aNotImplemented, the normal algorithm is used.  Otherwise, it\u000aoverrides the normal algorithm (and the outcome is cached).\u000a
p1114
sa(dp1115
g4
I01
sg5
g702
sg7
L2L
sg188
VT.count(value) -> integer -- return number of occurrences of value
p1116
sa(dp1117
g4
I01
sg5
g705
sg7
L2L
sg188
VT.index(value, [start, [stop]]) -> integer -- return first index of value.\u000aRaises ValueError if the value is not present.
p1118
sa(dp1119
g4
I01
sg5
Vmachine
p1120
sg7
L5L
sa(dp1121
g4
I01
sg5
g708
sg7
L5L
sa(dp1122
g4
I01
sg5
g710
sg7
L5L
sa(dp1123
g4
I01
sg5
g712
sg7
L5L
sa(dp1124
g4
I01
sg5
Vnodename
p1125
sg7
L5L
sa(dp1126
g4
I01
sg5
Vrelease
p1127
sg7
L5L
sa(dp1128
g4
I01
sg5
Vsysname
p1129
sg7
L5L
sa(dp1130
g4
I01
sg5
Vversion
p1131
sg7
L5L
sasg4
I01
sg5
Vuname_result
p1132
sg7
L3L
sg188
Vuname_result: Result from os.uname().\u000a\u000aThis object may be accessed either as a tuple of\u000a  (sysname, nodename, release, version, machine),\u000aor via the attributes sysname, nodename, release, version, and machine.\u000a\u000aSee os.uname for more information.
p1133
sa(dp1134
g4
I01
sg5
Vunlink
p1135
sg7
L2L
sg188
VRemove a file (same as remove()).\u000a\u000aIf dir_fd is not None, it should be a file descriptor open to a directory,\u000a  and path should be relative; path will then be relative to that directory.\u000adir_fd may not be implemented on your platform.\u000a  If it is unavailable, using it will raise a NotImplementedError.
p1136
sa(dp1137
g4
I01
sg5
Vunsetenv
p1138
sg7
L2L
sg188
VDelete an environment variable.
p1139
sa(dp1140
g4
I01
sg5
Vurandom
p1141
sg7
L2L
sg188
VReturn a bytes object containing random bytes suitable for cryptographic use.
p1142
sa(dp1143
g4
I01
sg5
Vutime
p1144
sg7
L2L
sg188
VSet the access and modified time of path.\u000a\u000apath may always be specified as a string.\u000aOn some platforms, path may also be specified as an open file descriptor.\u000a  If this functionality is unavailable, using it raises an exception.\u000a\u000aIf times is not None, it must be a tuple (atime, mtime);\u000a    atime and mtime should be expressed as float seconds since the epoch.\u000aIf ns is specified, it must be a tuple (atime_ns, mtime_ns);\u000a    atime_ns and mtime_ns should be expressed as integer nanoseconds\u000a    since the epoch.\u000aIf times is None and ns is unspecified, utime uses the current time.\u000aSpecifying tuples for both times and ns is an error.\u000a\u000aIf dir_fd is not None, it should be a file descriptor open to a directory,\u000a  and path should be relative; path will then be relative to that directory.\u000aIf follow_symlinks is False, and the last element of the path is a symbolic\u000a  link, utime will modify the symbolic link itself instead of the file the\u000a  link points to.\u000aIt is an error to use dir_fd or follow_symlinks when specifying path\u000a  as an open file descriptor.\u000adir_fd and follow_symlinks may not be available on your platform.\u000a  If they are unavailable, using them will raise a NotImplementedError.
p1145
sa(dp1146
g4
I01
sg5
Vwait
p1147
sg7
L2L
sg188
VWait for completion of a child process.\u000a\u000aReturns a tuple of information about the child process:\u000a    (pid, status)
p1148
sa(dp1149
g4
I01
sg5
Vwait3
p1150
sg7
L2L
sg188
VWait for completion of a child process.\u000a\u000aReturns a tuple of information about the child process:\u000a  (pid, status, rusage)
p1151
sa(dp1152
g4
I01
sg5
Vwait4
p1153
sg7
L2L
sg188
VWait for completion of a specific child process.\u000a\u000aReturns a tuple of information about the child process:\u000a  (pid, status, rusage)
p1154
sa(dp1155
g4
I01
sg5
Vwaitid
p1156
sg7
L2L
sg188
VReturns the result of waiting for a process or processes.\u000a\u000a  idtype\u000a    Must be one of be P_PID, P_PGID or P_ALL.\u000a  id\u000a    The id to wait on.\u000a  options\u000a    Constructed from the ORing of one or more of WEXITED, WSTOPPED\u000a    or WCONTINUED and additionally may be ORed with WNOHANG or WNOWAIT.\u000a\u000aReturns either waitid_result or None if WNOHANG is specified and there are\u000ano children in a waitable state.
p1157
sa(dp1158
g1
(lp1159
(dp1160
g4
I01
sg5
g659
sg7
L5L
sa(dp1161
g4
I01
sg5
g661
sg7
L5L
sa(dp1162
g4
I01
sg5
g236
sg7
L5L
sa(dp1163
g4
I01
sg5
g240
sg7
L2L
sg188
V__dir__() -> list\u000adefault dir() implementation
p1164
sa(dp1165
g4
I01
sg5
g232
sg7
L5L
sa(dp1166
g4
I01
sg5
g244
sg7
L5L
sa(dp1167
g4
I01
sg5
g246
sg7
L2L
sg188
Vdefault object formatter
p1168
sa(dp1169
g4
I01
sg5
g249
sg7
L5L
sa(dp1170
g4
I01
sg5
g251
sg7
L5L
sa(dp1171
g4
I01
sg5
g672
sg7
L5L
sa(dp1172
g4
I01
sg5
g674
sg7
L2L
sg188
Nsa(dp1173
g4
I01
sg5
g253
sg7
L5L
sa(dp1174
g4
I01
sg5
g255
sg7
L5L
sa(dp1175
g4
I01
sg5
g257
sg7
L5L
sa(dp1176
g4
I01
sg5
g679
sg7
L5L
sa(dp1177
g4
I01
sg5
g259
sg7
L5L
sa(dp1178
g4
I01
sg5
g682
sg7
L5L
sa(dp1179
g4
I01
sg5
g261
sg7
L5L
sa(dp1180
g4
I01
sg5
g685
sg7
L5L
sa(dp1181
g4
I01
sg5
g265
sg7
L5L
sa(dp1182
g4
I01
sg5
g267
sg7
L2L
sg188
VCreate and return a new object.  See help(type) for accurate signature.
p1183
sa(dp1184
g4
I01
sg5
g270
sg7
L2L
sg188
Nsa(dp1185
g4
I01
sg5
g273
sg7
L2L
sg188
Vhelper for pickle
p1186
sa(dp1187
g4
I01
sg5
g276
sg7
L5L
sa(dp1188
g4
I01
sg5
g694
sg7
L5L
sa(dp1189
g4
I01
sg5
g278
sg7
L5L
sa(dp1190
g4
I01
sg5
g280
sg7
L2L
sg188
V__sizeof__() -> int\u000asize of object in memory, in bytes
p1191
sa(dp1192
g4
I01
sg5
g283
sg7
L5L
sa(dp1193
g4
I01
sg5
g285
sg7
L2L
sg188
VAbstract classes can override this to customize issubclass().\u000a\u000aThis is invoked early on by abc.ABCMeta.__subclasscheck__().\u000aIt should return True, False or NotImplemented.  If it returns\u000aNotImplemented, the normal algorithm is used.  Otherwise, it\u000aoverrides the normal algorithm (and the outcome is cached).\u000a
p1194
sa(dp1195
g4
I01
sg5
g702
sg7
L2L
sg188
VT.count(value) -> integer -- return number of occurrences of value
p1196
sa(dp1197
g4
I01
sg5
g705
sg7
L2L
sg188
VT.index(value, [start, [stop]]) -> integer -- return first index of value.\u000aRaises ValueError if the value is not present.
p1198
sa(dp1199
g4
I01
sg5
g708
sg7
L5L
sa(dp1200
g4
I01
sg5
g710
sg7
L5L
sa(dp1201
g4
I01
sg5
g712
sg7
L5L
sa(dp1202
g4
I01
sg5
Vsi_code
p1203
sg7
L5L
sa(dp1204
g4
I01
sg5
Vsi_pid
p1205
sg7
L5L
sa(dp1206
g4
I01
sg5
Vsi_signo
p1207
sg7
L5L
sa(dp1208
g4
I01
sg5
Vsi_status
p1209
sg7
L5L
sa(dp1210
g4
I01
sg5
Vsi_uid
p1211
sg7
L5L
sasg4
I01
sg5
Vwaitid_result
p1212
sg7
L3L
sg188
Vwaitid_result: Result from waitid.\u000a\u000aThis object may be accessed either as a tuple of\u000a  (si_pid, si_uid, si_signo, si_status, si_code),\u000aor via the attributes si_pid, si_uid, and so on.\u000a\u000aSee os.waitid for more information.
p1213
sa(dp1214
g4
I01
sg5
Vwaitpid
p1215
sg7
L2L
sg188
VWait for completion of a given child process.\u000a\u000aReturns a tuple of information regarding the child process:\u000a    (pid, status)\u000a\u000aThe options argument is ignored on Windows.
p1216
sa(dp1217
g4
I01
sg5
Vwrite
p1218
sg7
L2L
sg188
VWrite a bytes object to a file descriptor.
p1219
sa(dp1220
g4
I01
sg5
Vwritev
p1221
sg7
L2L
sg188
VIterate over buffers, and write the contents of each to a file descriptor.\u000a\u000aReturns the total number of bytes written.\u000abuffers must be a sequence of bytes-like objects.
p1222
sasg4
I01
sg5
Vposix
p1223
sg188
VThis module provides access to operating system functionality that is\u000astandardized by the C Standard and the POSIX standard (a thinly\u000adisguised Unix interface).  Refer to the library manual and\u000acorresponding Unix manual entries for more information on calls.
p1224
s.