(dp0
Vchilds
p1
(lp2
(dp3
Vis_builtin
p4
I01
sVname
p5
VEXPAT_VERSION
p6
sVtype
p7
L5L
sa(dp8
g4
I01
sg5
VErrorString
p9
sg7
L2L
sVdoc
p10
VReturns string error for given number.
p11
sa(dp12
g1
(lp13
(dp14
g4
I01
sg5
V__cause__
p15
sg7
L5L
sa(dp16
g4
I01
sg5
V__context__
p17
sg7
L5L
sa(dp18
g4
I01
sg5
V__delattr__
p19
sg7
L5L
sa(dp20
g4
I01
sg5
V__dict__
p21
sg7
L5L
sa(dp22
g4
I01
sg5
V__dir__
p23
sg7
L2L
sg10
V__dir__() -> list\u000adefault dir() implementation
p24
sa(dp25
g4
I01
sg5
V__doc__
p26
sg7
L5L
sa(dp27
g4
I01
sg5
V__eq__
p28
sg7
L5L
sa(dp29
g4
I01
sg5
V__format__
p30
sg7
L2L
sg10
Vdefault object formatter
p31
sa(dp32
g4
I01
sg5
V__ge__
p33
sg7
L5L
sa(dp34
g4
I01
sg5
V__getattribute__
p35
sg7
L5L
sa(dp36
g4
I01
sg5
V__gt__
p37
sg7
L5L
sa(dp38
g4
I01
sg5
V__hash__
p39
sg7
L5L
sa(dp40
g4
I01
sg5
V__init__
p41
sg7
L5L
sa(dp42
g4
I01
sg5
V__le__
p43
sg7
L5L
sa(dp44
g4
I01
sg5
V__lt__
p45
sg7
L5L
sa(dp46
g4
I01
sg5
V__module__
p47
sg7
L5L
sa(dp48
g4
I01
sg5
V__ne__
p49
sg7
L5L
sa(dp50
g4
I01
sg5
V__new__
p51
sg7
L2L
sg10
VCreate and return a new object.  See help(type) for accurate signature.
p52
sa(dp53
g4
I01
sg5
V__reduce__
p54
sg7
L2L
sg10
Nsa(dp55
g4
I01
sg5
V__reduce_ex__
p56
sg7
L2L
sg10
Vhelper for pickle
p57
sa(dp58
g4
I01
sg5
V__repr__
p59
sg7
L5L
sa(dp60
g4
I01
sg5
V__setattr__
p61
sg7
L5L
sa(dp62
g4
I01
sg5
V__setstate__
p63
sg7
L2L
sg10
Nsa(dp64
g4
I01
sg5
V__sizeof__
p65
sg7
L2L
sg10
V__sizeof__() -> int\u000asize of object in memory, in bytes
p66
sa(dp67
g4
I01
sg5
V__str__
p68
sg7
L5L
sa(dp69
g4
I01
sg5
V__subclasshook__
p70
sg7
L2L
sg10
VAbstract classes can override this to customize issubclass().\u000a\u000aThis is invoked early on by abc.ABCMeta.__subclasscheck__().\u000aIt should return True, False or NotImplemented.  If it returns\u000aNotImplemented, the normal algorithm is used.  Otherwise, it\u000aoverrides the normal algorithm (and the outcome is cached).\u000a
p71
sa(dp72
g4
I01
sg5
V__suppress_context__
p73
sg7
L5L
sa(dp74
g4
I01
sg5
V__traceback__
p75
sg7
L5L
sa(dp76
g4
I01
sg5
V__weakref__
p77
sg7
L5L
sa(dp78
g4
I01
sg5
Vargs
p79
sg7
L5L
sa(dp80
g4
I01
sg5
Vwith_traceback
p81
sg7
L2L
sg10
VException.with_traceback(tb) --\u000a    set self.__traceback__ to tb and return self.
p82
sasg4
I01
sg5
VExpatError
p83
sg7
L3L
sg10
Nsa(dp84
g4
I01
sg5
VParserCreate
p85
sg7
L2L
sg10
VReturn a new XML parser object.
p86
sa(dp87
g1
(lp88
(dp89
g4
I01
sg5
VExternalEntityParserCreate
p90
sg7
L2L
sg10
VCreate a parser for parsing an external entity based on the information passed to the ExternalEntityRefHandler.
p91
sa(dp92
g4
I01
sg5
VGetBase
p93
sg7
L2L
sg10
VReturn base URL string for the parser.
p94
sa(dp95
g4
I01
sg5
VGetInputContext
p96
sg7
L2L
sg10
VReturn the untranslated text of the input that caused the current event.\u000a\u000aIf the event was generated by a large amount of text (such as a start tag\u000afor an element with many attributes), not all of the text may be available.
p97
sa(dp98
g4
I01
sg5
VParse
p99
sg7
L2L
sg10
VParse XML data.\u000a\u000a`isfinal' should be true at end of input.
p100
sa(dp101
g4
I01
sg5
VParseFile
p102
sg7
L2L
sg10
VParse XML data from file-like object.
p103
sa(dp104
g4
I01
sg5
VSetBase
p105
sg7
L2L
sg10
VSet the base URL for the parser.
p106
sa(dp107
g4
I01
sg5
VSetParamEntityParsing
p108
sg7
L2L
sg10
VControls parsing of parameter entities (including the external DTD subset).\u000a\u000aPossible flag values are XML_PARAM_ENTITY_PARSING_NEVER,\u000aXML_PARAM_ENTITY_PARSING_UNLESS_STANDALONE and\u000aXML_PARAM_ENTITY_PARSING_ALWAYS. Returns true if setting the flag\u000awas successful.
p109
sa(dp110
g4
I01
sg5
VUseForeignDTD
p111
sg7
L2L
sg10
VAllows the application to provide an artificial external subset if one is not specified as part of the document instance.\u000a\u000aThis readily allows the use of a 'default' document type controlled by the\u000aapplication, while still getting the advantage of providing document type\u000ainformation to the parser. 'flag' defaults to True if not provided.
p112
sa(dp113
g4
I01
sg5
g19
sg7
L5L
sa(dp114
g4
I01
sg5
g23
sg7
L2L
sg10
Nsa(dp115
g4
I01
sg5
g26
sg7
L5L
sa(dp116
g4
I01
sg5
g28
sg7
L5L
sa(dp117
g4
I01
sg5
g30
sg7
L2L
sg10
Vdefault object formatter
p118
sa(dp119
g4
I01
sg5
g33
sg7
L5L
sa(dp120
g4
I01
sg5
g35
sg7
L5L
sa(dp121
g4
I01
sg5
g37
sg7
L5L
sa(dp122
g4
I01
sg5
g39
sg7
L5L
sa(dp123
g4
I01
sg5
g41
sg7
L5L
sa(dp124
g4
I01
sg5
g43
sg7
L5L
sa(dp125
g4
I01
sg5
g45
sg7
L5L
sa(dp126
g4
I01
sg5
g49
sg7
L5L
sa(dp127
g4
I01
sg5
g51
sg7
L2L
sg10
VCreate and return a new object.  See help(type) for accurate signature.
p128
sa(dp129
g4
I01
sg5
g54
sg7
L2L
sg10
Vhelper for pickle
p130
sa(dp131
g4
I01
sg5
g56
sg7
L2L
sg10
Vhelper for pickle
p132
sa(dp133
g4
I01
sg5
g59
sg7
L5L
sa(dp134
g4
I01
sg5
g61
sg7
L5L
sa(dp135
g4
I01
sg5
g65
sg7
L2L
sg10
V__sizeof__() -> int\u000asize of object in memory, in bytes
p136
sa(dp137
g4
I01
sg5
g68
sg7
L5L
sa(dp138
g4
I01
sg5
g70
sg7
L2L
sg10
VAbstract classes can override this to customize issubclass().\u000a\u000aThis is invoked early on by abc.ABCMeta.__subclasscheck__().\u000aIt should return True, False or NotImplemented.  If it returns\u000aNotImplemented, the normal algorithm is used.  Otherwise, it\u000aoverrides the normal algorithm (and the outcome is cached).\u000a
p139
sasg4
I01
sg5
VXMLParserType
p140
sg7
L3L
sg10
VXML parser
p141
sa(dp142
g4
I01
sg5
VXML_PARAM_ENTITY_PARSING_ALWAYS
p143
sg7
L5L
sa(dp144
g4
I01
sg5
VXML_PARAM_ENTITY_PARSING_NEVER
p145
sg7
L5L
sa(dp146
g4
I01
sg5
VXML_PARAM_ENTITY_PARSING_UNLESS_STANDALONE
p147
sg7
L5L
sa(dp148
g4
I01
sg5
g26
sg7
L5L
sa(dp149
g1
(lp150
(dp151
g4
I01
sg5
g19
sg7
L5L
sa(dp152
g4
I01
sg5
g21
sg7
L5L
sa(dp153
g4
I01
sg5
g23
sg7
L2L
sg10
V__dir__() -> list\u000adefault dir() implementation
p154
sa(dp155
g4
I01
sg5
g26
sg7
L5L
sa(dp156
g4
I01
sg5
g28
sg7
L5L
sa(dp157
g4
I01
sg5
g30
sg7
L2L
sg10
Vdefault object formatter
p158
sa(dp159
g4
I01
sg5
g33
sg7
L5L
sa(dp160
g4
I01
sg5
g35
sg7
L5L
sa(dp161
g4
I01
sg5
g37
sg7
L5L
sa(dp162
g4
I01
sg5
g39
sg7
L5L
sa(dp163
g4
I01
sg5
g41
sg7
L5L
sa(dp164
g4
I01
sg5
g43
sg7
L5L
sa(dp165
g4
I01
sg5
g45
sg7
L5L
sa(dp166
g4
I01
sg5
g47
sg7
L5L
sa(dp167
g4
I01
sg5
g49
sg7
L5L
sa(dp168
g4
I01
sg5
g51
sg7
L2L
sg10
VCreate and return a new object.  See help(type) for accurate signature.
p169
sa(dp170
g4
I01
sg5
g54
sg7
L2L
sg10
Vhelper for pickle
p171
sa(dp172
g4
I01
sg5
g56
sg7
L2L
sg10
Vhelper for pickle
p173
sa(dp174
g4
I01
sg5
g59
sg7
L5L
sa(dp175
g4
I01
sg5
g61
sg7
L5L
sa(dp176
g4
I01
sg5
g65
sg7
L2L
sg10
V__sizeof__() -> int\u000asize of object in memory, in bytes
p177
sa(dp178
g4
I01
sg5
g68
sg7
L5L
sa(dp179
g4
I01
sg5
g70
sg7
L2L
sg10
VAbstract classes can override this to customize issubclass().\u000a\u000aThis is invoked early on by abc.ABCMeta.__subclasscheck__().\u000aIt should return True, False or NotImplemented.  If it returns\u000aNotImplemented, the normal algorithm is used.  Otherwise, it\u000aoverrides the normal algorithm (and the outcome is cached).\u000a
p180
sa(dp181
g4
I01
sg5
g77
sg7
L5L
sa(dp182
g4
I01
sg5
Vcreate_module
p183
sg7
L5L
sa(dp184
g4
I01
sg5
Vexec_module
p185
sg7
L5L
sa(dp186
g4
I01
sg5
Vfind_module
p187
sg7
L5L
sa(dp188
g4
I01
sg5
Vfind_spec
p189
sg7
L5L
sa(dp190
g4
I01
sg5
Vget_code
p191
sg7
L5L
sa(dp192
g4
I01
sg5
Vget_source
p193
sg7
L5L
sa(dp194
g4
I01
sg5
Vis_package
p195
sg7
L5L
sa(dp196
g4
I01
sg5
Vload_module
p197
sg7
L5L
sa(dp198
g4
I01
sg5
Vmodule_repr
p199
sg7
L5L
sasg4
I01
sg5
V__loader__
p200
sg7
L3L
sg10
VMeta path import for built-in modules.\u000a\u000a    All methods are either class or static methods to avoid the need to\u000a    instantiate the class.\u000a\u000a    
p201
sa(dp202
g4
I01
sg5
V__name__
p203
sg7
L5L
sa(dp204
g4
I01
sg5
V__package__
p205
sg7
L5L
sa(dp206
g4
I01
sg5
V__spec__
p207
sg7
L5L
sa(dp208
g1
(lp209
(dp210
g4
I01
sg5
g15
sg7
L5L
sa(dp211
g4
I01
sg5
g17
sg7
L5L
sa(dp212
g4
I01
sg5
g19
sg7
L5L
sa(dp213
g4
I01
sg5
g21
sg7
L5L
sa(dp214
g4
I01
sg5
g23
sg7
L2L
sg10
V__dir__() -> list\u000adefault dir() implementation
p215
sa(dp216
g4
I01
sg5
g26
sg7
L5L
sa(dp217
g4
I01
sg5
g28
sg7
L5L
sa(dp218
g4
I01
sg5
g30
sg7
L2L
sg10
Vdefault object formatter
p219
sa(dp220
g4
I01
sg5
g33
sg7
L5L
sa(dp221
g4
I01
sg5
g35
sg7
L5L
sa(dp222
g4
I01
sg5
g37
sg7
L5L
sa(dp223
g4
I01
sg5
g39
sg7
L5L
sa(dp224
g4
I01
sg5
g41
sg7
L5L
sa(dp225
g4
I01
sg5
g43
sg7
L5L
sa(dp226
g4
I01
sg5
g45
sg7
L5L
sa(dp227
g4
I01
sg5
g47
sg7
L5L
sa(dp228
g4
I01
sg5
g49
sg7
L5L
sa(dp229
g4
I01
sg5
g51
sg7
L2L
sg10
VCreate and return a new object.  See help(type) for accurate signature.
p230
sa(dp231
g4
I01
sg5
g54
sg7
L2L
sg10
Nsa(dp232
g4
I01
sg5
g56
sg7
L2L
sg10
Vhelper for pickle
p233
sa(dp234
g4
I01
sg5
g59
sg7
L5L
sa(dp235
g4
I01
sg5
g61
sg7
L5L
sa(dp236
g4
I01
sg5
g63
sg7
L2L
sg10
Nsa(dp237
g4
I01
sg5
g65
sg7
L2L
sg10
V__sizeof__() -> int\u000asize of object in memory, in bytes
p238
sa(dp239
g4
I01
sg5
g68
sg7
L5L
sa(dp240
g4
I01
sg5
g70
sg7
L2L
sg10
VAbstract classes can override this to customize issubclass().\u000a\u000aThis is invoked early on by abc.ABCMeta.__subclasscheck__().\u000aIt should return True, False or NotImplemented.  If it returns\u000aNotImplemented, the normal algorithm is used.  Otherwise, it\u000aoverrides the normal algorithm (and the outcome is cached).\u000a
p241
sa(dp242
g4
I01
sg5
g73
sg7
L5L
sa(dp243
g4
I01
sg5
g75
sg7
L5L
sa(dp244
g4
I01
sg5
g77
sg7
L5L
sa(dp245
g4
I01
sg5
g79
sg7
L5L
sa(dp246
g4
I01
sg5
g81
sg7
L2L
sg10
VException.with_traceback(tb) --\u000a    set self.__traceback__ to tb and return self.
p247
sasg4
I01
sg5
Verror
p248
sg7
L3L
sg10
Nsa(dp249
g4
I01
sg5
Verrors
p250
sg7
L5L
sa(dp251
g4
I01
sg5
Vexpat_CAPI
p252
sg7
L5L
sa(dp253
g4
I01
sg5
Vfeatures
p254
sg7
L5L
sa(dp255
g4
I01
sg5
Vmodel
p256
sg7
L5L
sa(dp257
g4
I01
sg5
Vnative_encoding
p258
sg7
L5L
sa(dp259
g4
I01
sg5
Vversion_info
p260
sg7
L5L
sasg4
I01
sg5
Vpyexpat
p261
sg10
VPython wrapper for Expat parser.
p262
s.