(dp0
Vchilds
p1
(lp2
(dp3
Vis_builtin
p4
I01
sVname
p5
V__doc__
p6
sVtype
p7
L5L
sa(dp8
g1
(lp9
(dp10
g4
I01
sg5
V__delattr__
p11
sg7
L5L
sa(dp12
g4
I01
sg5
V__dict__
p13
sg7
L5L
sa(dp14
g4
I01
sg5
V__dir__
p15
sg7
L2L
sVdoc
p16
V__dir__() -> list\u000adefault dir() implementation
p17
sa(dp18
g4
I01
sg5
g6
sg7
L5L
sa(dp19
g4
I01
sg5
V__eq__
p20
sg7
L5L
sa(dp21
g4
I01
sg5
V__format__
p22
sg7
L2L
sg16
Vdefault object formatter
p23
sa(dp24
g4
I01
sg5
V__ge__
p25
sg7
L5L
sa(dp26
g4
I01
sg5
V__getattribute__
p27
sg7
L5L
sa(dp28
g4
I01
sg5
V__gt__
p29
sg7
L5L
sa(dp30
g4
I01
sg5
V__hash__
p31
sg7
L5L
sa(dp32
g4
I01
sg5
V__init__
p33
sg7
L5L
sa(dp34
g4
I01
sg5
V__le__
p35
sg7
L5L
sa(dp36
g4
I01
sg5
V__lt__
p37
sg7
L5L
sa(dp38
g4
I01
sg5
V__module__
p39
sg7
L5L
sa(dp40
g4
I01
sg5
V__ne__
p41
sg7
L5L
sa(dp42
g4
I01
sg5
V__new__
p43
sg7
L2L
sg16
VCreate and return a new object.  See help(type) for accurate signature.
p44
sa(dp45
g4
I01
sg5
V__reduce__
p46
sg7
L2L
sg16
Vhelper for pickle
p47
sa(dp48
g4
I01
sg5
V__reduce_ex__
p49
sg7
L2L
sg16
Vhelper for pickle
p50
sa(dp51
g4
I01
sg5
V__repr__
p52
sg7
L5L
sa(dp53
g4
I01
sg5
V__setattr__
p54
sg7
L5L
sa(dp55
g4
I01
sg5
V__sizeof__
p56
sg7
L2L
sg16
V__sizeof__() -> int\u000asize of object in memory, in bytes
p57
sa(dp58
g4
I01
sg5
V__str__
p59
sg7
L5L
sa(dp60
g4
I01
sg5
V__subclasshook__
p61
sg7
L2L
sg16
VAbstract classes can override this to customize issubclass().\u000a\u000aThis is invoked early on by abc.ABCMeta.__subclasscheck__().\u000aIt should return True, False or NotImplemented.  If it returns\u000aNotImplemented, the normal algorithm is used.  Otherwise, it\u000aoverrides the normal algorithm (and the outcome is cached).\u000a
p62
sa(dp63
g4
I01
sg5
V__weakref__
p64
sg7
L5L
sa(dp65
g4
I01
sg5
Vcreate_module
p66
sg7
L5L
sa(dp67
g4
I01
sg5
Vexec_module
p68
sg7
L5L
sa(dp69
g4
I01
sg5
Vfind_module
p70
sg7
L5L
sa(dp71
g4
I01
sg5
Vfind_spec
p72
sg7
L5L
sa(dp73
g4
I01
sg5
Vget_code
p74
sg7
L5L
sa(dp75
g4
I01
sg5
Vget_source
p76
sg7
L5L
sa(dp77
g4
I01
sg5
Vis_package
p78
sg7
L5L
sa(dp79
g4
I01
sg5
Vload_module
p80
sg7
L5L
sa(dp81
g4
I01
sg5
Vmodule_repr
p82
sg7
L5L
sasg4
I01
sg5
V__loader__
p83
sg7
L3L
sg16
VMeta path import for built-in modules.\u000a\u000a    All methods are either class or static methods to avoid the need to\u000a    instantiate the class.\u000a\u000a    
p84
sa(dp85
g4
I01
sg5
V__name__
p86
sg7
L5L
sa(dp87
g4
I01
sg5
V__package__
p88
sg7
L5L
sa(dp89
g4
I01
sg5
V__spec__
p90
sg7
L5L
sa(dp91
g4
I01
sg5
Vgetspall
p92
sg7
L2L
sg16
VReturn a list of all available shadow password database entries, in arbitrary order.\u000a\u000aSee `help(spwd)` for more on shadow password database entries.
p93
sa(dp94
g4
I01
sg5
Vgetspnam
p95
sg7
L2L
sg16
VReturn the shadow password database entry for the given user name.\u000a\u000aSee `help(spwd)` for more on shadow password database entries.
p96
sa(dp97
g1
(lp98
(dp99
g4
I01
sg5
V__add__
p100
sg7
L5L
sa(dp101
g4
I01
sg5
V__contains__
p102
sg7
L5L
sa(dp103
g4
I01
sg5
g11
sg7
L5L
sa(dp104
g4
I01
sg5
g15
sg7
L2L
sg16
V__dir__() -> list\u000adefault dir() implementation
p105
sa(dp106
g4
I01
sg5
g6
sg7
L5L
sa(dp107
g4
I01
sg5
g20
sg7
L5L
sa(dp108
g4
I01
sg5
g22
sg7
L2L
sg16
Vdefault object formatter
p109
sa(dp110
g4
I01
sg5
g25
sg7
L5L
sa(dp111
g4
I01
sg5
g27
sg7
L5L
sa(dp112
g4
I01
sg5
V__getitem__
p113
sg7
L5L
sa(dp114
g4
I01
sg5
V__getnewargs__
p115
sg7
L2L
sg16
Nsa(dp116
g4
I01
sg5
g29
sg7
L5L
sa(dp117
g4
I01
sg5
g31
sg7
L5L
sa(dp118
g4
I01
sg5
g33
sg7
L5L
sa(dp119
g4
I01
sg5
V__iter__
p120
sg7
L5L
sa(dp121
g4
I01
sg5
g35
sg7
L5L
sa(dp122
g4
I01
sg5
V__len__
p123
sg7
L5L
sa(dp124
g4
I01
sg5
g37
sg7
L5L
sa(dp125
g4
I01
sg5
V__mul__
p126
sg7
L5L
sa(dp127
g4
I01
sg5
g41
sg7
L5L
sa(dp128
g4
I01
sg5
g43
sg7
L2L
sg16
VCreate and return a new object.  See help(type) for accurate signature.
p129
sa(dp130
g4
I01
sg5
g46
sg7
L2L
sg16
Nsa(dp131
g4
I01
sg5
g49
sg7
L2L
sg16
Vhelper for pickle
p132
sa(dp133
g4
I01
sg5
g52
sg7
L5L
sa(dp134
g4
I01
sg5
V__rmul__
p135
sg7
L5L
sa(dp136
g4
I01
sg5
g54
sg7
L5L
sa(dp137
g4
I01
sg5
g56
sg7
L2L
sg16
V__sizeof__() -> int\u000asize of object in memory, in bytes
p138
sa(dp139
g4
I01
sg5
g59
sg7
L5L
sa(dp140
g4
I01
sg5
g61
sg7
L2L
sg16
VAbstract classes can override this to customize issubclass().\u000a\u000aThis is invoked early on by abc.ABCMeta.__subclasscheck__().\u000aIt should return True, False or NotImplemented.  If it returns\u000aNotImplemented, the normal algorithm is used.  Otherwise, it\u000aoverrides the normal algorithm (and the outcome is cached).\u000a
p141
sa(dp142
g4
I01
sg5
Vcount
p143
sg7
L2L
sg16
VT.count(value) -> integer -- return number of occurrences of value
p144
sa(dp145
g4
I01
sg5
Vindex
p146
sg7
L2L
sg16
VT.index(value, [start, [stop]]) -> integer -- return first index of value.\u000aRaises ValueError if the value is not present.
p147
sa(dp148
g4
I01
sg5
Vn_fields
p149
sg7
L5L
sa(dp150
g4
I01
sg5
Vn_sequence_fields
p151
sg7
L5L
sa(dp152
g4
I01
sg5
Vn_unnamed_fields
p153
sg7
L5L
sa(dp154
g4
I01
sg5
Vsp_expire
p155
sg7
L5L
sa(dp156
g4
I01
sg5
Vsp_flag
p157
sg7
L5L
sa(dp158
g4
I01
sg5
Vsp_inact
p159
sg7
L5L
sa(dp160
g4
I01
sg5
Vsp_lstchg
p161
sg7
L5L
sa(dp162
g4
I01
sg5
Vsp_max
p163
sg7
L5L
sa(dp164
g4
I01
sg5
Vsp_min
p165
sg7
L5L
sa(dp166
g4
I01
sg5
Vsp_nam
p167
sg7
L5L
sa(dp168
g4
I01
sg5
Vsp_namp
p169
sg7
L5L
sa(dp170
g4
I01
sg5
Vsp_pwd
p171
sg7
L5L
sa(dp172
g4
I01
sg5
Vsp_pwdp
p173
sg7
L5L
sa(dp174
g4
I01
sg5
Vsp_warn
p175
sg7
L5L
sasg4
I01
sg5
Vstruct_spwd
p176
sg7
L3L
sg16
Vspwd.struct_spwd: Results from getsp*() routines.\u000a\u000aThis object may be accessed either as a 9-tuple of\u000a  (sp_namp,sp_pwdp,sp_lstchg,sp_min,sp_max,sp_warn,sp_inact,sp_expire,sp_flag)\u000aor via the object attributes as named in the above tuple.
p177
sasg4
I01
sg5
Vspwd
p178
sg16
VThis module provides access to the Unix shadow password database.\u000aIt is available on various Unix versions.\u000a\u000aShadow password database entries are reported as 9-tuples of type struct_spwd,\u000acontaining the following items from the password database (see `<shadow.h>'):\u000asp_namp, sp_pwdp, sp_lstchg, sp_min, sp_max, sp_warn, sp_inact, sp_expire, sp_flag.\u000aThe sp_namp and sp_pwdp are strings, the rest are integers.\u000aAn exception is raised if the entry asked for cannot be found.\u000aYou have to be root to be able to use this module.
p179
s.