(dp0
Vchilds
p1
(lp2
(dp3
g1
(lp4
(dp5
Vis_builtin
p6
I01
sVname
p7
V__delattr__
p8
sVtype
p9
L5L
sa(dp10
g6
I01
sg7
V__dir__
p11
sg9
L2L
sVdoc
p12
V__dir__() -> list\u000adefault dir() implementation
p13
sa(dp14
g6
I01
sg7
V__doc__
p15
sg9
L5L
sa(dp16
g6
I01
sg7
V__eq__
p17
sg9
L5L
sa(dp18
g6
I01
sg7
V__format__
p19
sg9
L2L
sg12
Vdefault object formatter
p20
sa(dp21
g6
I01
sg7
V__ge__
p22
sg9
L5L
sa(dp23
g6
I01
sg7
V__getattribute__
p24
sg9
L5L
sa(dp25
g6
I01
sg7
V__gt__
p26
sg9
L5L
sa(dp27
g6
I01
sg7
V__hash__
p28
sg9
L5L
sa(dp29
g6
I01
sg7
V__init__
p30
sg9
L5L
sa(dp31
g6
I01
sg7
V__le__
p32
sg9
L5L
sa(dp33
g6
I01
sg7
V__lt__
p34
sg9
L5L
sa(dp35
g6
I01
sg7
V__ne__
p36
sg9
L5L
sa(dp37
g6
I01
sg7
V__new__
p38
sg9
L2L
sg12
VCreate and return a new object.  See help(type) for accurate signature.
p39
sa(dp40
g6
I01
sg7
V__reduce__
p41
sg9
L2L
sg12
Vhelper for pickle
p42
sa(dp43
g6
I01
sg7
V__reduce_ex__
p44
sg9
L2L
sg12
Vhelper for pickle
p45
sa(dp46
g6
I01
sg7
V__repr__
p47
sg9
L5L
sa(dp48
g6
I01
sg7
V__setattr__
p49
sg9
L5L
sa(dp50
g6
I01
sg7
V__sizeof__
p51
sg9
L2L
sg12
V__sizeof__() -> int\u000asize of object in memory, in bytes
p52
sa(dp53
g6
I01
sg7
V__str__
p54
sg9
L5L
sa(dp55
g6
I01
sg7
V__subclasshook__
p56
sg9
L2L
sg12
VAbstract classes can override this to customize issubclass().\u000a\u000aThis is invoked early on by abc.ABCMeta.__subclasscheck__().\u000aIt should return True, False or NotImplemented.  If it returns\u000aNotImplemented, the normal algorithm is used.  Otherwise, it\u000aoverrides the normal algorithm (and the outcome is cached).\u000a
p57
sa(dp58
g6
I01
sg7
Vbidirectional
p59
sg9
L2L
sg12
VReturns the bidirectional class assigned to the character chr as string.\u000a\u000aIf no such value is defined, an empty string is returned.
p60
sa(dp61
g6
I01
sg7
Vcategory
p62
sg9
L2L
sg12
VReturns the general category assigned to the character chr as string.
p63
sa(dp64
g6
I01
sg7
Vcombining
p65
sg9
L2L
sg12
VReturns the canonical combining class assigned to the character chr as integer.\u000a\u000aReturns 0 if no combining class is defined.
p66
sa(dp67
g6
I01
sg7
Vdecimal
p68
sg9
L2L
sg12
VConverts a Unicode character into its equivalent decimal value.\u000a\u000aReturns the decimal value assigned to the character chr as integer.\u000aIf no such value is defined, default is returned, or, if not given,\u000aValueError is raised.
p69
sa(dp70
g6
I01
sg7
Vdecomposition
p71
sg9
L2L
sg12
VReturns the character decomposition mapping assigned to the character chr as string.\u000a\u000aAn empty string is returned in case no such mapping is defined.
p72
sa(dp73
g6
I01
sg7
Vdigit
p74
sg9
L2L
sg12
VConverts a Unicode character into its equivalent digit value.\u000a\u000aReturns the digit value assigned to the character chr as integer.\u000aIf no such value is defined, default is returned, or, if not given,\u000aValueError is raised.
p75
sa(dp76
g6
I01
sg7
Veast_asian_width
p77
sg9
L2L
sg12
VReturns the east asian width assigned to the character chr as string.
p78
sa(dp79
g6
I01
sg7
Vlookup
p80
sg9
L2L
sg12
VLook up character by name.\u000a\u000aIf a character with the given name is found, return the\u000acorresponding character.  If not found, KeyError is raised.
p81
sa(dp82
g6
I01
sg7
Vmirrored
p83
sg9
L2L
sg12
VReturns the mirrored property assigned to the character chr as integer.\u000a\u000aReturns 1 if the character has been identified as a "mirrored"\u000acharacter in bidirectional text, 0 otherwise.
p84
sa(dp85
g6
I01
sg7
g7
sg9
L2L
sg12
VReturns the name assigned to the character chr as a string.\u000a\u000aIf no name is defined, default is returned, or, if not given,\u000aValueError is raised.
p86
sa(dp87
g6
I01
sg7
Vnormalize
p88
sg9
L2L
sg12
VReturn the normal form 'form' for the Unicode string unistr.\u000a\u000aValid values for form are 'NFC', 'NFKC', 'NFD', and 'NFKD'.
p89
sa(dp90
g6
I01
sg7
Vnumeric
p91
sg9
L2L
sg12
VConverts a Unicode character into its equivalent numeric value.\u000a\u000aReturns the numeric value assigned to the character chr as float.\u000aIf no such value is defined, default is returned, or, if not given,\u000aValueError is raised.
p92
sa(dp93
g6
I01
sg7
Vunidata_version
p94
sg9
L5L
sasg6
I01
sg7
VUCD
p95
sg9
L3L
sg12
Nsa(dp96
g6
I01
sg7
g15
sg9
L5L
sa(dp97
g1
(lp98
(dp99
g6
I01
sg7
g8
sg9
L5L
sa(dp100
g6
I01
sg7
V__dict__
p101
sg9
L5L
sa(dp102
g6
I01
sg7
g11
sg9
L2L
sg12
V__dir__() -> list\u000adefault dir() implementation
p103
sa(dp104
g6
I01
sg7
g15
sg9
L5L
sa(dp105
g6
I01
sg7
g17
sg9
L5L
sa(dp106
g6
I01
sg7
g19
sg9
L2L
sg12
Vdefault object formatter
p107
sa(dp108
g6
I01
sg7
g22
sg9
L5L
sa(dp109
g6
I01
sg7
g24
sg9
L5L
sa(dp110
g6
I01
sg7
g26
sg9
L5L
sa(dp111
g6
I01
sg7
g28
sg9
L5L
sa(dp112
g6
I01
sg7
g30
sg9
L5L
sa(dp113
g6
I01
sg7
g32
sg9
L5L
sa(dp114
g6
I01
sg7
g34
sg9
L5L
sa(dp115
g6
I01
sg7
V__module__
p116
sg9
L5L
sa(dp117
g6
I01
sg7
g36
sg9
L5L
sa(dp118
g6
I01
sg7
g38
sg9
L2L
sg12
VCreate and return a new object.  See help(type) for accurate signature.
p119
sa(dp120
g6
I01
sg7
g41
sg9
L2L
sg12
Vhelper for pickle
p121
sa(dp122
g6
I01
sg7
g44
sg9
L2L
sg12
Vhelper for pickle
p123
sa(dp124
g6
I01
sg7
g47
sg9
L5L
sa(dp125
g6
I01
sg7
g49
sg9
L5L
sa(dp126
g6
I01
sg7
g51
sg9
L2L
sg12
V__sizeof__() -> int\u000asize of object in memory, in bytes
p127
sa(dp128
g6
I01
sg7
g54
sg9
L5L
sa(dp129
g6
I01
sg7
g56
sg9
L2L
sg12
VAbstract classes can override this to customize issubclass().\u000a\u000aThis is invoked early on by abc.ABCMeta.__subclasscheck__().\u000aIt should return True, False or NotImplemented.  If it returns\u000aNotImplemented, the normal algorithm is used.  Otherwise, it\u000aoverrides the normal algorithm (and the outcome is cached).\u000a
p130
sa(dp131
g6
I01
sg7
V__weakref__
p132
sg9
L5L
sa(dp133
g6
I01
sg7
Vcreate_module
p134
sg9
L5L
sa(dp135
g6
I01
sg7
Vexec_module
p136
sg9
L5L
sa(dp137
g6
I01
sg7
Vfind_module
p138
sg9
L5L
sa(dp139
g6
I01
sg7
Vfind_spec
p140
sg9
L5L
sa(dp141
g6
I01
sg7
Vget_code
p142
sg9
L5L
sa(dp143
g6
I01
sg7
Vget_source
p144
sg9
L5L
sa(dp145
g6
I01
sg7
Vis_package
p146
sg9
L5L
sa(dp147
g6
I01
sg7
Vload_module
p148
sg9
L5L
sa(dp149
g6
I01
sg7
Vmodule_repr
p150
sg9
L5L
sasg6
I01
sg7
V__loader__
p151
sg9
L3L
sg12
VMeta path import for built-in modules.\u000a\u000a    All methods are either class or static methods to avoid the need to\u000a    instantiate the class.\u000a\u000a    
p152
sa(dp153
g6
I01
sg7
V__name__
p154
sg9
L5L
sa(dp155
g6
I01
sg7
V__package__
p156
sg9
L5L
sa(dp157
g6
I01
sg7
V__spec__
p158
sg9
L5L
sa(dp159
g6
I01
sg7
g59
sg9
L2L
sg12
VReturns the bidirectional class assigned to the character chr as string.\u000a\u000aIf no such value is defined, an empty string is returned.
p160
sa(dp161
g6
I01
sg7
g62
sg9
L2L
sg12
VReturns the general category assigned to the character chr as string.
p162
sa(dp163
g6
I01
sg7
g65
sg9
L2L
sg12
VReturns the canonical combining class assigned to the character chr as integer.\u000a\u000aReturns 0 if no combining class is defined.
p164
sa(dp165
g6
I01
sg7
g68
sg9
L2L
sg12
VConverts a Unicode character into its equivalent decimal value.\u000a\u000aReturns the decimal value assigned to the character chr as integer.\u000aIf no such value is defined, default is returned, or, if not given,\u000aValueError is raised.
p166
sa(dp167
g6
I01
sg7
g71
sg9
L2L
sg12
VReturns the character decomposition mapping assigned to the character chr as string.\u000a\u000aAn empty string is returned in case no such mapping is defined.
p168
sa(dp169
g6
I01
sg7
g74
sg9
L2L
sg12
VConverts a Unicode character into its equivalent digit value.\u000a\u000aReturns the digit value assigned to the character chr as integer.\u000aIf no such value is defined, default is returned, or, if not given,\u000aValueError is raised.
p170
sa(dp171
g6
I01
sg7
g77
sg9
L2L
sg12
VReturns the east asian width assigned to the character chr as string.
p172
sa(dp173
g6
I01
sg7
g80
sg9
L2L
sg12
VLook up character by name.\u000a\u000aIf a character with the given name is found, return the\u000acorresponding character.  If not found, KeyError is raised.
p174
sa(dp175
g6
I01
sg7
g83
sg9
L2L
sg12
VReturns the mirrored property assigned to the character chr as integer.\u000a\u000aReturns 1 if the character has been identified as a "mirrored"\u000acharacter in bidirectional text, 0 otherwise.
p176
sa(dp177
g6
I01
sg7
g7
sg9
L2L
sg12
VReturns the name assigned to the character chr as a string.\u000a\u000aIf no name is defined, default is returned, or, if not given,\u000aValueError is raised.
p178
sa(dp179
g6
I01
sg7
g88
sg9
L2L
sg12
VReturn the normal form 'form' for the Unicode string unistr.\u000a\u000aValid values for form are 'NFC', 'NFKC', 'NFD', and 'NFKD'.
p180
sa(dp181
g6
I01
sg7
g91
sg9
L2L
sg12
VConverts a Unicode character into its equivalent numeric value.\u000a\u000aReturns the numeric value assigned to the character chr as float.\u000aIf no such value is defined, default is returned, or, if not given,\u000aValueError is raised.
p182
sa(dp183
g6
I01
sg7
Vucd_3_2_0
p184
sg9
L5L
sa(dp185
g6
I01
sg7
Vucnhash_CAPI
p186
sg9
L5L
sa(dp187
g6
I01
sg7
g94
sg9
L5L
sasg6
I01
sg7
Vunicodedata
p188
sg12
VThis module provides access to the Unicode Character Database which\u000adefines character properties for all Unicode characters. The data in\u000athis database is based on the UnicodeData.txt file version\u000a8.0.0 which is publically available from ftp://ftp.unicode.org/.\u000a\u000aThe module uses the same names and symbols as defined by the\u000aUnicodeData File Format 8.0.0.
p189
s.