(dp0
S'doc'
p1
NsS'is_builtin'
p2
I01
sS'childs'
p3
(lp4
(dp5
g2
I01
sS'type'
p6
I5
sS'name'
p7
S'__doc__'
p8
sa(dp9
g2
I01
sg6
I5
sg7
S'__name__'
p10
sa(dp11
g2
I01
sg6
I5
sg7
S'__package__'
p12
sa(dp13
g1
Nsg2
I01
sg6
I2
sg7
S'ascii_decode'
p14
sa(dp15
g1
Nsg2
I01
sg6
I2
sg7
S'ascii_encode'
p16
sa(dp17
g1
Nsg2
I01
sg6
I2
sg7
S'charbuffer_encode'
p18
sa(dp19
g1
Nsg2
I01
sg6
I2
sg7
S'charmap_build'
p20
sa(dp21
g1
Nsg2
I01
sg6
I2
sg7
S'charmap_decode'
p22
sa(dp23
g1
Nsg2
I01
sg6
I2
sg7
S'charmap_encode'
p24
sa(dp25
g1
S"decode(obj, [encoding[,errors]]) -> object\n\nDecodes obj using the codec registered for encoding. encoding defaults\nto the default encoding. errors may be given to set a different error\nhandling scheme. Default is 'strict' meaning that encoding errors raise\na ValueError. Other possible values are 'ignore' and 'replace'\nas well as any other name registered with codecs.register_error that is\nable to handle ValueErrors."
p26
sg2
I01
sg6
I2
sg7
S'decode'
p27
sa(dp28
g1
S"encode(obj, [encoding[,errors]]) -> object\n\nEncodes obj using the codec registered for encoding. encoding defaults\nto the default encoding. errors may be given to set a different error\nhandling scheme. Default is 'strict' meaning that encoding errors raise\na ValueError. Other possible values are 'ignore', 'replace' and\n'xmlcharrefreplace' as well as any other name registered with\ncodecs.register_error that can handle ValueErrors."
p29
sg2
I01
sg6
I2
sg7
S'encode'
p30
sa(dp31
g1
Nsg2
I01
sg6
I2
sg7
S'escape_decode'
p32
sa(dp33
g1
Nsg2
I01
sg6
I2
sg7
S'escape_encode'
p34
sa(dp35
g1
Nsg2
I01
sg6
I2
sg7
S'latin_1_decode'
p36
sa(dp37
g1
Nsg2
I01
sg6
I2
sg7
S'latin_1_encode'
p38
sa(dp39
g1
S'lookup(encoding) -> CodecInfo\n\nLooks up a codec tuple in the Python codec registry and returns\na CodecInfo object.'
p40
sg2
I01
sg6
I2
sg7
S'lookup'
p41
sa(dp42
g1
S'lookup_error(errors) -> handler\n\nReturn the error handler for the specified error handling name\nor raise a LookupError, if no handler exists under this name.'
p43
sg2
I01
sg6
I2
sg7
S'lookup_error'
p44
sa(dp45
g1
Nsg2
I01
sg6
I2
sg7
S'raw_unicode_escape_decode'
p46
sa(dp47
g1
Nsg2
I01
sg6
I2
sg7
S'raw_unicode_escape_encode'
p48
sa(dp49
g1
Nsg2
I01
sg6
I2
sg7
S'readbuffer_encode'
p50
sa(dp51
g1
S'register(search_function)\n\nRegister a codec search function. Search functions are expected to take\none argument, the encoding name in all lower case letters, and return\na tuple of functions (encoder, decoder, stream_reader, stream_writer)\n(or a CodecInfo object).'
p52
sg2
I01
sg6
I2
sg7
S'register'
p53
sa(dp54
g1
S'register_error(errors, handler)\n\nRegister the specified error handler under the name\nerrors. handler must be a callable object, that\nwill be called with an exception instance containing\ninformation about the location of the encoding/decoding\nerror and must return a (replacement, new position) tuple.'
p55
sg2
I01
sg6
I2
sg7
S'register_error'
p56
sa(dp57
g1
Nsg2
I01
sg6
I2
sg7
S'unicode_escape_decode'
p58
sa(dp59
g1
Nsg2
I01
sg6
I2
sg7
S'unicode_escape_encode'
p60
sa(dp61
g1
Nsg2
I01
sg6
I2
sg7
S'unicode_internal_decode'
p62
sa(dp63
g1
Nsg2
I01
sg6
I2
sg7
S'unicode_internal_encode'
p64
sa(dp65
g1
Nsg2
I01
sg6
I2
sg7
S'utf_16_be_decode'
p66
sa(dp67
g1
Nsg2
I01
sg6
I2
sg7
S'utf_16_be_encode'
p68
sa(dp69
g1
Nsg2
I01
sg6
I2
sg7
S'utf_16_decode'
p70
sa(dp71
g1
Nsg2
I01
sg6
I2
sg7
S'utf_16_encode'
p72
sa(dp73
g1
Nsg2
I01
sg6
I2
sg7
S'utf_16_ex_decode'
p74
sa(dp75
g1
Nsg2
I01
sg6
I2
sg7
S'utf_16_le_decode'
p76
sa(dp77
g1
Nsg2
I01
sg6
I2
sg7
S'utf_16_le_encode'
p78
sa(dp79
g1
Nsg2
I01
sg6
I2
sg7
S'utf_32_be_decode'
p80
sa(dp81
g1
Nsg2
I01
sg6
I2
sg7
S'utf_32_be_encode'
p82
sa(dp83
g1
Nsg2
I01
sg6
I2
sg7
S'utf_32_decode'
p84
sa(dp85
g1
Nsg2
I01
sg6
I2
sg7
S'utf_32_encode'
p86
sa(dp87
g1
Nsg2
I01
sg6
I2
sg7
S'utf_32_ex_decode'
p88
sa(dp89
g1
Nsg2
I01
sg6
I2
sg7
S'utf_32_le_decode'
p90
sa(dp91
g1
Nsg2
I01
sg6
I2
sg7
S'utf_32_le_encode'
p92
sa(dp93
g1
Nsg2
I01
sg6
I2
sg7
S'utf_7_decode'
p94
sa(dp95
g1
Nsg2
I01
sg6
I2
sg7
S'utf_7_encode'
p96
sa(dp97
g1
Nsg2
I01
sg6
I2
sg7
S'utf_8_decode'
p98
sa(dp99
g1
Nsg2
I01
sg6
I2
sg7
S'utf_8_encode'
p100
sasg7
S'_codecs'
p101
s.