(dp0
S'doc'
p1
S'Support for POSIX locales.'
p2
sS'is_builtin'
p3
I01
sS'childs'
p4
(lp5
(dp6
g3
I01
sS'type'
p7
I5
sS'name'
p8
S'ABDAY_1'
p9
sa(dp10
g3
I01
sg7
I5
sg8
S'ABDAY_2'
p11
sa(dp12
g3
I01
sg7
I5
sg8
S'ABDAY_3'
p13
sa(dp14
g3
I01
sg7
I5
sg8
S'ABDAY_4'
p15
sa(dp16
g3
I01
sg7
I5
sg8
S'ABDAY_5'
p17
sa(dp18
g3
I01
sg7
I5
sg8
S'ABDAY_6'
p19
sa(dp20
g3
I01
sg7
I5
sg8
S'ABDAY_7'
p21
sa(dp22
g3
I01
sg7
I5
sg8
S'ABMON_1'
p23
sa(dp24
g3
I01
sg7
I5
sg8
S'ABMON_10'
p25
sa(dp26
g3
I01
sg7
I5
sg8
S'ABMON_11'
p27
sa(dp28
g3
I01
sg7
I5
sg8
S'ABMON_12'
p29
sa(dp30
g3
I01
sg7
I5
sg8
S'ABMON_2'
p31
sa(dp32
g3
I01
sg7
I5
sg8
S'ABMON_3'
p33
sa(dp34
g3
I01
sg7
I5
sg8
S'ABMON_4'
p35
sa(dp36
g3
I01
sg7
I5
sg8
S'ABMON_5'
p37
sa(dp38
g3
I01
sg7
I5
sg8
S'ABMON_6'
p39
sa(dp40
g3
I01
sg7
I5
sg8
S'ABMON_7'
p41
sa(dp42
g3
I01
sg7
I5
sg8
S'ABMON_8'
p43
sa(dp44
g3
I01
sg7
I5
sg8
S'ABMON_9'
p45
sa(dp46
g3
I01
sg7
I5
sg8
S'ALT_DIGITS'
p47
sa(dp48
g3
I01
sg7
I5
sg8
S'AM_STR'
p49
sa(dp50
g3
I01
sg7
I5
sg8
S'CHAR_MAX'
p51
sa(dp52
g3
I01
sg7
I5
sg8
S'CODESET'
p53
sa(dp54
g3
I01
sg7
I5
sg8
S'CRNCYSTR'
p55
sa(dp56
g3
I01
sg7
I5
sg8
S'DAY_1'
p57
sa(dp58
g3
I01
sg7
I5
sg8
S'DAY_2'
p59
sa(dp60
g3
I01
sg7
I5
sg8
S'DAY_3'
p61
sa(dp62
g3
I01
sg7
I5
sg8
S'DAY_4'
p63
sa(dp64
g3
I01
sg7
I5
sg8
S'DAY_5'
p65
sa(dp66
g3
I01
sg7
I5
sg8
S'DAY_6'
p67
sa(dp68
g3
I01
sg7
I5
sg8
S'DAY_7'
p69
sa(dp70
g3
I01
sg7
I5
sg8
S'D_FMT'
p71
sa(dp72
g3
I01
sg7
I5
sg8
S'D_T_FMT'
p73
sa(dp74
g3
I01
sg7
I5
sg8
S'ERA'
p75
sa(dp76
g3
I01
sg7
I5
sg8
S'ERA_D_FMT'
p77
sa(dp78
g3
I01
sg7
I5
sg8
S'ERA_D_T_FMT'
p79
sa(dp80
g3
I01
sg7
I5
sg8
S'ERA_T_FMT'
p81
sa(dp82
g1
Nsg3
I01
sg4
(lp83
(dp84
g3
I01
sg7
I5
sg8
S'__delattr__'
p85
sa(dp86
g3
I01
sg7
I5
sg8
S'__dict__'
p87
sa(dp88
g3
I01
sg7
I5
sg8
S'__doc__'
p89
sa(dp90
g1
S'default object formatter'
p91
sg3
I01
sg7
I2
sg8
S'__format__'
p92
sa(dp93
g3
I01
sg7
I5
sg8
S'__getattribute__'
p94
sa(dp95
g3
I01
sg7
I5
sg8
S'__getitem__'
p96
sa(dp97
g3
I01
sg7
I5
sg8
S'__getslice__'
p98
sa(dp99
g3
I01
sg7
I5
sg8
S'__hash__'
p100
sa(dp101
g3
I01
sg7
I5
sg8
S'__init__'
p102
sa(dp103
g3
I01
sg7
I5
sg8
S'__module__'
p104
sa(dp105
g1
S'T.__new__(S, ...) -> a new object with type S, a subtype of T'
p106
sg3
I01
sg7
I2
sg8
S'__new__'
p107
sa(dp108
g1
Nsg3
I01
sg7
I2
sg8
S'__reduce__'
p109
sa(dp110
g1
S'helper for pickle'
p111
sg3
I01
sg7
I2
sg8
S'__reduce_ex__'
p112
sa(dp113
g3
I01
sg7
I5
sg8
S'__repr__'
p114
sa(dp115
g3
I01
sg7
I5
sg8
S'__setattr__'
p116
sa(dp117
g1
Nsg3
I01
sg7
I2
sg8
S'__setstate__'
p118
sa(dp119
g1
S'__sizeof__() -> int\nsize of object in memory, in bytes'
p120
sg3
I01
sg7
I2
sg8
S'__sizeof__'
p121
sa(dp122
g3
I01
sg7
I5
sg8
S'__str__'
p123
sa(dp124
g1
S'Abstract classes can override this to customize issubclass().\n\nThis is invoked early on by abc.ABCMeta.__subclasscheck__().\nIt should return True, False or NotImplemented.  If it returns\nNotImplemented, the normal algorithm is used.  Otherwise, it\noverrides the normal algorithm (and the outcome is cached).\n'
p125
sg3
I01
sg7
I2
sg8
S'__subclasshook__'
p126
sa(dp127
g1
Nsg3
I01
sg7
I2
sg8
S'__unicode__'
p128
sa(dp129
g3
I01
sg7
I5
sg8
S'__weakref__'
p130
sa(dp131
g3
I01
sg7
I5
sg8
S'args'
p132
sa(dp133
g3
I01
sg7
I5
sg8
S'message'
p134
sasg7
I3
sg8
S'Error'
p135
sa(dp136
g3
I01
sg7
I5
sg8
S'LC_ALL'
p137
sa(dp138
g3
I01
sg7
I5
sg8
S'LC_COLLATE'
p139
sa(dp140
g3
I01
sg7
I5
sg8
S'LC_CTYPE'
p141
sa(dp142
g3
I01
sg7
I5
sg8
S'LC_MESSAGES'
p143
sa(dp144
g3
I01
sg7
I5
sg8
S'LC_MONETARY'
p145
sa(dp146
g3
I01
sg7
I5
sg8
S'LC_NUMERIC'
p147
sa(dp148
g3
I01
sg7
I5
sg8
S'LC_TIME'
p149
sa(dp150
g3
I01
sg7
I5
sg8
S'MON_1'
p151
sa(dp152
g3
I01
sg7
I5
sg8
S'MON_10'
p153
sa(dp154
g3
I01
sg7
I5
sg8
S'MON_11'
p155
sa(dp156
g3
I01
sg7
I5
sg8
S'MON_12'
p157
sa(dp158
g3
I01
sg7
I5
sg8
S'MON_2'
p159
sa(dp160
g3
I01
sg7
I5
sg8
S'MON_3'
p161
sa(dp162
g3
I01
sg7
I5
sg8
S'MON_4'
p163
sa(dp164
g3
I01
sg7
I5
sg8
S'MON_5'
p165
sa(dp166
g3
I01
sg7
I5
sg8
S'MON_6'
p167
sa(dp168
g3
I01
sg7
I5
sg8
S'MON_7'
p169
sa(dp170
g3
I01
sg7
I5
sg8
S'MON_8'
p171
sa(dp172
g3
I01
sg7
I5
sg8
S'MON_9'
p173
sa(dp174
g3
I01
sg7
I5
sg8
S'NOEXPR'
p175
sa(dp176
g3
I01
sg7
I5
sg8
S'PM_STR'
p177
sa(dp178
g3
I01
sg7
I5
sg8
S'RADIXCHAR'
p179
sa(dp180
g3
I01
sg7
I5
sg8
S'THOUSEP'
p181
sa(dp182
g3
I01
sg7
I5
sg8
S'T_FMT'
p183
sa(dp184
g3
I01
sg7
I5
sg8
S'T_FMT_AMPM'
p185
sa(dp186
g3
I01
sg7
I5
sg8
S'YESEXPR'
p187
sa(dp188
g3
I01
sg7
I5
sg8
S'_DATE_FMT'
p189
sa(dp190
g3
I01
sg7
I5
sg8
g89
sa(dp191
g3
I01
sg7
I5
sg8
S'__name__'
p192
sa(dp193
g3
I01
sg7
I5
sg8
S'__package__'
p194
sa(dp195
g1
S"bind_textdomain_codeset(domain, codeset) -> string\nBind the C library's domain to codeset."
p196
sg3
I01
sg7
I2
sg8
S'bind_textdomain_codeset'
p197
sa(dp198
g1
S"bindtextdomain(domain, dir) -> string\nBind the C library's domain to dir."
p199
sg3
I01
sg7
I2
sg8
S'bindtextdomain'
p200
sa(dp201
g1
S'dcgettext(domain, msg, category) -> string\nReturn translation of msg in domain and category.'
p202
sg3
I01
sg7
I2
sg8
S'dcgettext'
p203
sa(dp204
g1
S'dgettext(domain, msg) -> string\nReturn translation of msg in domain.'
p205
sg3
I01
sg7
I2
sg8
S'dgettext'
p206
sa(dp207
g1
S'gettext(msg) -> string\nReturn translation of msg.'
p208
sg3
I01
sg7
I2
sg8
S'gettext'
p209
sa(dp210
g1
S'() -> dict. Returns numeric and monetary locale-specific parameters.'
p211
sg3
I01
sg7
I2
sg8
S'localeconv'
p212
sa(dp213
g1
S'nl_langinfo(key) -> string\nReturn the value for the locale information associated with key.'
p214
sg3
I01
sg7
I2
sg8
S'nl_langinfo'
p215
sa(dp216
g1
S'(integer,string=None) -> string. Activates/queries locale processing.'
p217
sg3
I01
sg7
I2
sg8
S'setlocale'
p218
sa(dp219
g1
S'string,string -> int. Compares two strings according to the locale.'
p220
sg3
I01
sg7
I2
sg8
S'strcoll'
p221
sa(dp222
g1
S'string -> string. Returns a string that behaves for cmp locale-aware.'
p223
sg3
I01
sg7
I2
sg8
S'strxfrm'
p224
sa(dp225
g1
S"textdomain(domain) -> string\nSet the C library's textdmain to domain, returning the new domain."
p226
sg3
I01
sg7
I2
sg8
S'textdomain'
p227
sasg8
S'_locale'
p228
s.