(dp0
S'doc'
p1
S'Module implements the Mersenne Twister random number generator.'
p2
sS'is_builtin'
p3
I01
sS'childs'
p4
(lp5
(dp6
g1
S'Random() -> create a random number generator with its own internal state.'
p7
sg3
I01
sg4
(lp8
(dp9
g3
I01
sS'type'
p10
I5
sS'name'
p11
S'__delattr__'
p12
sa(dp13
g3
I01
sg10
I5
sg11
S'__doc__'
p14
sa(dp15
g1
S'default object formatter'
p16
sg3
I01
sg10
I2
sg11
S'__format__'
p17
sa(dp18
g3
I01
sg10
I5
sg11
S'__getattribute__'
p19
sa(dp20
g3
I01
sg10
I5
sg11
S'__hash__'
p21
sa(dp22
g3
I01
sg10
I5
sg11
S'__init__'
p23
sa(dp24
g1
S'T.__new__(S, ...) -> a new object with type S, a subtype of T'
p25
sg3
I01
sg10
I2
sg11
S'__new__'
p26
sa(dp27
g1
S'helper for pickle'
p28
sg3
I01
sg10
I2
sg11
S'__reduce__'
p29
sa(dp30
g1
S'helper for pickle'
p31
sg3
I01
sg10
I2
sg11
S'__reduce_ex__'
p32
sa(dp33
g3
I01
sg10
I5
sg11
S'__repr__'
p34
sa(dp35
g3
I01
sg10
I5
sg11
S'__setattr__'
p36
sa(dp37
g1
S'__sizeof__() -> int\nsize of object in memory, in bytes'
p38
sg3
I01
sg10
I2
sg11
S'__sizeof__'
p39
sa(dp40
g3
I01
sg10
I5
sg11
S'__str__'
p41
sa(dp42
g1
S'Abstract classes can override this to customize issubclass().\n\nThis is invoked early on by abc.ABCMeta.__subclasscheck__().\nIt should return True, False or NotImplemented.  If it returns\nNotImplemented, the normal algorithm is used.  Otherwise, it\noverrides the normal algorithm (and the outcome is cached).\n'
p43
sg3
I01
sg10
I2
sg11
S'__subclasshook__'
p44
sa(dp45
g1
S'getrandbits(k) -> x.  Generates a long int with k random bits.'
p46
sg3
I01
sg10
I2
sg11
S'getrandbits'
p47
sa(dp48
g1
S'getstate() -> tuple containing the current state.'
p49
sg3
I01
sg10
I2
sg11
S'getstate'
p50
sa(dp51
g1
S'jumpahead(int) -> None.  Create new state from existing state and integer.'
p52
sg3
I01
sg10
I2
sg11
S'jumpahead'
p53
sa(dp54
g1
S'random() -> x in the interval [0, 1).'
p55
sg3
I01
sg10
I2
sg11
S'random'
p56
sa(dp57
g1
S'seed([n]) -> None.  Defaults to current time.'
p58
sg3
I01
sg10
I2
sg11
S'seed'
p59
sa(dp60
g1
S'setstate(state) -> None.  Restores generator state.'
p61
sg3
I01
sg10
I2
sg11
S'setstate'
p62
sasg10
I3
sg11
S'Random'
p63
sa(dp64
g3
I01
sg10
I5
sg11
g14
sa(dp65
g3
I01
sg10
I5
sg11
S'__name__'
p66
sa(dp67
g3
I01
sg10
I5
sg11
S'__package__'
p68
sasg11
S'_random'
p69
s.