(dp0
S'doc'
p1
NsS'is_builtin'
p2
I01
sS'childs'
p3
(lp4
(dp5
g2
I01
sS'type'
p6
I5
sS'name'
p7
S'__doc__'
p8
sa(dp9
g2
I01
sg6
I5
sg7
S'__name__'
p10
sa(dp11
g2
I01
sg6
I5
sg7
S'__package__'
p12
sa(dp13
g2
I01
sg6
I5
sg7
S'blocksize'
p14
sa(dp15
g2
I01
sg6
I5
sg7
S'digest_size'
p16
sa(dp17
g2
I01
sg6
I5
sg7
S'digestsize'
p18
sa(dp19
g1
S'Return a new SHA hashing object.  An optional string argument\nmay be provided; if present, this string will be automatically\nhashed.'
p20
sg2
I01
sg6
I2
sg7
S'new'
p21
sasg7
S'_sha'
p22
s.