(dp0
S'doc'
p1
NsS'is_builtin'
p2
I01
sS'childs'
p3
(lp4
(dp5
g2
I01
sS'type'
p6
I5
sS'name'
p7
S'__doc__'
p8
sa(dp9
g2
I01
sg6
I5
sg7
S'__name__'
p10
sa(dp11
g2
I01
sg6
I5
sg7
S'__package__'
p12
sa(dp13
g1
S'Return a new SHA-384 hash object; optionally initialized with a string.'
p14
sg2
I01
sg6
I2
sg7
S'sha384'
p15
sa(dp16
g1
S'Return a new SHA-512 hash object; optionally initialized with a string.'
p17
sg2
I01
sg6
I2
sg7
S'sha512'
p18
sasg7
S'_sha512'
p19
s.