(dp0
S'doc'
p1
NsS'is_builtin'
p2
I01
sS'childs'
p3
(lp4
(dp5
g2
I01
sS'type'
p6
I5
sS'name'
p7
S'CELL'
p8
sa(dp9
g2
I01
sg6
I5
sg7
S'DEF_BOUND'
p10
sa(dp11
g2
I01
sg6
I5
sg7
S'DEF_FREE'
p12
sa(dp13
g2
I01
sg6
I5
sg7
S'DEF_FREE_CLASS'
p14
sa(dp15
g2
I01
sg6
I5
sg7
S'DEF_GLOBAL'
p16
sa(dp17
g2
I01
sg6
I5
sg7
S'DEF_IMPORT'
p18
sa(dp19
g2
I01
sg6
I5
sg7
S'DEF_LOCAL'
p20
sa(dp21
g2
I01
sg6
I5
sg7
S'DEF_PARAM'
p22
sa(dp23
g2
I01
sg6
I5
sg7
S'FREE'
p24
sa(dp25
g2
I01
sg6
I5
sg7
S'GLOBAL_EXPLICIT'
p26
sa(dp27
g2
I01
sg6
I5
sg7
S'GLOBAL_IMPLICIT'
p28
sa(dp29
g2
I01
sg6
I5
sg7
S'LOCAL'
p30
sa(dp31
g2
I01
sg6
I5
sg7
S'OPT_BARE_EXEC'
p32
sa(dp33
g2
I01
sg6
I5
sg7
S'OPT_EXEC'
p34
sa(dp35
g2
I01
sg6
I5
sg7
S'OPT_IMPORT_STAR'
p36
sa(dp37
g2
I01
sg6
I5
sg7
S'SCOPE_MASK'
p38
sa(dp39
g2
I01
sg6
I5
sg7
S'SCOPE_OFF'
p40
sa(dp41
g2
I01
sg6
I5
sg7
S'TYPE_CLASS'
p42
sa(dp43
g2
I01
sg6
I5
sg7
S'TYPE_FUNCTION'
p44
sa(dp45
g2
I01
sg6
I5
sg7
S'TYPE_MODULE'
p46
sa(dp47
g2
I01
sg6
I5
sg7
S'USE'
p48
sa(dp49
g2
I01
sg6
I5
sg7
S'__doc__'
p50
sa(dp51
g2
I01
sg6
I5
sg7
S'__name__'
p52
sa(dp53
g2
I01
sg6
I5
sg7
S'__package__'
p54
sa(dp55
g1
S'Return symbol and scope dictionaries used internally by compiler.'
p56
sg2
I01
sg6
I2
sg7
S'symtable'
p57
sasg7
S'_symtable'
p58
s.