(dp0
S'doc'
p1
S'This module is always available. It provides access to mathematical\nfunctions for complex numbers.'
p2
sS'is_builtin'
p3
I01
sS'childs'
p4
(lp5
(dp6
g3
I01
sS'type'
p7
I5
sS'name'
p8
S'__doc__'
p9
sa(dp10
g3
I01
sg7
I5
sg8
S'__name__'
p11
sa(dp12
g3
I01
sg7
I5
sg8
S'__package__'
p13
sa(dp14
g1
S'acos(x)\n\nReturn the arc cosine of x.'
p15
sg3
I01
sg7
I2
sg8
S'acos'
p16
sa(dp17
g1
S'acosh(x)\n\nReturn the inverse hyperbolic cosine of x.'
p18
sg3
I01
sg7
I2
sg8
S'acosh'
p19
sa(dp20
g1
S'asin(x)\n\nReturn the arc sine of x.'
p21
sg3
I01
sg7
I2
sg8
S'asin'
p22
sa(dp23
g1
S'asinh(x)\n\nReturn the inverse hyperbolic sine of x.'
p24
sg3
I01
sg7
I2
sg8
S'asinh'
p25
sa(dp26
g1
S'atan(x)\n\nReturn the arc tangent of x.'
p27
sg3
I01
sg7
I2
sg8
S'atan'
p28
sa(dp29
g1
S'atanh(x)\n\nReturn the inverse hyperbolic tangent of x.'
p30
sg3
I01
sg7
I2
sg8
S'atanh'
p31
sa(dp32
g1
S'cos(x)\n\nReturn the cosine of x.'
p33
sg3
I01
sg7
I2
sg8
S'cos'
p34
sa(dp35
g1
S'cosh(x)\n\nReturn the hyperbolic cosine of x.'
p36
sg3
I01
sg7
I2
sg8
S'cosh'
p37
sa(dp38
g3
I01
sg7
I5
sg8
S'e'
p39
sa(dp40
g1
S'exp(x)\n\nReturn the exponential value e**x.'
p41
sg3
I01
sg7
I2
sg8
S'exp'
p42
sa(dp43
g1
S'isinf(z) -> bool\nChecks if the real or imaginary part of z is infinite.'
p44
sg3
I01
sg7
I2
sg8
S'isinf'
p45
sa(dp46
g1
S'isnan(z) -> bool\nChecks if the real or imaginary part of z not a number (NaN)'
p47
sg3
I01
sg7
I2
sg8
S'isnan'
p48
sa(dp49
g1
S'log(x[, base]) -> the logarithm of x to the given base.\nIf the base not specified, returns the natural logarithm (base e) of x.'
p50
sg3
I01
sg7
I2
sg8
S'log'
p51
sa(dp52
g1
S'log10(x)\n\nReturn the base-10 logarithm of x.'
p53
sg3
I01
sg7
I2
sg8
S'log10'
p54
sa(dp55
g1
S'phase(z) -> float\n\nReturn argument, also known as the phase angle, of a complex.'
p56
sg3
I01
sg7
I2
sg8
S'phase'
p57
sa(dp58
g3
I01
sg7
I5
sg8
S'pi'
p59
sa(dp60
g1
S'polar(z) -> r: float, phi: float\n\nConvert a complex from rectangular coordinates to polar coordinates. r is\nthe distance from 0 and phi the phase angle.'
p61
sg3
I01
sg7
I2
sg8
S'polar'
p62
sa(dp63
g1
S'rect(r, phi) -> z: complex\n\nConvert from polar coordinates to rectangular coordinates.'
p64
sg3
I01
sg7
I2
sg8
S'rect'
p65
sa(dp66
g1
S'sin(x)\n\nReturn the sine of x.'
p67
sg3
I01
sg7
I2
sg8
S'sin'
p68
sa(dp69
g1
S'sinh(x)\n\nReturn the hyperbolic sine of x.'
p70
sg3
I01
sg7
I2
sg8
S'sinh'
p71
sa(dp72
g1
S'sqrt(x)\n\nReturn the square root of x.'
p73
sg3
I01
sg7
I2
sg8
S'sqrt'
p74
sa(dp75
g1
S'tan(x)\n\nReturn the tangent of x.'
p76
sg3
I01
sg7
I2
sg8
S'tan'
p77
sa(dp78
g1
S'tanh(x)\n\nReturn the hyperbolic tangent of x.'
p79
sg3
I01
sg7
I2
sg8
S'tanh'
p80
sasg8
S'cmath'
p81
s.