(dp0
S'doc'
p1
S'This module provides access to the Unicode Character Database which\ndefines character properties for all Unicode characters. The data in\nthis database is based on the UnicodeData.txt file version\n5.2.0 which is publically available from ftp://ftp.unicode.org/.\n\nThe module uses the same names and symbols as defined by the\nUnicodeData File Format 5.2.0 (see\nhttp://www.unicode.org/reports/tr44/tr44-4.html).'
p2
sS'is_builtin'
p3
I01
sS'childs'
p4
(lp5
(dp6
g1
Nsg3
I01
sg4
(lp7
(dp8
g3
I01
sS'type'
p9
I5
sS'name'
p10
S'__delattr__'
p11
sa(dp12
g3
I01
sg9
I5
sg10
S'__doc__'
p13
sa(dp14
g1
S'default object formatter'
p15
sg3
I01
sg9
I2
sg10
S'__format__'
p16
sa(dp17
g3
I01
sg9
I5
sg10
S'__getattribute__'
p18
sa(dp19
g3
I01
sg9
I5
sg10
S'__hash__'
p20
sa(dp21
g3
I01
sg9
I5
sg10
S'__init__'
p22
sa(dp23
g1
S'T.__new__(S, ...) -> a new object with type S, a subtype of T'
p24
sg3
I01
sg9
I2
sg10
S'__new__'
p25
sa(dp26
g1
S'helper for pickle'
p27
sg3
I01
sg9
I2
sg10
S'__reduce__'
p28
sa(dp29
g1
S'helper for pickle'
p30
sg3
I01
sg9
I2
sg10
S'__reduce_ex__'
p31
sa(dp32
g3
I01
sg9
I5
sg10
S'__repr__'
p33
sa(dp34
g3
I01
sg9
I5
sg10
S'__setattr__'
p35
sa(dp36
g1
S'__sizeof__() -> int\nsize of object in memory, in bytes'
p37
sg3
I01
sg9
I2
sg10
S'__sizeof__'
p38
sa(dp39
g3
I01
sg9
I5
sg10
S'__str__'
p40
sa(dp41
g1
S'Abstract classes can override this to customize issubclass().\n\nThis is invoked early on by abc.ABCMeta.__subclasscheck__().\nIt should return True, False or NotImplemented.  If it returns\nNotImplemented, the normal algorithm is used.  Otherwise, it\noverrides the normal algorithm (and the outcome is cached).\n'
p42
sg3
I01
sg9
I2
sg10
S'__subclasshook__'
p43
sa(dp44
g1
S'bidirectional(unichr)\n\nReturns the bidirectional class assigned to the Unicode character\nunichr as string. If no such value is defined, an empty string is\nreturned.'
p45
sg3
I01
sg9
I2
sg10
S'bidirectional'
p46
sa(dp47
g1
S'category(unichr)\n\nReturns the general category assigned to the Unicode character\nunichr as string.'
p48
sg3
I01
sg9
I2
sg10
S'category'
p49
sa(dp50
g1
S'combining(unichr)\n\nReturns the canonical combining class assigned to the Unicode\ncharacter unichr as integer. Returns 0 if no combining class is\ndefined.'
p51
sg3
I01
sg9
I2
sg10
S'combining'
p52
sa(dp53
g1
S'decimal(unichr[, default])\n\nReturns the decimal value assigned to the Unicode character unichr\nas integer. If no such value is defined, default is returned, or, if\nnot given, ValueError is raised.'
p54
sg3
I01
sg9
I2
sg10
S'decimal'
p55
sa(dp56
g1
S'decomposition(unichr)\n\nReturns the character decomposition mapping assigned to the Unicode\ncharacter unichr as string. An empty string is returned in case no\nsuch mapping is defined.'
p57
sg3
I01
sg9
I2
sg10
S'decomposition'
p58
sa(dp59
g1
S'digit(unichr[, default])\n\nReturns the digit value assigned to the Unicode character unichr as\ninteger. If no such value is defined, default is returned, or, if\nnot given, ValueError is raised.'
p60
sg3
I01
sg9
I2
sg10
S'digit'
p61
sa(dp62
g1
S'east_asian_width(unichr)\n\nReturns the east asian width assigned to the Unicode character\nunichr as string.'
p63
sg3
I01
sg9
I2
sg10
S'east_asian_width'
p64
sa(dp65
g1
S'lookup(name)\n\nLook up character by name.  If a character with the\ngiven name is found, return the corresponding Unicode\ncharacter.  If not found, KeyError is raised.'
p66
sg3
I01
sg9
I2
sg10
S'lookup'
p67
sa(dp68
g1
S'mirrored(unichr)\n\nReturns the mirrored property assigned to the Unicode character\nunichr as integer. Returns 1 if the character has been identified as\na "mirrored" character in bidirectional text, 0 otherwise.'
p69
sg3
I01
sg9
I2
sg10
S'mirrored'
p70
sa(dp71
g1
S'name(unichr[, default])\nReturns the name assigned to the Unicode character unichr as a\nstring. If no name is defined, default is returned, or, if not\ngiven, ValueError is raised.'
p72
sg3
I01
sg9
I2
sg10
g10
sa(dp73
g1
S"normalize(form, unistr)\n\nReturn the normal form 'form' for the Unicode string unistr.  Valid\nvalues for form are 'NFC', 'NFKC', 'NFD', and 'NFKD'."
p74
sg3
I01
sg9
I2
sg10
S'normalize'
p75
sa(dp76
g1
S'numeric(unichr[, default])\n\nReturns the numeric value assigned to the Unicode character unichr\nas float. If no such value is defined, default is returned, or, if\nnot given, ValueError is raised.'
p77
sg3
I01
sg9
I2
sg10
S'numeric'
p78
sa(dp79
g3
I01
sg9
I5
sg10
S'unidata_version'
p80
sasg9
I3
sg10
S'UCD'
p81
sa(dp82
g3
I01
sg9
I5
sg10
g13
sa(dp83
g3
I01
sg9
I5
sg10
S'__name__'
p84
sa(dp85
g3
I01
sg9
I5
sg10
S'__package__'
p86
sa(dp87
g1
S'bidirectional(unichr)\n\nReturns the bidirectional class assigned to the Unicode character\nunichr as string. If no such value is defined, an empty string is\nreturned.'
p88
sg3
I01
sg9
I2
sg10
g46
sa(dp89
g1
S'category(unichr)\n\nReturns the general category assigned to the Unicode character\nunichr as string.'
p90
sg3
I01
sg9
I2
sg10
g49
sa(dp91
g1
S'combining(unichr)\n\nReturns the canonical combining class assigned to the Unicode\ncharacter unichr as integer. Returns 0 if no combining class is\ndefined.'
p92
sg3
I01
sg9
I2
sg10
g52
sa(dp93
g1
S'decimal(unichr[, default])\n\nReturns the decimal value assigned to the Unicode character unichr\nas integer. If no such value is defined, default is returned, or, if\nnot given, ValueError is raised.'
p94
sg3
I01
sg9
I2
sg10
g55
sa(dp95
g1
S'decomposition(unichr)\n\nReturns the character decomposition mapping assigned to the Unicode\ncharacter unichr as string. An empty string is returned in case no\nsuch mapping is defined.'
p96
sg3
I01
sg9
I2
sg10
g58
sa(dp97
g1
S'digit(unichr[, default])\n\nReturns the digit value assigned to the Unicode character unichr as\ninteger. If no such value is defined, default is returned, or, if\nnot given, ValueError is raised.'
p98
sg3
I01
sg9
I2
sg10
g61
sa(dp99
g1
S'east_asian_width(unichr)\n\nReturns the east asian width assigned to the Unicode character\nunichr as string.'
p100
sg3
I01
sg9
I2
sg10
g64
sa(dp101
g1
S'lookup(name)\n\nLook up character by name.  If a character with the\ngiven name is found, return the corresponding Unicode\ncharacter.  If not found, KeyError is raised.'
p102
sg3
I01
sg9
I2
sg10
g67
sa(dp103
g1
S'mirrored(unichr)\n\nReturns the mirrored property assigned to the Unicode character\nunichr as integer. Returns 1 if the character has been identified as\na "mirrored" character in bidirectional text, 0 otherwise.'
p104
sg3
I01
sg9
I2
sg10
g70
sa(dp105
g1
S'name(unichr[, default])\nReturns the name assigned to the Unicode character unichr as a\nstring. If no name is defined, default is returned, or, if not\ngiven, ValueError is raised.'
p106
sg3
I01
sg9
I2
sg10
g10
sa(dp107
g1
S"normalize(form, unistr)\n\nReturn the normal form 'form' for the Unicode string unistr.  Valid\nvalues for form are 'NFC', 'NFKC', 'NFD', and 'NFKD'."
p108
sg3
I01
sg9
I2
sg10
g75
sa(dp109
g1
S'numeric(unichr[, default])\n\nReturns the numeric value assigned to the Unicode character unichr\nas float. If no such value is defined, default is returned, or, if\nnot given, ValueError is raised.'
p110
sg3
I01
sg9
I2
sg10
g78
sa(dp111
g3
I01
sg9
I5
sg10
S'ucd_3_2_0'
p112
sa(dp113
g3
I01
sg9
I5
sg10
S'ucnhash_CAPI'
p114
sa(dp115
g3
I01
sg9
I5
sg10
g80
sasg10
S'unicodedata'
p116
s.